
DMX_controllerv2.elf:     file format elf32-littlearm

Sections:
Idx Name          Size      VMA       LMA       File off  Algn
  0 .text         00005bc8  00000000  00000000  00010000  2**2
                  CONTENTS, ALLOC, LOAD, READONLY, CODE
  1 .ARM.exidx    00000008  00005bc8  00005bc8  00015bc8  2**2
                  CONTENTS, ALLOC, LOAD, READONLY, DATA
  2 .relocate     00000080  20000000  00005bd0  00020000  2**2
                  CONTENTS, ALLOC, LOAD, CODE
  3 .bss          00001db8  20000080  00005c50  00020080  2**2
                  ALLOC
  4 .stack        00002000  20001e38  00007a08  00020080  2**0
                  ALLOC
  5 .ARM.attributes 00000028  00000000  00000000  00020080  2**0
                  CONTENTS, READONLY
  6 .comment      00000059  00000000  00000000  000200a8  2**0
                  CONTENTS, READONLY
  7 .debug_info   0004ccce  00000000  00000000  00020101  2**0
                  CONTENTS, READONLY, DEBUGGING
  8 .debug_abbrev 0000665c  00000000  00000000  0006cdcf  2**0
                  CONTENTS, READONLY, DEBUGGING
  9 .debug_loc    00008b4c  00000000  00000000  0007342b  2**0
                  CONTENTS, READONLY, DEBUGGING
 10 .debug_aranges 00000ac8  00000000  00000000  0007bf77  2**0
                  CONTENTS, READONLY, DEBUGGING
 11 .debug_ranges 00000d28  00000000  00000000  0007ca3f  2**0
                  CONTENTS, READONLY, DEBUGGING
 12 .debug_macro  00025476  00000000  00000000  0007d767  2**0
                  CONTENTS, READONLY, DEBUGGING
 13 .debug_line   00017ede  00000000  00000000  000a2bdd  2**0
                  CONTENTS, READONLY, DEBUGGING
 14 .debug_str    000a3c06  00000000  00000000  000baabb  2**0
                  CONTENTS, READONLY, DEBUGGING
 15 .debug_frame  00001fa0  00000000  00000000  0015e6c4  2**2
                  CONTENTS, READONLY, DEBUGGING

Disassembly of section .text:

00000000 <exception_table>:
       0:	38 3e 00 20 15 2b 00 00 c1 2b 00 00 c5 2b 00 00     8>. .+...+...+..
	...
      2c:	c9 2b 00 00 00 00 00 00 00 00 00 00 cd 2b 00 00     .+...........+..
      3c:	d1 2b 00 00 11 2b 00 00 11 2b 00 00 11 2b 00 00     .+...+...+...+..
      4c:	59 07 00 00 11 2b 00 00 11 2b 00 00 11 2b 00 00     Y....+...+...+..
      5c:	11 2b 00 00 11 2b 00 00 ad 1a 00 00 bd 1a 00 00     .+...+..........
      6c:	cd 1a 00 00 dd 1a 00 00 ed 1a 00 00 fd 1a 00 00     ................
      7c:	11 2b 00 00 11 2b 00 00 d5 13 00 00 e5 13 00 00     .+...+..........
      8c:	f5 13 00 00 11 2b 00 00 11 2b 00 00 11 2b 00 00     .....+...+...+..
      9c:	11 2b 00 00 11 2b 00 00 39 07 00 00 49 07 00 00     .+...+..9...I...
      ac:	95 1b 00 00 ad 09 00 00 11 2b 00 00 11 2b 00 00     .........+...+..

000000bc <__do_global_dtors_aux>:
      bc:	b510      	push	{r4, lr}
      be:	4c06      	ldr	r4, [pc, #24]	; (d8 <__do_global_dtors_aux+0x1c>)
      c0:	7823      	ldrb	r3, [r4, #0]
      c2:	2b00      	cmp	r3, #0
      c4:	d107      	bne.n	d6 <__do_global_dtors_aux+0x1a>
      c6:	4b05      	ldr	r3, [pc, #20]	; (dc <__do_global_dtors_aux+0x20>)
      c8:	2b00      	cmp	r3, #0
      ca:	d002      	beq.n	d2 <__do_global_dtors_aux+0x16>
      cc:	4804      	ldr	r0, [pc, #16]	; (e0 <__do_global_dtors_aux+0x24>)
      ce:	e000      	b.n	d2 <__do_global_dtors_aux+0x16>
      d0:	bf00      	nop
      d2:	2301      	movs	r3, #1
      d4:	7023      	strb	r3, [r4, #0]
      d6:	bd10      	pop	{r4, pc}
      d8:	20000080 	.word	0x20000080
      dc:	00000000 	.word	0x00000000
      e0:	00005bd0 	.word	0x00005bd0

000000e4 <frame_dummy>:
      e4:	4b08      	ldr	r3, [pc, #32]	; (108 <frame_dummy+0x24>)
      e6:	b510      	push	{r4, lr}
      e8:	2b00      	cmp	r3, #0
      ea:	d003      	beq.n	f4 <frame_dummy+0x10>
      ec:	4907      	ldr	r1, [pc, #28]	; (10c <frame_dummy+0x28>)
      ee:	4808      	ldr	r0, [pc, #32]	; (110 <frame_dummy+0x2c>)
      f0:	e000      	b.n	f4 <frame_dummy+0x10>
      f2:	bf00      	nop
      f4:	4807      	ldr	r0, [pc, #28]	; (114 <frame_dummy+0x30>)
      f6:	6803      	ldr	r3, [r0, #0]
      f8:	2b00      	cmp	r3, #0
      fa:	d100      	bne.n	fe <frame_dummy+0x1a>
      fc:	bd10      	pop	{r4, pc}
      fe:	4b06      	ldr	r3, [pc, #24]	; (118 <frame_dummy+0x34>)
     100:	2b00      	cmp	r3, #0
     102:	d0fb      	beq.n	fc <frame_dummy+0x18>
     104:	4798      	blx	r3
     106:	e7f9      	b.n	fc <frame_dummy+0x18>
     108:	00000000 	.word	0x00000000
     10c:	20000084 	.word	0x20000084
     110:	00005bd0 	.word	0x00005bd0
     114:	00005bd0 	.word	0x00005bd0
     118:	00000000 	.word	0x00000000

0000011c <lcd_pulseEnable>:
    lcd_pulseEnable();
}



void lcd_pulseEnable(void) {
     11c:	b5f0      	push	{r4, r5, r6, r7, lr}
     11e:	46d6      	mov	lr, sl
     120:	464f      	mov	r7, r9
     122:	4646      	mov	r6, r8
     124:	b5c0      	push	{r6, r7, lr}
	PortGroup *const port_base = port_get_group_from_gpio_pin(gpio_pin);
	uint32_t pin_mask  = (1UL << (gpio_pin % 32));

	/* Set the pin to high or low atomically based on the requested level */
	if (level) {
		port_base->OUTSET.reg = pin_mask;
     126:	2680      	movs	r6, #128	; 0x80
     128:	2382      	movs	r3, #130	; 0x82
     12a:	05db      	lsls	r3, r3, #23
     12c:	4698      	mov	r8, r3
     12e:	44b0      	add	r8, r6
     130:	4643      	mov	r3, r8
     132:	619e      	str	r6, [r3, #24]
    port_pin_set_output_level(PIN_LCD_EN, 1);
    delay_us(1);
     134:	2000      	movs	r0, #0
     136:	4f13      	ldr	r7, [pc, #76]	; (184 <lcd_pulseEnable+0x68>)
     138:	47b8      	blx	r7
     13a:	0002      	movs	r2, r0
     13c:	2300      	movs	r3, #0
     13e:	4c12      	ldr	r4, [pc, #72]	; (188 <lcd_pulseEnable+0x6c>)
     140:	2500      	movs	r5, #0
     142:	1912      	adds	r2, r2, r4
     144:	416b      	adcs	r3, r5
     146:	0010      	movs	r0, r2
     148:	0019      	movs	r1, r3
     14a:	4b10      	ldr	r3, [pc, #64]	; (18c <lcd_pulseEnable+0x70>)
     14c:	4699      	mov	r9, r3
     14e:	4a10      	ldr	r2, [pc, #64]	; (190 <lcd_pulseEnable+0x74>)
     150:	2300      	movs	r3, #0
     152:	47c8      	blx	r9
     154:	4b0f      	ldr	r3, [pc, #60]	; (194 <lcd_pulseEnable+0x78>)
     156:	469a      	mov	sl, r3
     158:	4798      	blx	r3
	} else {
		port_base->OUTCLR.reg = pin_mask;
     15a:	4643      	mov	r3, r8
     15c:	615e      	str	r6, [r3, #20]
    port_pin_set_output_level(PIN_LCD_EN, 0);
    delay_us(50);
     15e:	2000      	movs	r0, #0
     160:	47b8      	blx	r7
     162:	2232      	movs	r2, #50	; 0x32
     164:	2300      	movs	r3, #0
     166:	2100      	movs	r1, #0
     168:	4e0b      	ldr	r6, [pc, #44]	; (198 <lcd_pulseEnable+0x7c>)
     16a:	47b0      	blx	r6
     16c:	1900      	adds	r0, r0, r4
     16e:	4169      	adcs	r1, r5
     170:	4a07      	ldr	r2, [pc, #28]	; (190 <lcd_pulseEnable+0x74>)
     172:	2300      	movs	r3, #0
     174:	47c8      	blx	r9
     176:	47d0      	blx	sl
}
     178:	bc1c      	pop	{r2, r3, r4}
     17a:	4690      	mov	r8, r2
     17c:	4699      	mov	r9, r3
     17e:	46a2      	mov	sl, r4
     180:	bdf0      	pop	{r4, r5, r6, r7, pc}
     182:	46c0      	nop			; (mov r8, r8)
     184:	000028dd 	.word	0x000028dd
     188:	006acfbf 	.word	0x006acfbf
     18c:	00003751 	.word	0x00003751
     190:	006acfc0 	.word	0x006acfc0
     194:	20000001 	.word	0x20000001
     198:	00003791 	.word	0x00003791

0000019c <lcd_write8bits>:
void lcd_write8bits(uint8_t value) {
     19c:	b510      	push	{r4, lr}
	if (level) {
     19e:	07c3      	lsls	r3, r0, #31
     1a0:	d529      	bpl.n	1f6 <lcd_write8bits+0x5a>
		port_base->OUTSET.reg = pin_mask;
     1a2:	2240      	movs	r2, #64	; 0x40
     1a4:	4b24      	ldr	r3, [pc, #144]	; (238 <lcd_write8bits+0x9c>)
     1a6:	619a      	str	r2, [r3, #24]
	if (level) {
     1a8:	0783      	lsls	r3, r0, #30
     1aa:	d528      	bpl.n	1fe <lcd_write8bits+0x62>
		port_base->OUTSET.reg = pin_mask;
     1ac:	2220      	movs	r2, #32
     1ae:	4b22      	ldr	r3, [pc, #136]	; (238 <lcd_write8bits+0x9c>)
     1b0:	619a      	str	r2, [r3, #24]
	if (level) {
     1b2:	0743      	lsls	r3, r0, #29
     1b4:	d527      	bpl.n	206 <lcd_write8bits+0x6a>
		port_base->OUTSET.reg = pin_mask;
     1b6:	2210      	movs	r2, #16
     1b8:	4b1f      	ldr	r3, [pc, #124]	; (238 <lcd_write8bits+0x9c>)
     1ba:	619a      	str	r2, [r3, #24]
	if (level) {
     1bc:	0703      	lsls	r3, r0, #28
     1be:	d526      	bpl.n	20e <lcd_write8bits+0x72>
		port_base->OUTSET.reg = pin_mask;
     1c0:	2208      	movs	r2, #8
     1c2:	4b1d      	ldr	r3, [pc, #116]	; (238 <lcd_write8bits+0x9c>)
     1c4:	619a      	str	r2, [r3, #24]
	if (level) {
     1c6:	06c3      	lsls	r3, r0, #27
     1c8:	d525      	bpl.n	216 <lcd_write8bits+0x7a>
		port_base->OUTSET.reg = pin_mask;
     1ca:	2204      	movs	r2, #4
     1cc:	4b1a      	ldr	r3, [pc, #104]	; (238 <lcd_write8bits+0x9c>)
     1ce:	619a      	str	r2, [r3, #24]
	if (level) {
     1d0:	0683      	lsls	r3, r0, #26
     1d2:	d524      	bpl.n	21e <lcd_write8bits+0x82>
		port_base->OUTSET.reg = pin_mask;
     1d4:	2202      	movs	r2, #2
     1d6:	4b18      	ldr	r3, [pc, #96]	; (238 <lcd_write8bits+0x9c>)
     1d8:	619a      	str	r2, [r3, #24]
	if (level) {
     1da:	0643      	lsls	r3, r0, #25
     1dc:	d523      	bpl.n	226 <lcd_write8bits+0x8a>
		port_base->OUTSET.reg = pin_mask;
     1de:	2201      	movs	r2, #1
     1e0:	4b15      	ldr	r3, [pc, #84]	; (238 <lcd_write8bits+0x9c>)
     1e2:	619a      	str	r2, [r3, #24]
	if (level) {
     1e4:	09c0      	lsrs	r0, r0, #7
     1e6:	d122      	bne.n	22e <lcd_write8bits+0x92>
		port_base->OUTCLR.reg = pin_mask;
     1e8:	2280      	movs	r2, #128	; 0x80
     1ea:	0612      	lsls	r2, r2, #24
     1ec:	4b12      	ldr	r3, [pc, #72]	; (238 <lcd_write8bits+0x9c>)
     1ee:	615a      	str	r2, [r3, #20]
    lcd_pulseEnable();
     1f0:	4b12      	ldr	r3, [pc, #72]	; (23c <lcd_write8bits+0xa0>)
     1f2:	4798      	blx	r3
}
     1f4:	bd10      	pop	{r4, pc}
     1f6:	2240      	movs	r2, #64	; 0x40
     1f8:	4b0f      	ldr	r3, [pc, #60]	; (238 <lcd_write8bits+0x9c>)
     1fa:	615a      	str	r2, [r3, #20]
     1fc:	e7d4      	b.n	1a8 <lcd_write8bits+0xc>
     1fe:	2220      	movs	r2, #32
     200:	4b0d      	ldr	r3, [pc, #52]	; (238 <lcd_write8bits+0x9c>)
     202:	615a      	str	r2, [r3, #20]
     204:	e7d5      	b.n	1b2 <lcd_write8bits+0x16>
     206:	2210      	movs	r2, #16
     208:	4b0b      	ldr	r3, [pc, #44]	; (238 <lcd_write8bits+0x9c>)
     20a:	615a      	str	r2, [r3, #20]
     20c:	e7d6      	b.n	1bc <lcd_write8bits+0x20>
     20e:	2208      	movs	r2, #8
     210:	4b09      	ldr	r3, [pc, #36]	; (238 <lcd_write8bits+0x9c>)
     212:	615a      	str	r2, [r3, #20]
     214:	e7d7      	b.n	1c6 <lcd_write8bits+0x2a>
     216:	2204      	movs	r2, #4
     218:	4b07      	ldr	r3, [pc, #28]	; (238 <lcd_write8bits+0x9c>)
     21a:	615a      	str	r2, [r3, #20]
     21c:	e7d8      	b.n	1d0 <lcd_write8bits+0x34>
     21e:	2202      	movs	r2, #2
     220:	4b05      	ldr	r3, [pc, #20]	; (238 <lcd_write8bits+0x9c>)
     222:	615a      	str	r2, [r3, #20]
     224:	e7d9      	b.n	1da <lcd_write8bits+0x3e>
     226:	2201      	movs	r2, #1
     228:	4b03      	ldr	r3, [pc, #12]	; (238 <lcd_write8bits+0x9c>)
     22a:	615a      	str	r2, [r3, #20]
     22c:	e7da      	b.n	1e4 <lcd_write8bits+0x48>
		port_base->OUTSET.reg = pin_mask;
     22e:	2280      	movs	r2, #128	; 0x80
     230:	0612      	lsls	r2, r2, #24
     232:	4b01      	ldr	r3, [pc, #4]	; (238 <lcd_write8bits+0x9c>)
     234:	619a      	str	r2, [r3, #24]
     236:	e7db      	b.n	1f0 <lcd_write8bits+0x54>
     238:	41000080 	.word	0x41000080
     23c:	0000011d 	.word	0x0000011d

00000240 <lcd_send>:
void lcd_send(uint8_t value, uint8_t mode) {
     240:	b510      	push	{r4, lr}
	if (level) {
     242:	2900      	cmp	r1, #0
     244:	d118      	bne.n	278 <lcd_send+0x38>
		port_base->OUTCLR.reg = pin_mask;
     246:	2280      	movs	r2, #128	; 0x80
     248:	0092      	lsls	r2, r2, #2
     24a:	4b0e      	ldr	r3, [pc, #56]	; (284 <lcd_send+0x44>)
     24c:	615a      	str	r2, [r3, #20]
    lcd_write8bits(value);
     24e:	4b0e      	ldr	r3, [pc, #56]	; (288 <lcd_send+0x48>)
     250:	4798      	blx	r3
    delay_us(50);
     252:	2000      	movs	r0, #0
     254:	4b0d      	ldr	r3, [pc, #52]	; (28c <lcd_send+0x4c>)
     256:	4798      	blx	r3
     258:	2232      	movs	r2, #50	; 0x32
     25a:	2300      	movs	r3, #0
     25c:	2100      	movs	r1, #0
     25e:	4c0c      	ldr	r4, [pc, #48]	; (290 <lcd_send+0x50>)
     260:	47a0      	blx	r4
     262:	4a0c      	ldr	r2, [pc, #48]	; (294 <lcd_send+0x54>)
     264:	2300      	movs	r3, #0
     266:	1880      	adds	r0, r0, r2
     268:	4159      	adcs	r1, r3
     26a:	4a0b      	ldr	r2, [pc, #44]	; (298 <lcd_send+0x58>)
     26c:	2300      	movs	r3, #0
     26e:	4c0b      	ldr	r4, [pc, #44]	; (29c <lcd_send+0x5c>)
     270:	47a0      	blx	r4
     272:	4b0b      	ldr	r3, [pc, #44]	; (2a0 <lcd_send+0x60>)
     274:	4798      	blx	r3
}
     276:	bd10      	pop	{r4, pc}
		port_base->OUTSET.reg = pin_mask;
     278:	2280      	movs	r2, #128	; 0x80
     27a:	0092      	lsls	r2, r2, #2
     27c:	4b01      	ldr	r3, [pc, #4]	; (284 <lcd_send+0x44>)
     27e:	619a      	str	r2, [r3, #24]
     280:	e7e5      	b.n	24e <lcd_send+0xe>
     282:	46c0      	nop			; (mov r8, r8)
     284:	41000080 	.word	0x41000080
     288:	0000019d 	.word	0x0000019d
     28c:	000028dd 	.word	0x000028dd
     290:	00003791 	.word	0x00003791
     294:	006acfbf 	.word	0x006acfbf
     298:	006acfc0 	.word	0x006acfc0
     29c:	00003751 	.word	0x00003751
     2a0:	20000001 	.word	0x20000001

000002a4 <lcd_command>:
void lcd_command(uint8_t value) {
     2a4:	b510      	push	{r4, lr}
    lcd_send(value, 0);
     2a6:	2100      	movs	r1, #0
     2a8:	4b01      	ldr	r3, [pc, #4]	; (2b0 <lcd_command+0xc>)
     2aa:	4798      	blx	r3
}
     2ac:	bd10      	pop	{r4, pc}
     2ae:	46c0      	nop			; (mov r8, r8)
     2b0:	00000241 	.word	0x00000241

000002b4 <lcd_clear>:
void lcd_clear() {
     2b4:	b510      	push	{r4, lr}
    lcd_command(LCD_CLEARDISPLAY);
     2b6:	2001      	movs	r0, #1
     2b8:	4b0b      	ldr	r3, [pc, #44]	; (2e8 <lcd_clear+0x34>)
     2ba:	4798      	blx	r3
    delay_us(3);
     2bc:	2000      	movs	r0, #0
     2be:	4b0b      	ldr	r3, [pc, #44]	; (2ec <lcd_clear+0x38>)
     2c0:	4798      	blx	r3
     2c2:	0002      	movs	r2, r0
     2c4:	2300      	movs	r3, #0
     2c6:	0019      	movs	r1, r3
     2c8:	1880      	adds	r0, r0, r2
     2ca:	4159      	adcs	r1, r3
     2cc:	1880      	adds	r0, r0, r2
     2ce:	4159      	adcs	r1, r3
     2d0:	4a07      	ldr	r2, [pc, #28]	; (2f0 <lcd_clear+0x3c>)
     2d2:	2300      	movs	r3, #0
     2d4:	1880      	adds	r0, r0, r2
     2d6:	4159      	adcs	r1, r3
     2d8:	4a06      	ldr	r2, [pc, #24]	; (2f4 <lcd_clear+0x40>)
     2da:	2300      	movs	r3, #0
     2dc:	4c06      	ldr	r4, [pc, #24]	; (2f8 <lcd_clear+0x44>)
     2de:	47a0      	blx	r4
     2e0:	4b06      	ldr	r3, [pc, #24]	; (2fc <lcd_clear+0x48>)
     2e2:	4798      	blx	r3
}
     2e4:	bd10      	pop	{r4, pc}
     2e6:	46c0      	nop			; (mov r8, r8)
     2e8:	000002a5 	.word	0x000002a5
     2ec:	000028dd 	.word	0x000028dd
     2f0:	006acfbf 	.word	0x006acfbf
     2f4:	006acfc0 	.word	0x006acfc0
     2f8:	00003751 	.word	0x00003751
     2fc:	20000001 	.word	0x20000001

00000300 <lcd_home>:
void lcd_home() {
     300:	b510      	push	{r4, lr}
    lcd_command(LCD_RETURNHOME);
     302:	2002      	movs	r0, #2
     304:	4b0b      	ldr	r3, [pc, #44]	; (334 <lcd_home+0x34>)
     306:	4798      	blx	r3
    delay_us(3);
     308:	2000      	movs	r0, #0
     30a:	4b0b      	ldr	r3, [pc, #44]	; (338 <lcd_home+0x38>)
     30c:	4798      	blx	r3
     30e:	0002      	movs	r2, r0
     310:	2300      	movs	r3, #0
     312:	0019      	movs	r1, r3
     314:	1880      	adds	r0, r0, r2
     316:	4159      	adcs	r1, r3
     318:	1880      	adds	r0, r0, r2
     31a:	4159      	adcs	r1, r3
     31c:	4a07      	ldr	r2, [pc, #28]	; (33c <lcd_home+0x3c>)
     31e:	2300      	movs	r3, #0
     320:	1880      	adds	r0, r0, r2
     322:	4159      	adcs	r1, r3
     324:	4a06      	ldr	r2, [pc, #24]	; (340 <lcd_home+0x40>)
     326:	2300      	movs	r3, #0
     328:	4c06      	ldr	r4, [pc, #24]	; (344 <lcd_home+0x44>)
     32a:	47a0      	blx	r4
     32c:	4b06      	ldr	r3, [pc, #24]	; (348 <lcd_home+0x48>)
     32e:	4798      	blx	r3
}
     330:	bd10      	pop	{r4, pc}
     332:	46c0      	nop			; (mov r8, r8)
     334:	000002a5 	.word	0x000002a5
     338:	000028dd 	.word	0x000028dd
     33c:	006acfbf 	.word	0x006acfbf
     340:	006acfc0 	.word	0x006acfc0
     344:	00003751 	.word	0x00003751
     348:	20000001 	.word	0x20000001

0000034c <lcd_begin>:
void lcd_begin(void) {
     34c:	b5f8      	push	{r3, r4, r5, r6, r7, lr}
     34e:	46de      	mov	lr, fp
     350:	4657      	mov	r7, sl
     352:	464e      	mov	r6, r9
     354:	4645      	mov	r5, r8
     356:	b5e0      	push	{r5, r6, r7, lr}
    _displayfunction = LCD_2LINE | LCD_8BITMODE | LCD_5x8DOTS;
     358:	4d3a      	ldr	r5, [pc, #232]	; (444 <lcd_begin+0xf8>)
     35a:	2318      	movs	r3, #24
     35c:	702b      	strb	r3, [r5, #0]
    delay_ms(50);
     35e:	2000      	movs	r0, #0
     360:	4b39      	ldr	r3, [pc, #228]	; (448 <lcd_begin+0xfc>)
     362:	469b      	mov	fp, r3
     364:	4798      	blx	r3
     366:	4b39      	ldr	r3, [pc, #228]	; (44c <lcd_begin+0x100>)
     368:	469a      	mov	sl, r3
     36a:	2232      	movs	r2, #50	; 0x32
     36c:	2300      	movs	r3, #0
     36e:	2100      	movs	r1, #0
     370:	47d0      	blx	sl
     372:	4e37      	ldr	r6, [pc, #220]	; (450 <lcd_begin+0x104>)
     374:	2700      	movs	r7, #0
     376:	1980      	adds	r0, r0, r6
     378:	4179      	adcs	r1, r7
     37a:	4b36      	ldr	r3, [pc, #216]	; (454 <lcd_begin+0x108>)
     37c:	4699      	mov	r9, r3
     37e:	4a36      	ldr	r2, [pc, #216]	; (458 <lcd_begin+0x10c>)
     380:	2300      	movs	r3, #0
     382:	47c8      	blx	r9
     384:	4b35      	ldr	r3, [pc, #212]	; (45c <lcd_begin+0x110>)
     386:	4698      	mov	r8, r3
     388:	4798      	blx	r3
     38a:	2280      	movs	r2, #128	; 0x80
     38c:	2382      	movs	r3, #130	; 0x82
     38e:	05db      	lsls	r3, r3, #23
     390:	18d3      	adds	r3, r2, r3
     392:	2180      	movs	r1, #128	; 0x80
     394:	0109      	lsls	r1, r1, #4
     396:	6199      	str	r1, [r3, #24]
		port_base->OUTCLR.reg = pin_mask;
     398:	2180      	movs	r1, #128	; 0x80
     39a:	0089      	lsls	r1, r1, #2
     39c:	6159      	str	r1, [r3, #20]
     39e:	3901      	subs	r1, #1
     3a0:	39ff      	subs	r1, #255	; 0xff
     3a2:	6159      	str	r1, [r3, #20]
     3a4:	615a      	str	r2, [r3, #20]
    delay_ms(50);
     3a6:	2000      	movs	r0, #0
     3a8:	47d8      	blx	fp
     3aa:	2232      	movs	r2, #50	; 0x32
     3ac:	2300      	movs	r3, #0
     3ae:	2100      	movs	r1, #0
     3b0:	47d0      	blx	sl
     3b2:	1980      	adds	r0, r0, r6
     3b4:	4179      	adcs	r1, r7
     3b6:	4a28      	ldr	r2, [pc, #160]	; (458 <lcd_begin+0x10c>)
     3b8:	2300      	movs	r3, #0
     3ba:	47c8      	blx	r9
     3bc:	47c0      	blx	r8
    lcd_command(LCD_FUNCTIONSET | _displayfunction);
     3be:	2620      	movs	r6, #32
     3c0:	7828      	ldrb	r0, [r5, #0]
     3c2:	4330      	orrs	r0, r6
     3c4:	b2c0      	uxtb	r0, r0
     3c6:	4c26      	ldr	r4, [pc, #152]	; (460 <lcd_begin+0x114>)
     3c8:	47a0      	blx	r4
    delay_us(4500);
     3ca:	2000      	movs	r0, #0
     3cc:	47d8      	blx	fp
     3ce:	4a25      	ldr	r2, [pc, #148]	; (464 <lcd_begin+0x118>)
     3d0:	2300      	movs	r3, #0
     3d2:	2100      	movs	r1, #0
     3d4:	47d0      	blx	sl
     3d6:	4a24      	ldr	r2, [pc, #144]	; (468 <lcd_begin+0x11c>)
     3d8:	2300      	movs	r3, #0
     3da:	1880      	adds	r0, r0, r2
     3dc:	4159      	adcs	r1, r3
     3de:	4a23      	ldr	r2, [pc, #140]	; (46c <lcd_begin+0x120>)
     3e0:	2300      	movs	r3, #0
     3e2:	47c8      	blx	r9
     3e4:	47c0      	blx	r8
    lcd_command(LCD_FUNCTIONSET | _displayfunction);
     3e6:	7828      	ldrb	r0, [r5, #0]
     3e8:	4330      	orrs	r0, r6
     3ea:	b2c0      	uxtb	r0, r0
     3ec:	47a0      	blx	r4
    delay_us(150);
     3ee:	2000      	movs	r0, #0
     3f0:	47d8      	blx	fp
     3f2:	2296      	movs	r2, #150	; 0x96
     3f4:	2300      	movs	r3, #0
     3f6:	2100      	movs	r1, #0
     3f8:	47d0      	blx	sl
     3fa:	4a1b      	ldr	r2, [pc, #108]	; (468 <lcd_begin+0x11c>)
     3fc:	2300      	movs	r3, #0
     3fe:	1880      	adds	r0, r0, r2
     400:	4159      	adcs	r1, r3
     402:	4a1a      	ldr	r2, [pc, #104]	; (46c <lcd_begin+0x120>)
     404:	2300      	movs	r3, #0
     406:	47c8      	blx	r9
     408:	47c0      	blx	r8
    lcd_command(LCD_FUNCTIONSET | _displayfunction);
     40a:	7828      	ldrb	r0, [r5, #0]
     40c:	4330      	orrs	r0, r6
     40e:	b2c0      	uxtb	r0, r0
     410:	47a0      	blx	r4
    lcd_command(LCD_FUNCTIONSET | _displayfunction);
     412:	7828      	ldrb	r0, [r5, #0]
     414:	4330      	orrs	r0, r6
     416:	b2c0      	uxtb	r0, r0
     418:	47a0      	blx	r4
    _displaycontrol = LCD_DISPLAYON | LCD_CURSORON | LCD_BLINKOFF;
     41a:	2206      	movs	r2, #6
     41c:	4b14      	ldr	r3, [pc, #80]	; (470 <lcd_begin+0x124>)
     41e:	701a      	strb	r2, [r3, #0]
    lcd_command(LCD_DISPLAYCONTROL | _displaycontrol);
     420:	200e      	movs	r0, #14
     422:	47a0      	blx	r4
    lcd_clear();
     424:	4b13      	ldr	r3, [pc, #76]	; (474 <lcd_begin+0x128>)
     426:	4798      	blx	r3
    _displaymode = LCD_ENTRYLEFT | LCD_ENTRYSHIFTDECREMENT;
     428:	2202      	movs	r2, #2
     42a:	4b13      	ldr	r3, [pc, #76]	; (478 <lcd_begin+0x12c>)
     42c:	701a      	strb	r2, [r3, #0]
    lcd_command(LCD_ENTRYMODESET | _displaymode);
     42e:	2006      	movs	r0, #6
     430:	47a0      	blx	r4
    lcd_home();
     432:	4b12      	ldr	r3, [pc, #72]	; (47c <lcd_begin+0x130>)
     434:	4798      	blx	r3
}
     436:	bc3c      	pop	{r2, r3, r4, r5}
     438:	4690      	mov	r8, r2
     43a:	4699      	mov	r9, r3
     43c:	46a2      	mov	sl, r4
     43e:	46ab      	mov	fp, r5
     440:	bdf8      	pop	{r3, r4, r5, r6, r7, pc}
     442:	46c0      	nop			; (mov r8, r8)
     444:	2000009d 	.word	0x2000009d
     448:	000028dd 	.word	0x000028dd
     44c:	00003791 	.word	0x00003791
     450:	00001b57 	.word	0x00001b57
     454:	00003751 	.word	0x00003751
     458:	00001b58 	.word	0x00001b58
     45c:	20000001 	.word	0x20000001
     460:	000002a5 	.word	0x000002a5
     464:	00001194 	.word	0x00001194
     468:	006acfbf 	.word	0x006acfbf
     46c:	006acfc0 	.word	0x006acfc0
     470:	2000009c 	.word	0x2000009c
     474:	000002b5 	.word	0x000002b5
     478:	2000009e 	.word	0x2000009e
     47c:	00000301 	.word	0x00000301

00000480 <lcd_setCursor>:
void lcd_setCursor(uint8_t col, uint8_t row) {
     480:	b570      	push	{r4, r5, r6, lr}
     482:	b084      	sub	sp, #16
    int row_offsets[] = { 0x00, 0x40, 0x14, 0x54 };
     484:	466a      	mov	r2, sp
     486:	4b0b      	ldr	r3, [pc, #44]	; (4b4 <lcd_setCursor+0x34>)
     488:	cb70      	ldmia	r3!, {r4, r5, r6}
     48a:	c270      	stmia	r2!, {r4, r5, r6}
     48c:	681b      	ldr	r3, [r3, #0]
     48e:	6013      	str	r3, [r2, #0]
    if(row > 3 || col > 19)
     490:	2903      	cmp	r1, #3
     492:	d801      	bhi.n	498 <lcd_setCursor+0x18>
     494:	2813      	cmp	r0, #19
     496:	d901      	bls.n	49c <lcd_setCursor+0x1c>
}
     498:	b004      	add	sp, #16
     49a:	bd70      	pop	{r4, r5, r6, pc}
    lcd_command(LCD_SETDDRAMADDR | (col + row_offsets[row]));
     49c:	0089      	lsls	r1, r1, #2
     49e:	466b      	mov	r3, sp
     4a0:	58cb      	ldr	r3, [r1, r3]
     4a2:	18c0      	adds	r0, r0, r3
     4a4:	2380      	movs	r3, #128	; 0x80
     4a6:	425b      	negs	r3, r3
     4a8:	4318      	orrs	r0, r3
     4aa:	b2c0      	uxtb	r0, r0
     4ac:	4b02      	ldr	r3, [pc, #8]	; (4b8 <lcd_setCursor+0x38>)
     4ae:	4798      	blx	r3
     4b0:	e7f2      	b.n	498 <lcd_setCursor+0x18>
     4b2:	46c0      	nop			; (mov r8, r8)
     4b4:	000058f0 	.word	0x000058f0
     4b8:	000002a5 	.word	0x000002a5

000004bc <lcd_noCursor>:
void lcd_noCursor(void) {
     4bc:	b510      	push	{r4, lr}
    _displaycontrol &= ~LCD_CURSORON;
     4be:	4b05      	ldr	r3, [pc, #20]	; (4d4 <lcd_noCursor+0x18>)
     4c0:	7818      	ldrb	r0, [r3, #0]
     4c2:	2202      	movs	r2, #2
     4c4:	4390      	bics	r0, r2
     4c6:	7018      	strb	r0, [r3, #0]
    lcd_command(LCD_DISPLAYCONTROL | _displaycontrol);
     4c8:	2308      	movs	r3, #8
     4ca:	4318      	orrs	r0, r3
     4cc:	4b02      	ldr	r3, [pc, #8]	; (4d8 <lcd_noCursor+0x1c>)
     4ce:	4798      	blx	r3
}
     4d0:	bd10      	pop	{r4, pc}
     4d2:	46c0      	nop			; (mov r8, r8)
     4d4:	2000009c 	.word	0x2000009c
     4d8:	000002a5 	.word	0x000002a5

000004dc <lcd_write>:
void lcd_write(uint8_t value) {
     4dc:	b510      	push	{r4, lr}
    lcd_send(value, 1);
     4de:	2101      	movs	r1, #1
     4e0:	4b01      	ldr	r3, [pc, #4]	; (4e8 <lcd_write+0xc>)
     4e2:	4798      	blx	r3
}
     4e4:	bd10      	pop	{r4, pc}
     4e6:	46c0      	nop			; (mov r8, r8)
     4e8:	00000241 	.word	0x00000241

000004ec <lcd_printstr>:

void lcd_setBacklight(uint8_t new_val) {
    /*manka*/
}

void lcd_printstr(char *str) {
     4ec:	b570      	push	{r4, r5, r6, lr}
     4ee:	0004      	movs	r4, r0
    while(*str) {
     4f0:	7800      	ldrb	r0, [r0, #0]
     4f2:	2800      	cmp	r0, #0
     4f4:	d005      	beq.n	502 <lcd_printstr+0x16>
        lcd_write(*str++);
     4f6:	4d03      	ldr	r5, [pc, #12]	; (504 <lcd_printstr+0x18>)
     4f8:	3401      	adds	r4, #1
     4fa:	47a8      	blx	r5
    while(*str) {
     4fc:	7820      	ldrb	r0, [r4, #0]
     4fe:	2800      	cmp	r0, #0
     500:	d1fa      	bne.n	4f8 <lcd_printstr+0xc>
    }
     502:	bd70      	pop	{r4, r5, r6, pc}
     504:	000004dd 	.word	0x000004dd

00000508 <process_ADSR>:
     508:	b570      	push	{r4, r5, r6, lr}
     50a:	0004      	movs	r4, r0
     50c:	2330      	movs	r3, #48	; 0x30
     50e:	5cc2      	ldrb	r2, [r0, r3]
     510:	2a05      	cmp	r2, #5
     512:	d80b      	bhi.n	52c <process_ADSR+0x24>
     514:	0093      	lsls	r3, r2, #2
     516:	4a34      	ldr	r2, [pc, #208]	; (5e8 <process_ADSR+0xe0>)
     518:	58d3      	ldr	r3, [r2, r3]
     51a:	469f      	mov	pc, r3
     51c:	2300      	movs	r3, #0
     51e:	6103      	str	r3, [r0, #16]
     520:	6243      	str	r3, [r0, #36]	; 0x24
     522:	6183      	str	r3, [r0, #24]
     524:	62c3      	str	r3, [r0, #44]	; 0x2c
     526:	2201      	movs	r2, #1
     528:	3330      	adds	r3, #48	; 0x30
     52a:	54c2      	strb	r2, [r0, r3]
     52c:	bd70      	pop	{r4, r5, r6, pc}
     52e:	6903      	ldr	r3, [r0, #16]
     530:	6882      	ldr	r2, [r0, #8]
     532:	4694      	mov	ip, r2
     534:	4463      	add	r3, ip
     536:	001d      	movs	r5, r3
     538:	6123      	str	r3, [r4, #16]
     53a:	68c1      	ldr	r1, [r0, #12]
     53c:	428b      	cmp	r3, r1
     53e:	d806      	bhi.n	54e <process_ADSR+0x46>
     540:	2001      	movs	r0, #1
     542:	4240      	negs	r0, r0
     544:	4b29      	ldr	r3, [pc, #164]	; (5ec <process_ADSR+0xe4>)
     546:	4798      	blx	r3
     548:	4345      	muls	r5, r0
     54a:	6065      	str	r5, [r4, #4]
     54c:	e7ee      	b.n	52c <process_ADSR+0x24>
     54e:	2301      	movs	r3, #1
     550:	425b      	negs	r3, r3
     552:	6043      	str	r3, [r0, #4]
     554:	2202      	movs	r2, #2
     556:	3331      	adds	r3, #49	; 0x31
     558:	54c2      	strb	r2, [r0, r3]
     55a:	2300      	movs	r3, #0
     55c:	6103      	str	r3, [r0, #16]
     55e:	e7e5      	b.n	52c <process_ADSR+0x24>
     560:	6983      	ldr	r3, [r0, #24]
     562:	6882      	ldr	r2, [r0, #8]
     564:	4694      	mov	ip, r2
     566:	4463      	add	r3, ip
     568:	001d      	movs	r5, r3
     56a:	61a3      	str	r3, [r4, #24]
     56c:	6a00      	ldr	r0, [r0, #32]
     56e:	6961      	ldr	r1, [r4, #20]
     570:	428b      	cmp	r3, r1
     572:	d806      	bhi.n	582 <process_ADSR+0x7a>
     574:	43c0      	mvns	r0, r0
     576:	4b1d      	ldr	r3, [pc, #116]	; (5ec <process_ADSR+0xe4>)
     578:	4798      	blx	r3
     57a:	4345      	muls	r5, r0
     57c:	43ed      	mvns	r5, r5
     57e:	6065      	str	r5, [r4, #4]
     580:	e7d4      	b.n	52c <process_ADSR+0x24>
     582:	6060      	str	r0, [r4, #4]
     584:	2203      	movs	r2, #3
     586:	2330      	movs	r3, #48	; 0x30
     588:	54e2      	strb	r2, [r4, r3]
     58a:	2300      	movs	r3, #0
     58c:	61a3      	str	r3, [r4, #24]
     58e:	e7cd      	b.n	52c <process_ADSR+0x24>
     590:	6a43      	ldr	r3, [r0, #36]	; 0x24
     592:	6882      	ldr	r2, [r0, #8]
     594:	4694      	mov	ip, r2
     596:	4463      	add	r3, ip
     598:	6243      	str	r3, [r0, #36]	; 0x24
     59a:	6a02      	ldr	r2, [r0, #32]
     59c:	6042      	str	r2, [r0, #4]
     59e:	69c2      	ldr	r2, [r0, #28]
     5a0:	4293      	cmp	r3, r2
     5a2:	d9c3      	bls.n	52c <process_ADSR+0x24>
     5a4:	2204      	movs	r2, #4
     5a6:	2330      	movs	r3, #48	; 0x30
     5a8:	54c2      	strb	r2, [r0, r3]
     5aa:	2300      	movs	r3, #0
     5ac:	6243      	str	r3, [r0, #36]	; 0x24
     5ae:	e7bd      	b.n	52c <process_ADSR+0x24>
     5b0:	6ac3      	ldr	r3, [r0, #44]	; 0x2c
     5b2:	6882      	ldr	r2, [r0, #8]
     5b4:	4694      	mov	ip, r2
     5b6:	4463      	add	r3, ip
     5b8:	001d      	movs	r5, r3
     5ba:	62e3      	str	r3, [r4, #44]	; 0x2c
     5bc:	6a81      	ldr	r1, [r0, #40]	; 0x28
     5be:	428b      	cmp	r3, r1
     5c0:	d807      	bhi.n	5d2 <process_ADSR+0xca>
     5c2:	6a06      	ldr	r6, [r0, #32]
     5c4:	0030      	movs	r0, r6
     5c6:	4b09      	ldr	r3, [pc, #36]	; (5ec <process_ADSR+0xe4>)
     5c8:	4798      	blx	r3
     5ca:	4345      	muls	r5, r0
     5cc:	1b75      	subs	r5, r6, r5
     5ce:	6065      	str	r5, [r4, #4]
     5d0:	e7ac      	b.n	52c <process_ADSR+0x24>
     5d2:	2300      	movs	r3, #0
     5d4:	6043      	str	r3, [r0, #4]
     5d6:	2105      	movs	r1, #5
     5d8:	2230      	movs	r2, #48	; 0x30
     5da:	5481      	strb	r1, [r0, r2]
     5dc:	62c3      	str	r3, [r0, #44]	; 0x2c
     5de:	e7a5      	b.n	52c <process_ADSR+0x24>
     5e0:	2300      	movs	r3, #0
     5e2:	6043      	str	r3, [r0, #4]
     5e4:	e7a2      	b.n	52c <process_ADSR+0x24>
     5e6:	46c0      	nop			; (mov r8, r8)
     5e8:	00005900 	.word	0x00005900
     5ec:	000035c5 	.word	0x000035c5

000005f0 <get_ADSR_value>:
     5f0:	79c0      	ldrb	r0, [r0, #7]
     5f2:	4770      	bx	lr

000005f4 <configure_extint_channel>:
     5f4:	4770      	bx	lr
	...

000005f8 <button_read>:
     5f8:	b510      	push	{r4, lr}
     5fa:	2282      	movs	r2, #130	; 0x82
     5fc:	05d2      	lsls	r2, r2, #23
     5fe:	6a13      	ldr	r3, [r2, #32]
     600:	6a12      	ldr	r2, [r2, #32]
     602:	0b5b      	lsrs	r3, r3, #13
     604:	2101      	movs	r1, #1
     606:	400b      	ands	r3, r1
     608:	005b      	lsls	r3, r3, #1
     60a:	0b12      	lsrs	r2, r2, #12
     60c:	404a      	eors	r2, r1
     60e:	400a      	ands	r2, r1
     610:	4313      	orrs	r3, r2
     612:	4a06      	ldr	r2, [pc, #24]	; (62c <button_read+0x34>)
     614:	7013      	strb	r3, [r2, #0]
     616:	4806      	ldr	r0, [pc, #24]	; (630 <button_read+0x38>)
     618:	7802      	ldrb	r2, [r0, #0]
     61a:	001c      	movs	r4, r3
     61c:	4394      	bics	r4, r2
     61e:	7003      	strb	r3, [r0, #0]
     620:	2001      	movs	r0, #1
     622:	4221      	tst	r1, r4
     624:	d101      	bne.n	62a <button_read+0x32>
     626:	0862      	lsrs	r2, r4, #1
     628:	0050      	lsls	r0, r2, #1
     62a:	bd10      	pop	{r4, pc}
     62c:	2000009f 	.word	0x2000009f
     630:	200000a0 	.word	0x200000a0

00000634 <delay_init>:
 *
 * This must be called during start up to initialize the delay routine with
 * the current used main clock. It must run any time the main CPU clock is changed.
 */
void delay_init(void)
{
     634:	b570      	push	{r4, r5, r6, lr}
	cycles_per_ms = system_gclk_gen_get_hz(0);
     636:	2000      	movs	r0, #0
     638:	4b08      	ldr	r3, [pc, #32]	; (65c <delay_init+0x28>)
     63a:	4798      	blx	r3
     63c:	0005      	movs	r5, r0
	cycles_per_ms /= 1000;
     63e:	4c08      	ldr	r4, [pc, #32]	; (660 <delay_init+0x2c>)
     640:	21fa      	movs	r1, #250	; 0xfa
     642:	0089      	lsls	r1, r1, #2
     644:	47a0      	blx	r4
     646:	4b07      	ldr	r3, [pc, #28]	; (664 <delay_init+0x30>)
     648:	6018      	str	r0, [r3, #0]
	cycles_per_us = cycles_per_ms / 1000;
     64a:	4907      	ldr	r1, [pc, #28]	; (668 <delay_init+0x34>)
     64c:	0028      	movs	r0, r5
     64e:	47a0      	blx	r4
     650:	4b06      	ldr	r3, [pc, #24]	; (66c <delay_init+0x38>)
     652:	6018      	str	r0, [r3, #0]

	SysTick->CTRL = SysTick_CTRL_CLKSOURCE_Msk | SysTick_CTRL_ENABLE_Msk;
     654:	2205      	movs	r2, #5
     656:	4b06      	ldr	r3, [pc, #24]	; (670 <delay_init+0x3c>)
     658:	601a      	str	r2, [r3, #0]
}
     65a:	bd70      	pop	{r4, r5, r6, pc}
     65c:	000028dd 	.word	0x000028dd
     660:	000035c5 	.word	0x000035c5
     664:	2000000c 	.word	0x2000000c
     668:	000f4240 	.word	0x000f4240
     66c:	20000010 	.word	0x20000010
     670:	e000e010 	.word	0xe000e010

00000674 <_adc_interrupt_handler>:
     674:	b570      	push	{r4, r5, r6, lr}
     676:	0080      	lsls	r0, r0, #2
     678:	4b2e      	ldr	r3, [pc, #184]	; (734 <_adc_interrupt_handler+0xc0>)
     67a:	58c4      	ldr	r4, [r0, r3]
     67c:	6823      	ldr	r3, [r4, #0]
     67e:	799a      	ldrb	r2, [r3, #6]
     680:	795d      	ldrb	r5, [r3, #5]
     682:	4015      	ands	r5, r2
     684:	07ea      	lsls	r2, r5, #31
     686:	d52a      	bpl.n	6de <_adc_interrupt_handler+0x6a>
     688:	2201      	movs	r2, #1
     68a:	719a      	strb	r2, [r3, #6]
     68c:	6962      	ldr	r2, [r4, #20]
     68e:	1c93      	adds	r3, r2, #2
     690:	6163      	str	r3, [r4, #20]
     692:	6823      	ldr	r3, [r4, #0]
     694:	8c9b      	ldrh	r3, [r3, #36]	; 0x24
     696:	b29b      	uxth	r3, r3
     698:	8013      	strh	r3, [r2, #0]
     69a:	8b23      	ldrh	r3, [r4, #24]
     69c:	3b01      	subs	r3, #1
     69e:	b29b      	uxth	r3, r3
     6a0:	8323      	strh	r3, [r4, #24]
     6a2:	2b00      	cmp	r3, #0
     6a4:	d015      	beq.n	6d2 <_adc_interrupt_handler+0x5e>
     6a6:	7f63      	ldrb	r3, [r4, #29]
     6a8:	2b00      	cmp	r3, #0
     6aa:	d018      	beq.n	6de <_adc_interrupt_handler+0x6a>
     6ac:	6822      	ldr	r2, [r4, #0]
     6ae:	79d3      	ldrb	r3, [r2, #7]
     6b0:	b25b      	sxtb	r3, r3
     6b2:	2b00      	cmp	r3, #0
     6b4:	db13      	blt.n	6de <_adc_interrupt_handler+0x6a>
     6b6:	8c13      	ldrh	r3, [r2, #32]
     6b8:	b29b      	uxth	r3, r3
     6ba:	2b00      	cmp	r3, #0
     6bc:	d1fb      	bne.n	6b6 <_adc_interrupt_handler+0x42>
     6be:	7e13      	ldrb	r3, [r2, #24]
     6c0:	2102      	movs	r1, #2
     6c2:	430b      	orrs	r3, r1
     6c4:	7613      	strb	r3, [r2, #24]
     6c6:	6822      	ldr	r2, [r4, #0]
     6c8:	8c13      	ldrh	r3, [r2, #32]
     6ca:	b29b      	uxth	r3, r3
     6cc:	2b00      	cmp	r3, #0
     6ce:	d1fb      	bne.n	6c8 <_adc_interrupt_handler+0x54>
     6d0:	e005      	b.n	6de <_adc_interrupt_handler+0x6a>
     6d2:	2301      	movs	r3, #1
     6d4:	6822      	ldr	r2, [r4, #0]
     6d6:	7113      	strb	r3, [r2, #4]
     6d8:	7f23      	ldrb	r3, [r4, #28]
     6da:	2b05      	cmp	r3, #5
     6dc:	d016      	beq.n	70c <_adc_interrupt_handler+0x98>
     6de:	076b      	lsls	r3, r5, #29
     6e0:	d508      	bpl.n	6f4 <_adc_interrupt_handler+0x80>
     6e2:	2304      	movs	r3, #4
     6e4:	6822      	ldr	r2, [r4, #0]
     6e6:	7193      	strb	r3, [r2, #6]
     6e8:	7ee3      	ldrb	r3, [r4, #27]
     6ea:	079b      	lsls	r3, r3, #30
     6ec:	d502      	bpl.n	6f4 <_adc_interrupt_handler+0x80>
     6ee:	7ea3      	ldrb	r3, [r4, #26]
     6f0:	079b      	lsls	r3, r3, #30
     6f2:	d417      	bmi.n	724 <_adc_interrupt_handler+0xb0>
     6f4:	07ab      	lsls	r3, r5, #30
     6f6:	d508      	bpl.n	70a <_adc_interrupt_handler+0x96>
     6f8:	2302      	movs	r3, #2
     6fa:	6822      	ldr	r2, [r4, #0]
     6fc:	7193      	strb	r3, [r2, #6]
     6fe:	7ee3      	ldrb	r3, [r4, #27]
     700:	075b      	lsls	r3, r3, #29
     702:	d502      	bpl.n	70a <_adc_interrupt_handler+0x96>
     704:	7ea3      	ldrb	r3, [r4, #26]
     706:	075b      	lsls	r3, r3, #29
     708:	d410      	bmi.n	72c <_adc_interrupt_handler+0xb8>
     70a:	bd70      	pop	{r4, r5, r6, pc}
     70c:	2300      	movs	r3, #0
     70e:	7723      	strb	r3, [r4, #28]
     710:	7ee3      	ldrb	r3, [r4, #27]
     712:	07db      	lsls	r3, r3, #31
     714:	d5e3      	bpl.n	6de <_adc_interrupt_handler+0x6a>
     716:	7ea3      	ldrb	r3, [r4, #26]
     718:	07db      	lsls	r3, r3, #31
     71a:	d5e0      	bpl.n	6de <_adc_interrupt_handler+0x6a>
     71c:	0020      	movs	r0, r4
     71e:	68a3      	ldr	r3, [r4, #8]
     720:	4798      	blx	r3
     722:	e7dc      	b.n	6de <_adc_interrupt_handler+0x6a>
     724:	0020      	movs	r0, r4
     726:	68e3      	ldr	r3, [r4, #12]
     728:	4798      	blx	r3
     72a:	e7e3      	b.n	6f4 <_adc_interrupt_handler+0x80>
     72c:	6923      	ldr	r3, [r4, #16]
     72e:	0020      	movs	r0, r4
     730:	4798      	blx	r3
     732:	e7ea      	b.n	70a <_adc_interrupt_handler+0x96>
     734:	20001430 	.word	0x20001430

00000738 <ADC0_Handler>:
     738:	b510      	push	{r4, lr}
     73a:	2000      	movs	r0, #0
     73c:	4b01      	ldr	r3, [pc, #4]	; (744 <ADC0_Handler+0xc>)
     73e:	4798      	blx	r3
     740:	bd10      	pop	{r4, pc}
     742:	46c0      	nop			; (mov r8, r8)
     744:	00000675 	.word	0x00000675

00000748 <ADC1_Handler>:
     748:	b510      	push	{r4, lr}
     74a:	2001      	movs	r0, #1
     74c:	4b01      	ldr	r3, [pc, #4]	; (754 <ADC1_Handler+0xc>)
     74e:	4798      	blx	r3
     750:	bd10      	pop	{r4, pc}
     752:	46c0      	nop			; (mov r8, r8)
     754:	00000675 	.word	0x00000675

00000758 <EIC_Handler>:
	return _current_channel;
}

/** Handler for the EXTINT hardware module interrupt. */
void EIC_Handler(void)
{
     758:	b570      	push	{r4, r5, r6, lr}
	/* Find any triggered channels, run associated callback handlers */
	for (_current_channel = 0; _current_channel < EIC_NUMBER_OF_INTERRUPTS ; _current_channel++) {
     75a:	2200      	movs	r2, #0
     75c:	4b10      	ldr	r3, [pc, #64]	; (7a0 <EIC_Handler+0x48>)
     75e:	701a      	strb	r2, [r3, #0]
     760:	2300      	movs	r3, #0

	if (eic_index < EIC_INST_NUM) {
		/* Array of available EICs */
		Eic *const eics[EIC_INST_NUM] = EIC_INSTS;

		return eics[eic_index];
     762:	4910      	ldr	r1, [pc, #64]	; (7a4 <EIC_Handler+0x4c>)
 */
static inline bool extint_chan_is_detected(
		const uint8_t channel)
{
	Eic *const eic_module = _extint_get_eic_from_channel(channel);
	uint32_t eic_mask   = (1UL << (channel % 32));
     764:	251f      	movs	r5, #31
		if (extint_chan_is_detected(_current_channel)) {
			/* Clear flag */
			extint_chan_clear_detected(_current_channel);
			/* Find any associated callback entries in the callback table */
			if (_extint_dev.callbacks[_current_channel] != NULL) {
     766:	4e10      	ldr	r6, [pc, #64]	; (7a8 <EIC_Handler+0x50>)
	for (_current_channel = 0; _current_channel < EIC_NUMBER_OF_INTERRUPTS ; _current_channel++) {
     768:	4c0d      	ldr	r4, [pc, #52]	; (7a0 <EIC_Handler+0x48>)
     76a:	e00a      	b.n	782 <EIC_Handler+0x2a>
		return eics[eic_index];
     76c:	490d      	ldr	r1, [pc, #52]	; (7a4 <EIC_Handler+0x4c>)
     76e:	e008      	b.n	782 <EIC_Handler+0x2a>
     770:	7823      	ldrb	r3, [r4, #0]
     772:	3301      	adds	r3, #1
     774:	b2db      	uxtb	r3, r3
     776:	7023      	strb	r3, [r4, #0]
     778:	2b0f      	cmp	r3, #15
     77a:	d810      	bhi.n	79e <EIC_Handler+0x46>
		return NULL;
     77c:	2100      	movs	r1, #0
	if (eic_index < EIC_INST_NUM) {
     77e:	2b1f      	cmp	r3, #31
     780:	d9f4      	bls.n	76c <EIC_Handler+0x14>
	uint32_t eic_mask   = (1UL << (channel % 32));
     782:	0028      	movs	r0, r5
     784:	4018      	ands	r0, r3
     786:	2201      	movs	r2, #1
     788:	4082      	lsls	r2, r0

	return (eic_module->INTFLAG.reg & eic_mask);
     78a:	6948      	ldr	r0, [r1, #20]
		if (extint_chan_is_detected(_current_channel)) {
     78c:	4210      	tst	r0, r2
     78e:	d0ef      	beq.n	770 <EIC_Handler+0x18>
		const uint8_t channel)
{
	Eic *const eic_module = _extint_get_eic_from_channel(channel);
	uint32_t eic_mask   = (1UL << (channel % 32));

	eic_module->INTFLAG.reg = eic_mask;
     790:	614a      	str	r2, [r1, #20]
			if (_extint_dev.callbacks[_current_channel] != NULL) {
     792:	009b      	lsls	r3, r3, #2
     794:	599b      	ldr	r3, [r3, r6]
     796:	2b00      	cmp	r3, #0
     798:	d0ea      	beq.n	770 <EIC_Handler+0x18>
				/* Run the registered callback */
				_extint_dev.callbacks[_current_channel]();
     79a:	4798      	blx	r3
     79c:	e7e8      	b.n	770 <EIC_Handler+0x18>
			}
		}
	}
}
     79e:	bd70      	pop	{r4, r5, r6, pc}
     7a0:	20001438 	.word	0x20001438
     7a4:	40002800 	.word	0x40002800
     7a8:	2000143c 	.word	0x2000143c

000007ac <_extint_enable>:
{
    Eic *const eics[EIC_INST_NUM] = EIC_INSTS;

    /* Enable all EIC hardware modules. */
    for (uint32_t i = 0; i < EIC_INST_NUM; i++) {
        eics[i]->CTRLA.reg |= EIC_CTRLA_ENABLE;
     7ac:	4a06      	ldr	r2, [pc, #24]	; (7c8 <_extint_enable+0x1c>)
     7ae:	7813      	ldrb	r3, [r2, #0]
     7b0:	2102      	movs	r1, #2
     7b2:	430b      	orrs	r3, r1
     7b4:	7013      	strb	r3, [r2, #0]
                || (eics[i]->SYNCBUSY.reg & EIC_SYNCBUSY_SWRST)) {
     7b6:	2001      	movs	r0, #1
        if((eics[i]->SYNCBUSY.reg & EIC_SYNCBUSY_ENABLE)
     7b8:	6853      	ldr	r3, [r2, #4]
     7ba:	4219      	tst	r1, r3
     7bc:	d1fc      	bne.n	7b8 <_extint_enable+0xc>
                || (eics[i]->SYNCBUSY.reg & EIC_SYNCBUSY_SWRST)) {
     7be:	6853      	ldr	r3, [r2, #4]
     7c0:	4218      	tst	r0, r3
     7c2:	d1f9      	bne.n	7b8 <_extint_enable+0xc>
    }

    while (extint_is_syncing()) {
        /* Wait for all hardware modules to complete synchronization */
    }
}
     7c4:	4770      	bx	lr
     7c6:	46c0      	nop			; (mov r8, r8)
     7c8:	40002800 	.word	0x40002800

000007cc <_system_extint_init>:
{
     7cc:	b500      	push	{lr}
     7ce:	b083      	sub	sp, #12
		const enum system_clock_apb_bus bus,
		const uint32_t mask)
{
	switch (bus) {
		case SYSTEM_CLOCK_APB_APBA:
			MCLK->APBAMASK.reg |= mask;
     7d0:	4a17      	ldr	r2, [pc, #92]	; (830 <_system_extint_init+0x64>)
     7d2:	6951      	ldr	r1, [r2, #20]
     7d4:	2380      	movs	r3, #128	; 0x80
     7d6:	00db      	lsls	r3, r3, #3
     7d8:	430b      	orrs	r3, r1
     7da:	6153      	str	r3, [r2, #20]
{
	/* Sanity check arguments */
	Assert(config);

	/* Default configuration values */
	config->source_generator = GCLK_GENERATOR_0;
     7dc:	a901      	add	r1, sp, #4
     7de:	2300      	movs	r3, #0
     7e0:	700b      	strb	r3, [r1, #0]
    system_gclk_chan_set_config(EIC_GCLK_ID, &gclk_chan_conf);
     7e2:	2002      	movs	r0, #2
     7e4:	4b13      	ldr	r3, [pc, #76]	; (834 <_system_extint_init+0x68>)
     7e6:	4798      	blx	r3
    system_gclk_chan_enable(EIC_GCLK_ID);
     7e8:	2002      	movs	r0, #2
     7ea:	4b13      	ldr	r3, [pc, #76]	; (838 <_system_extint_init+0x6c>)
     7ec:	4798      	blx	r3
        eics[i]->CTRLA.reg |= EIC_CTRLA_SWRST;
     7ee:	4a13      	ldr	r2, [pc, #76]	; (83c <_system_extint_init+0x70>)
     7f0:	7813      	ldrb	r3, [r2, #0]
     7f2:	2101      	movs	r1, #1
     7f4:	430b      	orrs	r3, r1
     7f6:	7013      	strb	r3, [r2, #0]
        if((eics[i]->SYNCBUSY.reg & EIC_SYNCBUSY_ENABLE)
     7f8:	3101      	adds	r1, #1
                || (eics[i]->SYNCBUSY.reg & EIC_SYNCBUSY_SWRST)) {
     7fa:	2001      	movs	r0, #1
        if((eics[i]->SYNCBUSY.reg & EIC_SYNCBUSY_ENABLE)
     7fc:	6853      	ldr	r3, [r2, #4]
     7fe:	4219      	tst	r1, r3
     800:	d1fc      	bne.n	7fc <_system_extint_init+0x30>
                || (eics[i]->SYNCBUSY.reg & EIC_SYNCBUSY_SWRST)) {
     802:	6853      	ldr	r3, [r2, #4]
     804:	4218      	tst	r0, r3
     806:	d1f9      	bne.n	7fc <_system_extint_init+0x30>
        eics[i]->CTRLA.bit.CKSEL = EXTINT_CLK_GCLK;
     808:	4a0c      	ldr	r2, [pc, #48]	; (83c <_system_extint_init+0x70>)
     80a:	7813      	ldrb	r3, [r2, #0]
     80c:	2110      	movs	r1, #16
     80e:	438b      	bics	r3, r1
     810:	7013      	strb	r3, [r2, #0]
     812:	4b0b      	ldr	r3, [pc, #44]	; (840 <_system_extint_init+0x74>)
     814:	0019      	movs	r1, r3
     816:	3140      	adds	r1, #64	; 0x40
        _extint_dev.callbacks[j] = NULL;
     818:	2200      	movs	r2, #0
     81a:	c304      	stmia	r3!, {r2}
    for (uint8_t j = 0; j < EIC_NUMBER_OF_INTERRUPTS; j++) {
     81c:	428b      	cmp	r3, r1
     81e:	d1fc      	bne.n	81a <_system_extint_init+0x4e>
 * \param[in] vector Interrupt vector to enable
 */
static inline void system_interrupt_enable(
		const enum system_interrupt_vector vector)
{
	NVIC->ISER[0] = (uint32_t)(1 << ((uint32_t)vector & 0x0000001f));
     820:	2208      	movs	r2, #8
     822:	4b08      	ldr	r3, [pc, #32]	; (844 <_system_extint_init+0x78>)
     824:	601a      	str	r2, [r3, #0]
    _extint_enable();
     826:	4b08      	ldr	r3, [pc, #32]	; (848 <_system_extint_init+0x7c>)
     828:	4798      	blx	r3
}
     82a:	b003      	add	sp, #12
     82c:	bd00      	pop	{pc}
     82e:	46c0      	nop			; (mov r8, r8)
     830:	40000800 	.word	0x40000800
     834:	000029b9 	.word	0x000029b9
     838:	00002949 	.word	0x00002949
     83c:	40002800 	.word	0x40002800
     840:	2000143c 	.word	0x2000143c
     844:	e000e100 	.word	0xe000e100
     848:	000007ad 	.word	0x000007ad

0000084c <dac_is_syncing>:
     84c:	6803      	ldr	r3, [r0, #0]
     84e:	6918      	ldr	r0, [r3, #16]
     850:	1e43      	subs	r3, r0, #1
     852:	4198      	sbcs	r0, r3
     854:	b2c0      	uxtb	r0, r0
     856:	4770      	bx	lr

00000858 <dac_get_config_defaults>:
     858:	2300      	movs	r3, #0
     85a:	7003      	strb	r3, [r0, #0]
     85c:	2201      	movs	r2, #1
     85e:	7042      	strb	r2, [r0, #1]
     860:	7083      	strb	r3, [r0, #2]
     862:	7103      	strb	r3, [r0, #4]
     864:	70c3      	strb	r3, [r0, #3]
     866:	7143      	strb	r3, [r0, #5]
     868:	7183      	strb	r3, [r0, #6]
     86a:	4770      	bx	lr

0000086c <dac_init>:
     86c:	b5f0      	push	{r4, r5, r6, r7, lr}
     86e:	46c6      	mov	lr, r8
     870:	b500      	push	{lr}
     872:	b082      	sub	sp, #8
     874:	0005      	movs	r5, r0
     876:	0014      	movs	r4, r2
     878:	6001      	str	r1, [r0, #0]
     87a:	4a28      	ldr	r2, [pc, #160]	; (91c <dac_init+0xb0>)
     87c:	69d0      	ldr	r0, [r2, #28]
     87e:	2380      	movs	r3, #128	; 0x80
     880:	039b      	lsls	r3, r3, #14
     882:	4303      	orrs	r3, r0
     884:	61d3      	str	r3, [r2, #28]
     886:	780b      	ldrb	r3, [r1, #0]
     888:	201c      	movs	r0, #28
     88a:	079b      	lsls	r3, r3, #30
     88c:	d503      	bpl.n	896 <dac_init+0x2a>
     88e:	b002      	add	sp, #8
     890:	bc04      	pop	{r2}
     892:	4690      	mov	r8, r2
     894:	bdf0      	pop	{r4, r5, r6, r7, pc}
     896:	780b      	ldrb	r3, [r1, #0]
     898:	3817      	subs	r0, #23
     89a:	07db      	lsls	r3, r3, #31
     89c:	d4f7      	bmi.n	88e <dac_init+0x22>
     89e:	a901      	add	r1, sp, #4
     8a0:	78e3      	ldrb	r3, [r4, #3]
     8a2:	700b      	strb	r3, [r1, #0]
     8a4:	301f      	adds	r0, #31
     8a6:	4b1e      	ldr	r3, [pc, #120]	; (920 <dac_init+0xb4>)
     8a8:	4798      	blx	r3
     8aa:	2024      	movs	r0, #36	; 0x24
     8ac:	4b1d      	ldr	r3, [pc, #116]	; (924 <dac_init+0xb8>)
     8ae:	4798      	blx	r3
     8b0:	2600      	movs	r6, #0
     8b2:	466b      	mov	r3, sp
     8b4:	705e      	strb	r6, [r3, #1]
     8b6:	70de      	strb	r6, [r3, #3]
     8b8:	2301      	movs	r3, #1
     8ba:	466a      	mov	r2, sp
     8bc:	7013      	strb	r3, [r2, #0]
     8be:	7096      	strb	r6, [r2, #2]
     8c0:	4669      	mov	r1, sp
     8c2:	2002      	movs	r0, #2
     8c4:	4b18      	ldr	r3, [pc, #96]	; (928 <dac_init+0xbc>)
     8c6:	4798      	blx	r3
     8c8:	682f      	ldr	r7, [r5, #0]
     8ca:	7863      	ldrb	r3, [r4, #1]
     8cc:	712b      	strb	r3, [r5, #4]
     8ce:	71ae      	strb	r6, [r5, #6]
     8d0:	7963      	ldrb	r3, [r4, #5]
     8d2:	1e5a      	subs	r2, r3, #1
     8d4:	4193      	sbcs	r3, r2
     8d6:	019b      	lsls	r3, r3, #6
     8d8:	7822      	ldrb	r2, [r4, #0]
     8da:	4690      	mov	r8, r2
     8dc:	78a2      	ldrb	r2, [r4, #2]
     8de:	2a00      	cmp	r2, #0
     8e0:	d003      	beq.n	8ea <dac_init+0x7e>
     8e2:	2204      	movs	r2, #4
     8e4:	4641      	mov	r1, r8
     8e6:	4311      	orrs	r1, r2
     8e8:	4688      	mov	r8, r1
     8ea:	7922      	ldrb	r2, [r4, #4]
     8ec:	2a00      	cmp	r2, #0
     8ee:	d003      	beq.n	8f8 <dac_init+0x8c>
     8f0:	2208      	movs	r2, #8
     8f2:	4641      	mov	r1, r8
     8f4:	4311      	orrs	r1, r2
     8f6:	4688      	mov	r8, r1
     8f8:	b2db      	uxtb	r3, r3
     8fa:	703b      	strb	r3, [r7, #0]
     8fc:	4e0b      	ldr	r6, [pc, #44]	; (92c <dac_init+0xc0>)
     8fe:	0028      	movs	r0, r5
     900:	47b0      	blx	r6
     902:	2800      	cmp	r0, #0
     904:	d1fb      	bne.n	8fe <dac_init+0x92>
     906:	4643      	mov	r3, r8
     908:	707b      	strb	r3, [r7, #1]
     90a:	7823      	ldrb	r3, [r4, #0]
     90c:	716b      	strb	r3, [r5, #5]
     90e:	2300      	movs	r3, #0
     910:	616b      	str	r3, [r5, #20]
     912:	61ab      	str	r3, [r5, #24]
     914:	61eb      	str	r3, [r5, #28]
     916:	4b06      	ldr	r3, [pc, #24]	; (930 <dac_init+0xc4>)
     918:	601d      	str	r5, [r3, #0]
     91a:	e7b8      	b.n	88e <dac_init+0x22>
     91c:	40000800 	.word	0x40000800
     920:	000029b9 	.word	0x000029b9
     924:	00002949 	.word	0x00002949
     928:	00002ab5 	.word	0x00002ab5
     92c:	0000084d 	.word	0x0000084d
     930:	200018c4 	.word	0x200018c4

00000934 <dac_enable>:
     934:	b570      	push	{r4, r5, r6, lr}
     936:	0004      	movs	r4, r0
     938:	6805      	ldr	r5, [r0, #0]
     93a:	786b      	ldrb	r3, [r5, #1]
     93c:	7902      	ldrb	r2, [r0, #4]
     93e:	4313      	orrs	r3, r2
     940:	706b      	strb	r3, [r5, #1]
     942:	4e0c      	ldr	r6, [pc, #48]	; (974 <dac_enable+0x40>)
     944:	0020      	movs	r0, r4
     946:	47b0      	blx	r6
     948:	2800      	cmp	r0, #0
     94a:	d1fb      	bne.n	944 <dac_enable+0x10>
     94c:	782b      	ldrb	r3, [r5, #0]
     94e:	2202      	movs	r2, #2
     950:	4313      	orrs	r3, r2
     952:	702b      	strb	r3, [r5, #0]
     954:	7963      	ldrb	r3, [r4, #5]
     956:	2b00      	cmp	r3, #0
     958:	d104      	bne.n	964 <dac_enable+0x30>
     95a:	4a07      	ldr	r2, [pc, #28]	; (978 <dac_enable+0x44>)
     95c:	69d3      	ldr	r3, [r2, #28]
     95e:	2104      	movs	r1, #4
     960:	430b      	orrs	r3, r1
     962:	61d3      	str	r3, [r2, #28]
     964:	782b      	ldrb	r3, [r5, #0]
     966:	079b      	lsls	r3, r3, #30
     968:	d503      	bpl.n	972 <dac_enable+0x3e>
     96a:	2201      	movs	r2, #1
     96c:	79eb      	ldrb	r3, [r5, #7]
     96e:	4213      	tst	r3, r2
     970:	d0fc      	beq.n	96c <dac_enable+0x38>
     972:	bd70      	pop	{r4, r5, r6, pc}
     974:	0000084d 	.word	0x0000084d
     978:	40001800 	.word	0x40001800

0000097c <dac_chan_get_config_defaults>:
     97c:	4770      	bx	lr

0000097e <dac_chan_set_config>:
     97e:	4770      	bx	lr

00000980 <dac_chan_enable>:
     980:	4770      	bx	lr
	...

00000984 <dac_chan_write>:
     984:	b5f8      	push	{r3, r4, r5, r6, r7, lr}
     986:	0004      	movs	r4, r0
     988:	0017      	movs	r7, r2
     98a:	6806      	ldr	r6, [r0, #0]
     98c:	4d06      	ldr	r5, [pc, #24]	; (9a8 <dac_chan_write+0x24>)
     98e:	0020      	movs	r0, r4
     990:	47a8      	blx	r5
     992:	2800      	cmp	r0, #0
     994:	d1fb      	bne.n	98e <dac_chan_write+0xa>
     996:	79a3      	ldrb	r3, [r4, #6]
     998:	2b00      	cmp	r3, #0
     99a:	d102      	bne.n	9a2 <dac_chan_write+0x1e>
     99c:	8137      	strh	r7, [r6, #8]
     99e:	2000      	movs	r0, #0
     9a0:	bdf8      	pop	{r3, r4, r5, r6, r7, pc}
     9a2:	81b7      	strh	r7, [r6, #12]
     9a4:	e7fb      	b.n	99e <dac_chan_write+0x1a>
     9a6:	46c0      	nop			; (mov r8, r8)
     9a8:	0000084d 	.word	0x0000084d

000009ac <DAC_Handler>:
     9ac:	b570      	push	{r4, r5, r6, lr}
     9ae:	4b27      	ldr	r3, [pc, #156]	; (a4c <DAC_Handler+0xa0>)
     9b0:	681c      	ldr	r4, [r3, #0]
     9b2:	6825      	ldr	r5, [r4, #0]
     9b4:	79ab      	ldrb	r3, [r5, #6]
     9b6:	07db      	lsls	r3, r3, #31
     9b8:	d507      	bpl.n	9ca <DAC_Handler+0x1e>
     9ba:	2301      	movs	r3, #1
     9bc:	71ab      	strb	r3, [r5, #6]
     9be:	0023      	movs	r3, r4
     9c0:	3314      	adds	r3, #20
     9c2:	d002      	beq.n	9ca <DAC_Handler+0x1e>
     9c4:	7c63      	ldrb	r3, [r4, #17]
     9c6:	2b00      	cmp	r3, #0
     9c8:	d131      	bne.n	a2e <DAC_Handler+0x82>
     9ca:	79ab      	ldrb	r3, [r5, #6]
     9cc:	079b      	lsls	r3, r3, #30
     9ce:	d538      	bpl.n	a42 <DAC_Handler+0x96>
     9d0:	2302      	movs	r3, #2
     9d2:	71ab      	strb	r3, [r5, #6]
     9d4:	89a3      	ldrh	r3, [r4, #12]
     9d6:	b29b      	uxth	r3, r3
     9d8:	2b00      	cmp	r3, #0
     9da:	d02c      	beq.n	a36 <DAC_Handler+0x8a>
     9dc:	89e3      	ldrh	r3, [r4, #14]
     9de:	b29b      	uxth	r3, r3
     9e0:	1c5a      	adds	r2, r3, #1
     9e2:	b292      	uxth	r2, r2
     9e4:	81e2      	strh	r2, [r4, #14]
     9e6:	005b      	lsls	r3, r3, #1
     9e8:	68a2      	ldr	r2, [r4, #8]
     9ea:	4694      	mov	ip, r2
     9ec:	4463      	add	r3, ip
     9ee:	881b      	ldrh	r3, [r3, #0]
     9f0:	b29b      	uxth	r3, r3
     9f2:	81ab      	strh	r3, [r5, #12]
     9f4:	89a3      	ldrh	r3, [r4, #12]
     9f6:	3b01      	subs	r3, #1
     9f8:	b29b      	uxth	r3, r3
     9fa:	81a3      	strh	r3, [r4, #12]
     9fc:	89a3      	ldrh	r3, [r4, #12]
     9fe:	b29b      	uxth	r3, r3
     a00:	2b00      	cmp	r3, #0
     a02:	d118      	bne.n	a36 <DAC_Handler+0x8a>
     a04:	2200      	movs	r2, #0
     a06:	3320      	adds	r3, #32
     a08:	54e2      	strb	r2, [r4, r3]
     a0a:	3b1e      	subs	r3, #30
     a0c:	712b      	strb	r3, [r5, #4]
     a0e:	71ab      	strb	r3, [r5, #6]
     a10:	2180      	movs	r1, #128	; 0x80
     a12:	0549      	lsls	r1, r1, #21
     a14:	337e      	adds	r3, #126	; 0x7e
     a16:	4a0e      	ldr	r2, [pc, #56]	; (a50 <DAC_Handler+0xa4>)
     a18:	50d1      	str	r1, [r2, r3]
     a1a:	0023      	movs	r3, r4
     a1c:	3314      	adds	r3, #20
     a1e:	d010      	beq.n	a42 <DAC_Handler+0x96>
     a20:	7ca3      	ldrb	r3, [r4, #18]
     a22:	2b00      	cmp	r3, #0
     a24:	d00a      	beq.n	a3c <DAC_Handler+0x90>
     a26:	2000      	movs	r0, #0
     a28:	69e3      	ldr	r3, [r4, #28]
     a2a:	4798      	blx	r3
     a2c:	e006      	b.n	a3c <DAC_Handler+0x90>
     a2e:	2000      	movs	r0, #0
     a30:	69a3      	ldr	r3, [r4, #24]
     a32:	4798      	blx	r3
     a34:	e7c9      	b.n	9ca <DAC_Handler+0x1e>
     a36:	0023      	movs	r3, r4
     a38:	3314      	adds	r3, #20
     a3a:	d002      	beq.n	a42 <DAC_Handler+0x96>
     a3c:	7c23      	ldrb	r3, [r4, #16]
     a3e:	2b00      	cmp	r3, #0
     a40:	d100      	bne.n	a44 <DAC_Handler+0x98>
     a42:	bd70      	pop	{r4, r5, r6, pc}
     a44:	6963      	ldr	r3, [r4, #20]
     a46:	2000      	movs	r0, #0
     a48:	4798      	blx	r3
     a4a:	e7fa      	b.n	a42 <DAC_Handler+0x96>
     a4c:	200018c4 	.word	0x200018c4
     a50:	e000e100 	.word	0xe000e100

00000a54 <long_division>:
     a54:	b5f0      	push	{r4, r5, r6, r7, lr}
     a56:	46de      	mov	lr, fp
     a58:	4657      	mov	r7, sl
     a5a:	464e      	mov	r6, r9
     a5c:	4645      	mov	r5, r8
     a5e:	b5e0      	push	{r5, r6, r7, lr}
     a60:	b087      	sub	sp, #28
     a62:	4680      	mov	r8, r0
     a64:	9104      	str	r1, [sp, #16]
     a66:	0016      	movs	r6, r2
     a68:	001f      	movs	r7, r3
     a6a:	2200      	movs	r2, #0
     a6c:	2300      	movs	r3, #0
     a6e:	2100      	movs	r1, #0
     a70:	468b      	mov	fp, r1
     a72:	243f      	movs	r4, #63	; 0x3f
     a74:	2001      	movs	r0, #1
     a76:	0021      	movs	r1, r4
     a78:	9600      	str	r6, [sp, #0]
     a7a:	9701      	str	r7, [sp, #4]
     a7c:	465c      	mov	r4, fp
     a7e:	9403      	str	r4, [sp, #12]
     a80:	4644      	mov	r4, r8
     a82:	9405      	str	r4, [sp, #20]
     a84:	e013      	b.n	aae <long_division+0x5a>
     a86:	2420      	movs	r4, #32
     a88:	1a64      	subs	r4, r4, r1
     a8a:	0005      	movs	r5, r0
     a8c:	40e5      	lsrs	r5, r4
     a8e:	46a8      	mov	r8, r5
     a90:	e014      	b.n	abc <long_division+0x68>
     a92:	9c00      	ldr	r4, [sp, #0]
     a94:	9d01      	ldr	r5, [sp, #4]
     a96:	1b12      	subs	r2, r2, r4
     a98:	41ab      	sbcs	r3, r5
     a9a:	465c      	mov	r4, fp
     a9c:	464d      	mov	r5, r9
     a9e:	432c      	orrs	r4, r5
     aa0:	46a3      	mov	fp, r4
     aa2:	9c03      	ldr	r4, [sp, #12]
     aa4:	4645      	mov	r5, r8
     aa6:	432c      	orrs	r4, r5
     aa8:	9403      	str	r4, [sp, #12]
     aaa:	3901      	subs	r1, #1
     aac:	d325      	bcc.n	afa <long_division+0xa6>
     aae:	2420      	movs	r4, #32
     ab0:	4264      	negs	r4, r4
     ab2:	190c      	adds	r4, r1, r4
     ab4:	d4e7      	bmi.n	a86 <long_division+0x32>
     ab6:	0005      	movs	r5, r0
     ab8:	40a5      	lsls	r5, r4
     aba:	46a8      	mov	r8, r5
     abc:	0004      	movs	r4, r0
     abe:	408c      	lsls	r4, r1
     ac0:	46a1      	mov	r9, r4
     ac2:	1892      	adds	r2, r2, r2
     ac4:	415b      	adcs	r3, r3
     ac6:	0014      	movs	r4, r2
     ac8:	001d      	movs	r5, r3
     aca:	9e05      	ldr	r6, [sp, #20]
     acc:	464f      	mov	r7, r9
     ace:	403e      	ands	r6, r7
     ad0:	46b4      	mov	ip, r6
     ad2:	9e04      	ldr	r6, [sp, #16]
     ad4:	4647      	mov	r7, r8
     ad6:	403e      	ands	r6, r7
     ad8:	46b2      	mov	sl, r6
     ada:	4666      	mov	r6, ip
     adc:	4657      	mov	r7, sl
     ade:	433e      	orrs	r6, r7
     ae0:	d003      	beq.n	aea <long_division+0x96>
     ae2:	0006      	movs	r6, r0
     ae4:	4326      	orrs	r6, r4
     ae6:	0032      	movs	r2, r6
     ae8:	002b      	movs	r3, r5
     aea:	9c00      	ldr	r4, [sp, #0]
     aec:	9d01      	ldr	r5, [sp, #4]
     aee:	429d      	cmp	r5, r3
     af0:	d8db      	bhi.n	aaa <long_division+0x56>
     af2:	d1ce      	bne.n	a92 <long_division+0x3e>
     af4:	4294      	cmp	r4, r2
     af6:	d8d8      	bhi.n	aaa <long_division+0x56>
     af8:	e7cb      	b.n	a92 <long_division+0x3e>
     afa:	9b03      	ldr	r3, [sp, #12]
     afc:	4658      	mov	r0, fp
     afe:	0019      	movs	r1, r3
     b00:	b007      	add	sp, #28
     b02:	bc3c      	pop	{r2, r3, r4, r5}
     b04:	4690      	mov	r8, r2
     b06:	4699      	mov	r9, r3
     b08:	46a2      	mov	sl, r4
     b0a:	46ab      	mov	fp, r5
     b0c:	bdf0      	pop	{r4, r5, r6, r7, pc}

00000b0e <_sercom_get_sync_baud_val>:
     b0e:	b510      	push	{r4, lr}
     b10:	0849      	lsrs	r1, r1, #1
     b12:	2340      	movs	r3, #64	; 0x40
     b14:	2400      	movs	r4, #0
     b16:	4281      	cmp	r1, r0
     b18:	d202      	bcs.n	b20 <_sercom_get_sync_baud_val+0x12>
     b1a:	0018      	movs	r0, r3
     b1c:	bd10      	pop	{r4, pc}
     b1e:	001c      	movs	r4, r3
     b20:	1a09      	subs	r1, r1, r0
     b22:	1c63      	adds	r3, r4, #1
     b24:	b29b      	uxth	r3, r3
     b26:	4288      	cmp	r0, r1
     b28:	d9f9      	bls.n	b1e <_sercom_get_sync_baud_val+0x10>
     b2a:	2340      	movs	r3, #64	; 0x40
     b2c:	2cff      	cmp	r4, #255	; 0xff
     b2e:	d8f4      	bhi.n	b1a <_sercom_get_sync_baud_val+0xc>
     b30:	8014      	strh	r4, [r2, #0]
     b32:	2300      	movs	r3, #0
     b34:	e7f1      	b.n	b1a <_sercom_get_sync_baud_val+0xc>
	...

00000b38 <_sercom_get_async_baud_val>:
     b38:	b5f0      	push	{r4, r5, r6, r7, lr}
     b3a:	b083      	sub	sp, #12
     b3c:	000f      	movs	r7, r1
     b3e:	0016      	movs	r6, r2
     b40:	aa08      	add	r2, sp, #32
     b42:	7811      	ldrb	r1, [r2, #0]
     b44:	0004      	movs	r4, r0
     b46:	434c      	muls	r4, r1
     b48:	2240      	movs	r2, #64	; 0x40
     b4a:	42bc      	cmp	r4, r7
     b4c:	d902      	bls.n	b54 <_sercom_get_async_baud_val+0x1c>
     b4e:	0010      	movs	r0, r2
     b50:	b003      	add	sp, #12
     b52:	bdf0      	pop	{r4, r5, r6, r7, pc}
     b54:	2b00      	cmp	r3, #0
     b56:	d114      	bne.n	b82 <_sercom_get_async_baud_val+0x4a>
     b58:	0002      	movs	r2, r0
     b5a:	0008      	movs	r0, r1
     b5c:	2100      	movs	r1, #0
     b5e:	4c19      	ldr	r4, [pc, #100]	; (bc4 <_sercom_get_async_baud_val+0x8c>)
     b60:	47a0      	blx	r4
     b62:	0001      	movs	r1, r0
     b64:	003a      	movs	r2, r7
     b66:	2300      	movs	r3, #0
     b68:	2000      	movs	r0, #0
     b6a:	4c17      	ldr	r4, [pc, #92]	; (bc8 <_sercom_get_async_baud_val+0x90>)
     b6c:	47a0      	blx	r4
     b6e:	2200      	movs	r2, #0
     b70:	2301      	movs	r3, #1
     b72:	1a12      	subs	r2, r2, r0
     b74:	418b      	sbcs	r3, r1
     b76:	0c12      	lsrs	r2, r2, #16
     b78:	041b      	lsls	r3, r3, #16
     b7a:	431a      	orrs	r2, r3
     b7c:	8032      	strh	r2, [r6, #0]
     b7e:	2200      	movs	r2, #0
     b80:	e7e5      	b.n	b4e <_sercom_get_async_baud_val+0x16>
     b82:	2200      	movs	r2, #0
     b84:	2b01      	cmp	r3, #1
     b86:	d1f9      	bne.n	b7c <_sercom_get_async_baud_val+0x44>
     b88:	000a      	movs	r2, r1
     b8a:	2300      	movs	r3, #0
     b8c:	2100      	movs	r1, #0
     b8e:	4c0d      	ldr	r4, [pc, #52]	; (bc4 <_sercom_get_async_baud_val+0x8c>)
     b90:	47a0      	blx	r4
     b92:	0002      	movs	r2, r0
     b94:	000b      	movs	r3, r1
     b96:	9200      	str	r2, [sp, #0]
     b98:	9301      	str	r3, [sp, #4]
     b9a:	0038      	movs	r0, r7
     b9c:	2100      	movs	r1, #0
     b9e:	4c0a      	ldr	r4, [pc, #40]	; (bc8 <_sercom_get_async_baud_val+0x90>)
     ba0:	47a0      	blx	r4
     ba2:	0005      	movs	r5, r0
     ba4:	2380      	movs	r3, #128	; 0x80
     ba6:	019b      	lsls	r3, r3, #6
     ba8:	2240      	movs	r2, #64	; 0x40
     baa:	4298      	cmp	r0, r3
     bac:	d8cf      	bhi.n	b4e <_sercom_get_async_baud_val+0x16>
     bae:	0f79      	lsrs	r1, r7, #29
     bb0:	00f8      	lsls	r0, r7, #3
     bb2:	9a00      	ldr	r2, [sp, #0]
     bb4:	9b01      	ldr	r3, [sp, #4]
     bb6:	47a0      	blx	r4
     bb8:	00ea      	lsls	r2, r5, #3
     bba:	1a82      	subs	r2, r0, r2
     bbc:	b2d2      	uxtb	r2, r2
     bbe:	0352      	lsls	r2, r2, #13
     bc0:	432a      	orrs	r2, r5
     bc2:	e7db      	b.n	b7c <_sercom_get_async_baud_val+0x44>
     bc4:	00003791 	.word	0x00003791
     bc8:	00000a55 	.word	0x00000a55

00000bcc <sercom_set_gclk_generator>:
     bcc:	b510      	push	{r4, lr}
     bce:	b082      	sub	sp, #8
     bd0:	0004      	movs	r4, r0
     bd2:	4b0e      	ldr	r3, [pc, #56]	; (c0c <sercom_set_gclk_generator+0x40>)
     bd4:	781b      	ldrb	r3, [r3, #0]
     bd6:	2b00      	cmp	r3, #0
     bd8:	d007      	beq.n	bea <sercom_set_gclk_generator+0x1e>
     bda:	2900      	cmp	r1, #0
     bdc:	d105      	bne.n	bea <sercom_set_gclk_generator+0x1e>
     bde:	4b0b      	ldr	r3, [pc, #44]	; (c0c <sercom_set_gclk_generator+0x40>)
     be0:	785b      	ldrb	r3, [r3, #1]
     be2:	4283      	cmp	r3, r0
     be4:	d010      	beq.n	c08 <sercom_set_gclk_generator+0x3c>
     be6:	201d      	movs	r0, #29
     be8:	e00c      	b.n	c04 <sercom_set_gclk_generator+0x38>
     bea:	a901      	add	r1, sp, #4
     bec:	700c      	strb	r4, [r1, #0]
     bee:	2012      	movs	r0, #18
     bf0:	4b07      	ldr	r3, [pc, #28]	; (c10 <sercom_set_gclk_generator+0x44>)
     bf2:	4798      	blx	r3
     bf4:	2012      	movs	r0, #18
     bf6:	4b07      	ldr	r3, [pc, #28]	; (c14 <sercom_set_gclk_generator+0x48>)
     bf8:	4798      	blx	r3
     bfa:	4b04      	ldr	r3, [pc, #16]	; (c0c <sercom_set_gclk_generator+0x40>)
     bfc:	705c      	strb	r4, [r3, #1]
     bfe:	2201      	movs	r2, #1
     c00:	701a      	strb	r2, [r3, #0]
     c02:	2000      	movs	r0, #0
     c04:	b002      	add	sp, #8
     c06:	bd10      	pop	{r4, pc}
     c08:	2000      	movs	r0, #0
     c0a:	e7fb      	b.n	c04 <sercom_set_gclk_generator+0x38>
     c0c:	200000a4 	.word	0x200000a4
     c10:	000029b9 	.word	0x000029b9
     c14:	00002949 	.word	0x00002949

00000c18 <_sercom_get_default_pad>:
     c18:	4b40      	ldr	r3, [pc, #256]	; (d1c <_sercom_get_default_pad+0x104>)
     c1a:	4298      	cmp	r0, r3
     c1c:	d031      	beq.n	c82 <_sercom_get_default_pad+0x6a>
     c1e:	d90a      	bls.n	c36 <_sercom_get_default_pad+0x1e>
     c20:	4b3f      	ldr	r3, [pc, #252]	; (d20 <_sercom_get_default_pad+0x108>)
     c22:	4298      	cmp	r0, r3
     c24:	d04d      	beq.n	cc2 <_sercom_get_default_pad+0xaa>
     c26:	4b3f      	ldr	r3, [pc, #252]	; (d24 <_sercom_get_default_pad+0x10c>)
     c28:	4298      	cmp	r0, r3
     c2a:	d05a      	beq.n	ce2 <_sercom_get_default_pad+0xca>
     c2c:	4b3e      	ldr	r3, [pc, #248]	; (d28 <_sercom_get_default_pad+0x110>)
     c2e:	4298      	cmp	r0, r3
     c30:	d037      	beq.n	ca2 <_sercom_get_default_pad+0x8a>
     c32:	2000      	movs	r0, #0
     c34:	4770      	bx	lr
     c36:	4b3d      	ldr	r3, [pc, #244]	; (d2c <_sercom_get_default_pad+0x114>)
     c38:	4298      	cmp	r0, r3
     c3a:	d00c      	beq.n	c56 <_sercom_get_default_pad+0x3e>
     c3c:	4b3c      	ldr	r3, [pc, #240]	; (d30 <_sercom_get_default_pad+0x118>)
     c3e:	4298      	cmp	r0, r3
     c40:	d1f7      	bne.n	c32 <_sercom_get_default_pad+0x1a>
     c42:	2901      	cmp	r1, #1
     c44:	d017      	beq.n	c76 <_sercom_get_default_pad+0x5e>
     c46:	2900      	cmp	r1, #0
     c48:	d05d      	beq.n	d06 <_sercom_get_default_pad+0xee>
     c4a:	2902      	cmp	r1, #2
     c4c:	d015      	beq.n	c7a <_sercom_get_default_pad+0x62>
     c4e:	2903      	cmp	r1, #3
     c50:	d015      	beq.n	c7e <_sercom_get_default_pad+0x66>
     c52:	2000      	movs	r0, #0
     c54:	e7ee      	b.n	c34 <_sercom_get_default_pad+0x1c>
     c56:	2901      	cmp	r1, #1
     c58:	d007      	beq.n	c6a <_sercom_get_default_pad+0x52>
     c5a:	2900      	cmp	r1, #0
     c5c:	d051      	beq.n	d02 <_sercom_get_default_pad+0xea>
     c5e:	2902      	cmp	r1, #2
     c60:	d005      	beq.n	c6e <_sercom_get_default_pad+0x56>
     c62:	2903      	cmp	r1, #3
     c64:	d005      	beq.n	c72 <_sercom_get_default_pad+0x5a>
     c66:	2000      	movs	r0, #0
     c68:	e7e4      	b.n	c34 <_sercom_get_default_pad+0x1c>
     c6a:	4832      	ldr	r0, [pc, #200]	; (d34 <_sercom_get_default_pad+0x11c>)
     c6c:	e7e2      	b.n	c34 <_sercom_get_default_pad+0x1c>
     c6e:	4832      	ldr	r0, [pc, #200]	; (d38 <_sercom_get_default_pad+0x120>)
     c70:	e7e0      	b.n	c34 <_sercom_get_default_pad+0x1c>
     c72:	4832      	ldr	r0, [pc, #200]	; (d3c <_sercom_get_default_pad+0x124>)
     c74:	e7de      	b.n	c34 <_sercom_get_default_pad+0x1c>
     c76:	4832      	ldr	r0, [pc, #200]	; (d40 <_sercom_get_default_pad+0x128>)
     c78:	e7dc      	b.n	c34 <_sercom_get_default_pad+0x1c>
     c7a:	4832      	ldr	r0, [pc, #200]	; (d44 <_sercom_get_default_pad+0x12c>)
     c7c:	e7da      	b.n	c34 <_sercom_get_default_pad+0x1c>
     c7e:	4832      	ldr	r0, [pc, #200]	; (d48 <_sercom_get_default_pad+0x130>)
     c80:	e7d8      	b.n	c34 <_sercom_get_default_pad+0x1c>
     c82:	2901      	cmp	r1, #1
     c84:	d007      	beq.n	c96 <_sercom_get_default_pad+0x7e>
     c86:	2900      	cmp	r1, #0
     c88:	d03f      	beq.n	d0a <_sercom_get_default_pad+0xf2>
     c8a:	2902      	cmp	r1, #2
     c8c:	d005      	beq.n	c9a <_sercom_get_default_pad+0x82>
     c8e:	2903      	cmp	r1, #3
     c90:	d005      	beq.n	c9e <_sercom_get_default_pad+0x86>
     c92:	2000      	movs	r0, #0
     c94:	e7ce      	b.n	c34 <_sercom_get_default_pad+0x1c>
     c96:	482d      	ldr	r0, [pc, #180]	; (d4c <_sercom_get_default_pad+0x134>)
     c98:	e7cc      	b.n	c34 <_sercom_get_default_pad+0x1c>
     c9a:	482d      	ldr	r0, [pc, #180]	; (d50 <_sercom_get_default_pad+0x138>)
     c9c:	e7ca      	b.n	c34 <_sercom_get_default_pad+0x1c>
     c9e:	482d      	ldr	r0, [pc, #180]	; (d54 <_sercom_get_default_pad+0x13c>)
     ca0:	e7c8      	b.n	c34 <_sercom_get_default_pad+0x1c>
     ca2:	2901      	cmp	r1, #1
     ca4:	d007      	beq.n	cb6 <_sercom_get_default_pad+0x9e>
     ca6:	2900      	cmp	r1, #0
     ca8:	d031      	beq.n	d0e <_sercom_get_default_pad+0xf6>
     caa:	2902      	cmp	r1, #2
     cac:	d005      	beq.n	cba <_sercom_get_default_pad+0xa2>
     cae:	2903      	cmp	r1, #3
     cb0:	d005      	beq.n	cbe <_sercom_get_default_pad+0xa6>
     cb2:	2000      	movs	r0, #0
     cb4:	e7be      	b.n	c34 <_sercom_get_default_pad+0x1c>
     cb6:	4828      	ldr	r0, [pc, #160]	; (d58 <_sercom_get_default_pad+0x140>)
     cb8:	e7bc      	b.n	c34 <_sercom_get_default_pad+0x1c>
     cba:	4828      	ldr	r0, [pc, #160]	; (d5c <_sercom_get_default_pad+0x144>)
     cbc:	e7ba      	b.n	c34 <_sercom_get_default_pad+0x1c>
     cbe:	4828      	ldr	r0, [pc, #160]	; (d60 <_sercom_get_default_pad+0x148>)
     cc0:	e7b8      	b.n	c34 <_sercom_get_default_pad+0x1c>
     cc2:	2901      	cmp	r1, #1
     cc4:	d007      	beq.n	cd6 <_sercom_get_default_pad+0xbe>
     cc6:	2900      	cmp	r1, #0
     cc8:	d023      	beq.n	d12 <_sercom_get_default_pad+0xfa>
     cca:	2902      	cmp	r1, #2
     ccc:	d005      	beq.n	cda <_sercom_get_default_pad+0xc2>
     cce:	2903      	cmp	r1, #3
     cd0:	d005      	beq.n	cde <_sercom_get_default_pad+0xc6>
     cd2:	2000      	movs	r0, #0
     cd4:	e7ae      	b.n	c34 <_sercom_get_default_pad+0x1c>
     cd6:	4823      	ldr	r0, [pc, #140]	; (d64 <_sercom_get_default_pad+0x14c>)
     cd8:	e7ac      	b.n	c34 <_sercom_get_default_pad+0x1c>
     cda:	4823      	ldr	r0, [pc, #140]	; (d68 <_sercom_get_default_pad+0x150>)
     cdc:	e7aa      	b.n	c34 <_sercom_get_default_pad+0x1c>
     cde:	4823      	ldr	r0, [pc, #140]	; (d6c <_sercom_get_default_pad+0x154>)
     ce0:	e7a8      	b.n	c34 <_sercom_get_default_pad+0x1c>
     ce2:	2901      	cmp	r1, #1
     ce4:	d007      	beq.n	cf6 <_sercom_get_default_pad+0xde>
     ce6:	2900      	cmp	r1, #0
     ce8:	d015      	beq.n	d16 <_sercom_get_default_pad+0xfe>
     cea:	2902      	cmp	r1, #2
     cec:	d005      	beq.n	cfa <_sercom_get_default_pad+0xe2>
     cee:	2903      	cmp	r1, #3
     cf0:	d005      	beq.n	cfe <_sercom_get_default_pad+0xe6>
     cf2:	2000      	movs	r0, #0
     cf4:	e79e      	b.n	c34 <_sercom_get_default_pad+0x1c>
     cf6:	481e      	ldr	r0, [pc, #120]	; (d70 <_sercom_get_default_pad+0x158>)
     cf8:	e79c      	b.n	c34 <_sercom_get_default_pad+0x1c>
     cfa:	481e      	ldr	r0, [pc, #120]	; (d74 <_sercom_get_default_pad+0x15c>)
     cfc:	e79a      	b.n	c34 <_sercom_get_default_pad+0x1c>
     cfe:	481e      	ldr	r0, [pc, #120]	; (d78 <_sercom_get_default_pad+0x160>)
     d00:	e798      	b.n	c34 <_sercom_get_default_pad+0x1c>
     d02:	481e      	ldr	r0, [pc, #120]	; (d7c <_sercom_get_default_pad+0x164>)
     d04:	e796      	b.n	c34 <_sercom_get_default_pad+0x1c>
     d06:	481e      	ldr	r0, [pc, #120]	; (d80 <_sercom_get_default_pad+0x168>)
     d08:	e794      	b.n	c34 <_sercom_get_default_pad+0x1c>
     d0a:	481e      	ldr	r0, [pc, #120]	; (d84 <_sercom_get_default_pad+0x16c>)
     d0c:	e792      	b.n	c34 <_sercom_get_default_pad+0x1c>
     d0e:	481e      	ldr	r0, [pc, #120]	; (d88 <_sercom_get_default_pad+0x170>)
     d10:	e790      	b.n	c34 <_sercom_get_default_pad+0x1c>
     d12:	481e      	ldr	r0, [pc, #120]	; (d8c <_sercom_get_default_pad+0x174>)
     d14:	e78e      	b.n	c34 <_sercom_get_default_pad+0x1c>
     d16:	481e      	ldr	r0, [pc, #120]	; (d90 <_sercom_get_default_pad+0x178>)
     d18:	e78c      	b.n	c34 <_sercom_get_default_pad+0x1c>
     d1a:	46c0      	nop			; (mov r8, r8)
     d1c:	42000c00 	.word	0x42000c00
     d20:	42001400 	.word	0x42001400
     d24:	42001800 	.word	0x42001800
     d28:	42001000 	.word	0x42001000
     d2c:	42000400 	.word	0x42000400
     d30:	42000800 	.word	0x42000800
     d34:	00050003 	.word	0x00050003
     d38:	00060003 	.word	0x00060003
     d3c:	00070003 	.word	0x00070003
     d40:	00110002 	.word	0x00110002
     d44:	00120002 	.word	0x00120002
     d48:	00130002 	.word	0x00130002
     d4c:	000d0002 	.word	0x000d0002
     d50:	000e0002 	.word	0x000e0002
     d54:	000f0002 	.word	0x000f0002
     d58:	00170002 	.word	0x00170002
     d5c:	00180002 	.word	0x00180002
     d60:	00190002 	.word	0x00190002
     d64:	00290003 	.word	0x00290003
     d68:	002a0003 	.word	0x002a0003
     d6c:	002b0003 	.word	0x002b0003
     d70:	00230003 	.word	0x00230003
     d74:	00200003 	.word	0x00200003
     d78:	00210003 	.word	0x00210003
     d7c:	00040003 	.word	0x00040003
     d80:	00100002 	.word	0x00100002
     d84:	000c0002 	.word	0x000c0002
     d88:	00160002 	.word	0x00160002
     d8c:	00280003 	.word	0x00280003
     d90:	00220003 	.word	0x00220003

00000d94 <_sercom_get_sercom_inst_index>:
     d94:	b530      	push	{r4, r5, lr}
     d96:	b087      	sub	sp, #28
     d98:	4b0b      	ldr	r3, [pc, #44]	; (dc8 <_sercom_get_sercom_inst_index+0x34>)
     d9a:	466a      	mov	r2, sp
     d9c:	cb32      	ldmia	r3!, {r1, r4, r5}
     d9e:	c232      	stmia	r2!, {r1, r4, r5}
     da0:	cb32      	ldmia	r3!, {r1, r4, r5}
     da2:	c232      	stmia	r2!, {r1, r4, r5}
     da4:	9b00      	ldr	r3, [sp, #0]
     da6:	4283      	cmp	r3, r0
     da8:	d00b      	beq.n	dc2 <_sercom_get_sercom_inst_index+0x2e>
     daa:	2301      	movs	r3, #1
     dac:	009a      	lsls	r2, r3, #2
     dae:	4669      	mov	r1, sp
     db0:	5852      	ldr	r2, [r2, r1]
     db2:	4282      	cmp	r2, r0
     db4:	d006      	beq.n	dc4 <_sercom_get_sercom_inst_index+0x30>
     db6:	3301      	adds	r3, #1
     db8:	2b06      	cmp	r3, #6
     dba:	d1f7      	bne.n	dac <_sercom_get_sercom_inst_index+0x18>
     dbc:	2000      	movs	r0, #0
     dbe:	b007      	add	sp, #28
     dc0:	bd30      	pop	{r4, r5, pc}
     dc2:	2300      	movs	r3, #0
     dc4:	b2d8      	uxtb	r0, r3
     dc6:	e7fa      	b.n	dbe <_sercom_get_sercom_inst_index+0x2a>
     dc8:	00005918 	.word	0x00005918

00000dcc <_tcc_get_inst_index>:
     dcc:	4b09      	ldr	r3, [pc, #36]	; (df4 <_tcc_get_inst_index+0x28>)
     dce:	4298      	cmp	r0, r3
     dd0:	d00c      	beq.n	dec <_tcc_get_inst_index+0x20>
     dd2:	4b09      	ldr	r3, [pc, #36]	; (df8 <_tcc_get_inst_index+0x2c>)
     dd4:	4298      	cmp	r0, r3
     dd6:	d007      	beq.n	de8 <_tcc_get_inst_index+0x1c>
     dd8:	4a08      	ldr	r2, [pc, #32]	; (dfc <_tcc_get_inst_index+0x30>)
     dda:	2300      	movs	r3, #0
     ddc:	4290      	cmp	r0, r2
     dde:	d001      	beq.n	de4 <_tcc_get_inst_index+0x18>
     de0:	0018      	movs	r0, r3
     de2:	4770      	bx	lr
     de4:	3302      	adds	r3, #2
     de6:	e002      	b.n	dee <_tcc_get_inst_index+0x22>
     de8:	2301      	movs	r3, #1
     dea:	e000      	b.n	dee <_tcc_get_inst_index+0x22>
     dec:	2300      	movs	r3, #0
     dee:	b2db      	uxtb	r3, r3
     df0:	e7f6      	b.n	de0 <_tcc_get_inst_index+0x14>
     df2:	46c0      	nop			; (mov r8, r8)
     df4:	42002400 	.word	0x42002400
     df8:	42002800 	.word	0x42002800
     dfc:	42002c00 	.word	0x42002c00

00000e00 <tcc_get_config_defaults>:
     e00:	b510      	push	{r4, lr}
     e02:	0004      	movs	r4, r0
     e04:	0008      	movs	r0, r1
     e06:	4b4f      	ldr	r3, [pc, #316]	; (f44 <tcc_get_config_defaults+0x144>)
     e08:	4798      	blx	r3
     e0a:	2300      	movs	r3, #0
     e0c:	6023      	str	r3, [r4, #0]
     e0e:	0080      	lsls	r0, r0, #2
     e10:	4a4d      	ldr	r2, [pc, #308]	; (f48 <tcc_get_config_defaults+0x148>)
     e12:	5882      	ldr	r2, [r0, r2]
     e14:	6062      	str	r2, [r4, #4]
     e16:	72a3      	strb	r3, [r4, #10]
     e18:	72e3      	strb	r3, [r4, #11]
     e1a:	7323      	strb	r3, [r4, #12]
     e1c:	7263      	strb	r3, [r4, #9]
     e1e:	7223      	strb	r3, [r4, #8]
     e20:	61e3      	str	r3, [r4, #28]
     e22:	6223      	str	r3, [r4, #32]
     e24:	6263      	str	r3, [r4, #36]	; 0x24
     e26:	62a3      	str	r3, [r4, #40]	; 0x28
     e28:	7523      	strb	r3, [r4, #20]
     e2a:	7563      	strb	r3, [r4, #21]
     e2c:	75a3      	strb	r3, [r4, #22]
     e2e:	75e3      	strb	r3, [r4, #23]
     e30:	7623      	strb	r3, [r4, #24]
     e32:	7663      	strb	r3, [r4, #25]
     e34:	7423      	strb	r3, [r4, #16]
     e36:	7463      	strb	r3, [r4, #17]
     e38:	74a3      	strb	r3, [r4, #18]
     e3a:	74e3      	strb	r3, [r4, #19]
     e3c:	222c      	movs	r2, #44	; 0x2c
     e3e:	54a3      	strb	r3, [r4, r2]
     e40:	3201      	adds	r2, #1
     e42:	54a3      	strb	r3, [r4, r2]
     e44:	3201      	adds	r2, #1
     e46:	54a3      	strb	r3, [r4, r2]
     e48:	3201      	adds	r2, #1
     e4a:	54a3      	strb	r3, [r4, r2]
     e4c:	3201      	adds	r2, #1
     e4e:	54a3      	strb	r3, [r4, r2]
     e50:	3201      	adds	r2, #1
     e52:	54a3      	strb	r3, [r4, r2]
     e54:	3201      	adds	r2, #1
     e56:	54a3      	strb	r3, [r4, r2]
     e58:	3201      	adds	r2, #1
     e5a:	54a3      	strb	r3, [r4, r2]
     e5c:	3201      	adds	r2, #1
     e5e:	54a3      	strb	r3, [r4, r2]
     e60:	3201      	adds	r2, #1
     e62:	54a3      	strb	r3, [r4, r2]
     e64:	3201      	adds	r2, #1
     e66:	54a3      	strb	r3, [r4, r2]
     e68:	3201      	adds	r2, #1
     e6a:	54a3      	strb	r3, [r4, r2]
     e6c:	3201      	adds	r2, #1
     e6e:	54a3      	strb	r3, [r4, r2]
     e70:	3201      	adds	r2, #1
     e72:	54a3      	strb	r3, [r4, r2]
     e74:	3201      	adds	r2, #1
     e76:	54a3      	strb	r3, [r4, r2]
     e78:	3201      	adds	r2, #1
     e7a:	54a3      	strb	r3, [r4, r2]
     e7c:	3201      	adds	r2, #1
     e7e:	54a3      	strb	r3, [r4, r2]
     e80:	3201      	adds	r2, #1
     e82:	54a3      	strb	r3, [r4, r2]
     e84:	3201      	adds	r2, #1
     e86:	54a3      	strb	r3, [r4, r2]
     e88:	3201      	adds	r2, #1
     e8a:	54a3      	strb	r3, [r4, r2]
     e8c:	3201      	adds	r2, #1
     e8e:	54a3      	strb	r3, [r4, r2]
     e90:	3201      	adds	r2, #1
     e92:	54a3      	strb	r3, [r4, r2]
     e94:	3201      	adds	r2, #1
     e96:	54a3      	strb	r3, [r4, r2]
     e98:	3201      	adds	r2, #1
     e9a:	54a3      	strb	r3, [r4, r2]
     e9c:	3201      	adds	r2, #1
     e9e:	54a3      	strb	r3, [r4, r2]
     ea0:	3201      	adds	r2, #1
     ea2:	54a3      	strb	r3, [r4, r2]
     ea4:	3201      	adds	r2, #1
     ea6:	54a3      	strb	r3, [r4, r2]
     ea8:	3201      	adds	r2, #1
     eaa:	54a3      	strb	r3, [r4, r2]
     eac:	3201      	adds	r2, #1
     eae:	54a3      	strb	r3, [r4, r2]
     eb0:	3201      	adds	r2, #1
     eb2:	54a3      	strb	r3, [r4, r2]
     eb4:	3201      	adds	r2, #1
     eb6:	54a3      	strb	r3, [r4, r2]
     eb8:	3201      	adds	r2, #1
     eba:	54a3      	strb	r3, [r4, r2]
     ebc:	3201      	adds	r2, #1
     ebe:	54a3      	strb	r3, [r4, r2]
     ec0:	3201      	adds	r2, #1
     ec2:	54a3      	strb	r3, [r4, r2]
     ec4:	3201      	adds	r2, #1
     ec6:	54a3      	strb	r3, [r4, r2]
     ec8:	3201      	adds	r2, #1
     eca:	54a3      	strb	r3, [r4, r2]
     ecc:	3201      	adds	r2, #1
     ece:	54a3      	strb	r3, [r4, r2]
     ed0:	3201      	adds	r2, #1
     ed2:	54a3      	strb	r3, [r4, r2]
     ed4:	3201      	adds	r2, #1
     ed6:	54a3      	strb	r3, [r4, r2]
     ed8:	3201      	adds	r2, #1
     eda:	54a3      	strb	r3, [r4, r2]
     edc:	3201      	adds	r2, #1
     ede:	54a3      	strb	r3, [r4, r2]
     ee0:	3201      	adds	r2, #1
     ee2:	54a3      	strb	r3, [r4, r2]
     ee4:	3201      	adds	r2, #1
     ee6:	54a3      	strb	r3, [r4, r2]
     ee8:	3201      	adds	r2, #1
     eea:	54a3      	strb	r3, [r4, r2]
     eec:	3241      	adds	r2, #65	; 0x41
     eee:	54a3      	strb	r3, [r4, r2]
     ef0:	65a3      	str	r3, [r4, #88]	; 0x58
     ef2:	67a3      	str	r3, [r4, #120]	; 0x78
     ef4:	3201      	adds	r2, #1
     ef6:	54a3      	strb	r3, [r4, r2]
     ef8:	65e3      	str	r3, [r4, #92]	; 0x5c
     efa:	67e3      	str	r3, [r4, #124]	; 0x7c
     efc:	3201      	adds	r2, #1
     efe:	54a3      	strb	r3, [r4, r2]
     f00:	6623      	str	r3, [r4, #96]	; 0x60
     f02:	3a1a      	subs	r2, #26
     f04:	50a3      	str	r3, [r4, r2]
     f06:	321b      	adds	r2, #27
     f08:	54a3      	strb	r3, [r4, r2]
     f0a:	6663      	str	r3, [r4, #100]	; 0x64
     f0c:	3a17      	subs	r2, #23
     f0e:	50a3      	str	r3, [r4, r2]
     f10:	3218      	adds	r2, #24
     f12:	54a3      	strb	r3, [r4, r2]
     f14:	66a3      	str	r3, [r4, #104]	; 0x68
     f16:	3a14      	subs	r2, #20
     f18:	50a3      	str	r3, [r4, r2]
     f1a:	3215      	adds	r2, #21
     f1c:	54a3      	strb	r3, [r4, r2]
     f1e:	66e3      	str	r3, [r4, #108]	; 0x6c
     f20:	3a11      	subs	r2, #17
     f22:	50a3      	str	r3, [r4, r2]
     f24:	3212      	adds	r2, #18
     f26:	54a3      	strb	r3, [r4, r2]
     f28:	6723      	str	r3, [r4, #112]	; 0x70
     f2a:	3a0e      	subs	r2, #14
     f2c:	50a3      	str	r3, [r4, r2]
     f2e:	320f      	adds	r2, #15
     f30:	54a3      	strb	r3, [r4, r2]
     f32:	6763      	str	r3, [r4, #116]	; 0x74
     f34:	3a0b      	subs	r2, #11
     f36:	50a3      	str	r3, [r4, r2]
     f38:	2101      	movs	r1, #1
     f3a:	320c      	adds	r2, #12
     f3c:	54a1      	strb	r1, [r4, r2]
     f3e:	3201      	adds	r2, #1
     f40:	54a3      	strb	r3, [r4, r2]
     f42:	bd10      	pop	{r4, pc}
     f44:	00000dcd 	.word	0x00000dcd
     f48:	00005944 	.word	0x00005944

00000f4c <tcc_init>:
     f4c:	b5f0      	push	{r4, r5, r6, r7, lr}
     f4e:	46de      	mov	lr, fp
     f50:	4657      	mov	r7, sl
     f52:	464e      	mov	r6, r9
     f54:	4645      	mov	r5, r8
     f56:	b5e0      	push	{r5, r6, r7, lr}
     f58:	b091      	sub	sp, #68	; 0x44
     f5a:	9001      	str	r0, [sp, #4]
     f5c:	000c      	movs	r4, r1
     f5e:	0015      	movs	r5, r2
     f60:	0008      	movs	r0, r1
     f62:	4bc3      	ldr	r3, [pc, #780]	; (1270 <tcc_init+0x324>)
     f64:	4798      	blx	r3
     f66:	0003      	movs	r3, r0
     f68:	0001      	movs	r1, r0
     f6a:	48c2      	ldr	r0, [pc, #776]	; (1274 <tcc_init+0x328>)
     f6c:	69c2      	ldr	r2, [r0, #28]
     f6e:	009e      	lsls	r6, r3, #2
     f70:	4fc1      	ldr	r7, [pc, #772]	; (1278 <tcc_init+0x32c>)
     f72:	59f7      	ldr	r7, [r6, r7]
     f74:	433a      	orrs	r2, r7
     f76:	61c2      	str	r2, [r0, #28]
     f78:	6822      	ldr	r2, [r4, #0]
     f7a:	201c      	movs	r0, #28
     f7c:	0792      	lsls	r2, r2, #30
     f7e:	d506      	bpl.n	f8e <tcc_init+0x42>
     f80:	b011      	add	sp, #68	; 0x44
     f82:	bc3c      	pop	{r2, r3, r4, r5}
     f84:	4690      	mov	r8, r2
     f86:	4699      	mov	r9, r3
     f88:	46a2      	mov	sl, r4
     f8a:	46ab      	mov	fp, r5
     f8c:	bdf0      	pop	{r4, r5, r6, r7, pc}
     f8e:	6822      	ldr	r2, [r4, #0]
     f90:	2701      	movs	r7, #1
     f92:	4017      	ands	r7, r2
     f94:	d1f4      	bne.n	f80 <tcc_init+0x34>
     f96:	48b9      	ldr	r0, [pc, #740]	; (127c <tcc_init+0x330>)
     f98:	5832      	ldr	r2, [r6, r0]
     f9a:	2017      	movs	r0, #23
     f9c:	682e      	ldr	r6, [r5, #0]
     f9e:	42b2      	cmp	r2, r6
     fa0:	d3ee      	bcc.n	f80 <tcc_init+0x34>
     fa2:	686e      	ldr	r6, [r5, #4]
     fa4:	42b2      	cmp	r2, r6
     fa6:	d3eb      	bcc.n	f80 <tcc_init+0x34>
     fa8:	69e8      	ldr	r0, [r5, #28]
     faa:	4282      	cmp	r2, r0
     fac:	d200      	bcs.n	fb0 <tcc_init+0x64>
     fae:	e1ab      	b.n	1308 <tcc_init+0x3bc>
     fb0:	6a28      	ldr	r0, [r5, #32]
     fb2:	4282      	cmp	r2, r0
     fb4:	d200      	bcs.n	fb8 <tcc_init+0x6c>
     fb6:	e1a9      	b.n	130c <tcc_init+0x3c0>
     fb8:	6a68      	ldr	r0, [r5, #36]	; 0x24
     fba:	4282      	cmp	r2, r0
     fbc:	d200      	bcs.n	fc0 <tcc_init+0x74>
     fbe:	e1a7      	b.n	1310 <tcc_init+0x3c4>
     fc0:	6aa8      	ldr	r0, [r5, #40]	; 0x28
     fc2:	4282      	cmp	r2, r0
     fc4:	d200      	bcs.n	fc8 <tcc_init+0x7c>
     fc6:	e1a5      	b.n	1314 <tcc_init+0x3c8>
     fc8:	2298      	movs	r2, #152	; 0x98
     fca:	4694      	mov	ip, r2
     fcc:	44ac      	add	ip, r5
     fce:	4662      	mov	r2, ip
     fd0:	9208      	str	r2, [sp, #32]
     fd2:	2000      	movs	r0, #0
     fd4:	e003      	b.n	fde <tcc_init+0x92>
     fd6:	3001      	adds	r0, #1
     fd8:	3201      	adds	r2, #1
     fda:	2808      	cmp	r0, #8
     fdc:	d008      	beq.n	ff0 <tcc_init+0xa4>
     fde:	7816      	ldrb	r6, [r2, #0]
     fe0:	2e00      	cmp	r6, #0
     fe2:	d0f8      	beq.n	fd6 <tcc_init+0x8a>
     fe4:	4ea6      	ldr	r6, [pc, #664]	; (1280 <tcc_init+0x334>)
     fe6:	5c76      	ldrb	r6, [r6, r1]
     fe8:	4286      	cmp	r6, r0
     fea:	dcf4      	bgt.n	fd6 <tcc_init+0x8a>
     fec:	2017      	movs	r0, #23
     fee:	e7c7      	b.n	f80 <tcc_init+0x34>
     ff0:	2200      	movs	r2, #0
     ff2:	9202      	str	r2, [sp, #8]
     ff4:	2080      	movs	r0, #128	; 0x80
     ff6:	0440      	lsls	r0, r0, #17
     ff8:	4684      	mov	ip, r0
     ffa:	e002      	b.n	1002 <tcc_init+0xb6>
     ffc:	3201      	adds	r2, #1
     ffe:	2a04      	cmp	r2, #4
    1000:	d00e      	beq.n	1020 <tcc_init+0xd4>
    1002:	18a8      	adds	r0, r5, r2
    1004:	7c00      	ldrb	r0, [r0, #16]
    1006:	2801      	cmp	r0, #1
    1008:	d1f8      	bne.n	ffc <tcc_init+0xb0>
    100a:	489e      	ldr	r0, [pc, #632]	; (1284 <tcc_init+0x338>)
    100c:	5c40      	ldrb	r0, [r0, r1]
    100e:	4290      	cmp	r0, r2
    1010:	da00      	bge.n	1014 <tcc_init+0xc8>
    1012:	e181      	b.n	1318 <tcc_init+0x3cc>
    1014:	4660      	mov	r0, ip
    1016:	4090      	lsls	r0, r2
    1018:	9e02      	ldr	r6, [sp, #8]
    101a:	4306      	orrs	r6, r0
    101c:	9602      	str	r6, [sp, #8]
    101e:	e7ed      	b.n	ffc <tcc_init+0xb0>
    1020:	329d      	adds	r2, #157	; 0x9d
    1022:	5caa      	ldrb	r2, [r5, r2]
    1024:	2a00      	cmp	r2, #0
    1026:	d004      	beq.n	1032 <tcc_init+0xe6>
    1028:	2280      	movs	r2, #128	; 0x80
    102a:	0112      	lsls	r2, r2, #4
    102c:	9902      	ldr	r1, [sp, #8]
    102e:	4311      	orrs	r1, r2
    1030:	9102      	str	r1, [sp, #8]
    1032:	7a2a      	ldrb	r2, [r5, #8]
    1034:	1e51      	subs	r1, r2, #1
    1036:	418a      	sbcs	r2, r1
    1038:	0092      	lsls	r2, r2, #2
    103a:	9206      	str	r2, [sp, #24]
    103c:	7a6a      	ldrb	r2, [r5, #9]
    103e:	2a01      	cmp	r2, #1
    1040:	d022      	beq.n	1088 <tcc_init+0x13c>
    1042:	4a90      	ldr	r2, [pc, #576]	; (1284 <tcc_init+0x338>)
    1044:	5cd2      	ldrb	r2, [r2, r3]
    1046:	0011      	movs	r1, r2
    1048:	9205      	str	r2, [sp, #20]
    104a:	2235      	movs	r2, #53	; 0x35
    104c:	5caa      	ldrb	r2, [r5, r2]
    104e:	428a      	cmp	r2, r1
    1050:	d300      	bcc.n	1054 <tcc_init+0x108>
    1052:	e16b      	b.n	132c <tcc_init+0x3e0>
    1054:	212c      	movs	r1, #44	; 0x2c
    1056:	5c69      	ldrb	r1, [r5, r1]
    1058:	290f      	cmp	r1, #15
    105a:	d900      	bls.n	105e <tcc_init+0x112>
    105c:	e166      	b.n	132c <tcc_init+0x3e0>
    105e:	7b28      	ldrb	r0, [r5, #12]
    1060:	900a      	str	r0, [sp, #40]	; 0x28
    1062:	7ae8      	ldrb	r0, [r5, #11]
    1064:	900b      	str	r0, [sp, #44]	; 0x2c
    1066:	202d      	movs	r0, #45	; 0x2d
    1068:	4682      	mov	sl, r0
    106a:	44aa      	add	sl, r5
    106c:	2000      	movs	r0, #0
    106e:	9704      	str	r7, [sp, #16]
    1070:	ae0e      	add	r6, sp, #56	; 0x38
    1072:	9607      	str	r6, [sp, #28]
    1074:	26c0      	movs	r6, #192	; 0xc0
    1076:	0136      	lsls	r6, r6, #4
    1078:	46b1      	mov	r9, r6
    107a:	4684      	mov	ip, r0
    107c:	46a0      	mov	r8, r4
    107e:	0028      	movs	r0, r5
    1080:	4655      	mov	r5, sl
    1082:	9309      	str	r3, [sp, #36]	; 0x24
    1084:	4682      	mov	sl, r0
    1086:	e035      	b.n	10f4 <tcc_init+0x1a8>
    1088:	9906      	ldr	r1, [sp, #24]
    108a:	4311      	orrs	r1, r2
    108c:	9106      	str	r1, [sp, #24]
    108e:	e7d8      	b.n	1042 <tcc_init+0xf6>
    1090:	0292      	lsls	r2, r2, #10
    1092:	464f      	mov	r7, r9
    1094:	403a      	ands	r2, r7
    1096:	430a      	orrs	r2, r1
    1098:	7919      	ldrb	r1, [r3, #4]
    109a:	468b      	mov	fp, r1
    109c:	2103      	movs	r1, #3
    109e:	465f      	mov	r7, fp
    10a0:	4039      	ands	r1, r7
    10a2:	430a      	orrs	r2, r1
    10a4:	4316      	orrs	r6, r2
    10a6:	795a      	ldrb	r2, [r3, #5]
    10a8:	0152      	lsls	r2, r2, #5
    10aa:	2160      	movs	r1, #96	; 0x60
    10ac:	400a      	ands	r2, r1
    10ae:	4332      	orrs	r2, r6
    10b0:	7999      	ldrb	r1, [r3, #6]
    10b2:	0209      	lsls	r1, r1, #8
    10b4:	26c0      	movs	r6, #192	; 0xc0
    10b6:	00b6      	lsls	r6, r6, #2
    10b8:	400e      	ands	r6, r1
    10ba:	4316      	orrs	r6, r2
    10bc:	79da      	ldrb	r2, [r3, #7]
    10be:	0312      	lsls	r2, r2, #12
    10c0:	21e0      	movs	r1, #224	; 0xe0
    10c2:	01c9      	lsls	r1, r1, #7
    10c4:	400a      	ands	r2, r1
    10c6:	4316      	orrs	r6, r2
    10c8:	4334      	orrs	r4, r6
    10ca:	9a03      	ldr	r2, [sp, #12]
    10cc:	4314      	orrs	r4, r2
    10ce:	4320      	orrs	r0, r4
    10d0:	4662      	mov	r2, ip
    10d2:	9907      	ldr	r1, [sp, #28]
    10d4:	5050      	str	r0, [r2, r1]
    10d6:	2a04      	cmp	r2, #4
    10d8:	d02a      	beq.n	1130 <tcc_init+0x1e4>
    10da:	7c9a      	ldrb	r2, [r3, #18]
    10dc:	9905      	ldr	r1, [sp, #20]
    10de:	4291      	cmp	r1, r2
    10e0:	d800      	bhi.n	10e4 <tcc_init+0x198>
    10e2:	e123      	b.n	132c <tcc_init+0x3e0>
    10e4:	7a59      	ldrb	r1, [r3, #9]
    10e6:	350a      	adds	r5, #10
    10e8:	2304      	movs	r3, #4
    10ea:	469b      	mov	fp, r3
    10ec:	44dc      	add	ip, fp
    10ee:	290f      	cmp	r1, #15
    10f0:	d900      	bls.n	10f4 <tcc_init+0x1a8>
    10f2:	e11b      	b.n	132c <tcc_init+0x3e0>
    10f4:	0609      	lsls	r1, r1, #24
    10f6:	23f0      	movs	r3, #240	; 0xf0
    10f8:	051b      	lsls	r3, r3, #20
    10fa:	4019      	ands	r1, r3
    10fc:	002b      	movs	r3, r5
    10fe:	782e      	ldrb	r6, [r5, #0]
    1100:	0436      	lsls	r6, r6, #16
    1102:	20ff      	movs	r0, #255	; 0xff
    1104:	0400      	lsls	r0, r0, #16
    1106:	4006      	ands	r6, r0
    1108:	7868      	ldrb	r0, [r5, #1]
    110a:	2480      	movs	r4, #128	; 0x80
    110c:	2800      	cmp	r0, #0
    110e:	d100      	bne.n	1112 <tcc_init+0x1c6>
    1110:	9c04      	ldr	r4, [sp, #16]
    1112:	7898      	ldrb	r0, [r3, #2]
    1114:	2708      	movs	r7, #8
    1116:	9703      	str	r7, [sp, #12]
    1118:	2800      	cmp	r0, #0
    111a:	d101      	bne.n	1120 <tcc_init+0x1d4>
    111c:	9804      	ldr	r0, [sp, #16]
    111e:	9003      	str	r0, [sp, #12]
    1120:	78d8      	ldrb	r0, [r3, #3]
    1122:	4683      	mov	fp, r0
    1124:	2010      	movs	r0, #16
    1126:	465f      	mov	r7, fp
    1128:	2f00      	cmp	r7, #0
    112a:	d1b1      	bne.n	1090 <tcc_init+0x144>
    112c:	9804      	ldr	r0, [sp, #16]
    112e:	e7af      	b.n	1090 <tcc_init+0x144>
    1130:	4644      	mov	r4, r8
    1132:	4655      	mov	r5, sl
    1134:	9b09      	ldr	r3, [sp, #36]	; 0x24
    1136:	4a52      	ldr	r2, [pc, #328]	; (1280 <tcc_init+0x334>)
    1138:	5cd2      	ldrb	r2, [r2, r3]
    113a:	4691      	mov	r9, r2
    113c:	4651      	mov	r1, sl
    113e:	3150      	adds	r1, #80	; 0x50
    1140:	4650      	mov	r0, sl
    1142:	3041      	adds	r0, #65	; 0x41
    1144:	2700      	movs	r7, #0
    1146:	2200      	movs	r2, #0
    1148:	2601      	movs	r6, #1
    114a:	46b2      	mov	sl, r6
    114c:	2602      	movs	r6, #2
    114e:	36ff      	adds	r6, #255	; 0xff
    1150:	46b3      	mov	fp, r6
    1152:	2680      	movs	r6, #128	; 0x80
    1154:	0276      	lsls	r6, r6, #9
    1156:	46b0      	mov	r8, r6
    1158:	46a4      	mov	ip, r4
    115a:	001c      	movs	r4, r3
    115c:	464b      	mov	r3, r9
    115e:	e00f      	b.n	1180 <tcc_init+0x234>
    1160:	7806      	ldrb	r6, [r0, #0]
    1162:	2e00      	cmp	r6, #0
    1164:	d007      	beq.n	1176 <tcc_init+0x22a>
    1166:	4293      	cmp	r3, r2
    1168:	d800      	bhi.n	116c <tcc_init+0x220>
    116a:	e0d9      	b.n	1320 <tcc_init+0x3d4>
    116c:	2e02      	cmp	r6, #2
    116e:	d014      	beq.n	119a <tcc_init+0x24e>
    1170:	4656      	mov	r6, sl
    1172:	4096      	lsls	r6, r2
    1174:	4337      	orrs	r7, r6
    1176:	3201      	adds	r2, #1
    1178:	3101      	adds	r1, #1
    117a:	3002      	adds	r0, #2
    117c:	2a08      	cmp	r2, #8
    117e:	d010      	beq.n	11a2 <tcc_init+0x256>
    1180:	780e      	ldrb	r6, [r1, #0]
    1182:	2e00      	cmp	r6, #0
    1184:	d0ec      	beq.n	1160 <tcc_init+0x214>
    1186:	4293      	cmp	r3, r2
    1188:	d800      	bhi.n	118c <tcc_init+0x240>
    118a:	e0c7      	b.n	131c <tcc_init+0x3d0>
    118c:	4646      	mov	r6, r8
    118e:	4096      	lsls	r6, r2
    1190:	4337      	orrs	r7, r6
    1192:	7806      	ldrb	r6, [r0, #0]
    1194:	2e00      	cmp	r6, #0
    1196:	d1e9      	bne.n	116c <tcc_init+0x220>
    1198:	e7ed      	b.n	1176 <tcc_init+0x22a>
    119a:	465e      	mov	r6, fp
    119c:	4096      	lsls	r6, r2
    119e:	4337      	orrs	r7, r6
    11a0:	e7e9      	b.n	1176 <tcc_init+0x22a>
    11a2:	4699      	mov	r9, r3
    11a4:	0023      	movs	r3, r4
    11a6:	4664      	mov	r4, ip
    11a8:	7e6a      	ldrb	r2, [r5, #25]
    11aa:	0112      	lsls	r2, r2, #4
    11ac:	2130      	movs	r1, #48	; 0x30
    11ae:	4011      	ands	r1, r2
    11b0:	7e28      	ldrb	r0, [r5, #24]
    11b2:	2207      	movs	r2, #7
    11b4:	4002      	ands	r2, r0
    11b6:	4311      	orrs	r1, r2
    11b8:	2200      	movs	r2, #0
    11ba:	2080      	movs	r0, #128	; 0x80
    11bc:	0240      	lsls	r0, r0, #9
    11be:	000e      	movs	r6, r1
    11c0:	e002      	b.n	11c8 <tcc_init+0x27c>
    11c2:	3201      	adds	r2, #1
    11c4:	2a04      	cmp	r2, #4
    11c6:	d00b      	beq.n	11e0 <tcc_init+0x294>
    11c8:	18a9      	adds	r1, r5, r2
    11ca:	7d09      	ldrb	r1, [r1, #20]
    11cc:	2900      	cmp	r1, #0
    11ce:	d0f8      	beq.n	11c2 <tcc_init+0x276>
    11d0:	9905      	ldr	r1, [sp, #20]
    11d2:	4291      	cmp	r1, r2
    11d4:	dc00      	bgt.n	11d8 <tcc_init+0x28c>
    11d6:	e0a5      	b.n	1324 <tcc_init+0x3d8>
    11d8:	0001      	movs	r1, r0
    11da:	4091      	lsls	r1, r2
    11dc:	430e      	orrs	r6, r1
    11de:	e7f0      	b.n	11c2 <tcc_init+0x276>
    11e0:	46b2      	mov	sl, r6
    11e2:	9801      	ldr	r0, [sp, #4]
    11e4:	0002      	movs	r2, r0
    11e6:	3204      	adds	r2, #4
    11e8:	3034      	adds	r0, #52	; 0x34
    11ea:	2100      	movs	r1, #0
    11ec:	c202      	stmia	r2!, {r1}
    11ee:	4282      	cmp	r2, r0
    11f0:	d1fc      	bne.n	11ec <tcc_init+0x2a0>
    11f2:	2200      	movs	r2, #0
    11f4:	9801      	ldr	r0, [sp, #4]
    11f6:	6342      	str	r2, [r0, #52]	; 0x34
    11f8:	6382      	str	r2, [r0, #56]	; 0x38
    11fa:	0099      	lsls	r1, r3, #2
    11fc:	4a22      	ldr	r2, [pc, #136]	; (1288 <tcc_init+0x33c>)
    11fe:	5088      	str	r0, [r1, r2]
    1200:	6004      	str	r4, [r0, #0]
    1202:	22a0      	movs	r2, #160	; 0xa0
    1204:	5ca9      	ldrb	r1, [r5, r2]
    1206:	3a64      	subs	r2, #100	; 0x64
    1208:	5481      	strb	r1, [r0, r2]
    120a:	a90d      	add	r1, sp, #52	; 0x34
    120c:	7aaa      	ldrb	r2, [r5, #10]
    120e:	700a      	strb	r2, [r1, #0]
    1210:	4a1e      	ldr	r2, [pc, #120]	; (128c <tcc_init+0x340>)
    1212:	5cd6      	ldrb	r6, [r2, r3]
    1214:	0030      	movs	r0, r6
    1216:	4b1e      	ldr	r3, [pc, #120]	; (1290 <tcc_init+0x344>)
    1218:	4798      	blx	r3
    121a:	0030      	movs	r0, r6
    121c:	4b1d      	ldr	r3, [pc, #116]	; (1294 <tcc_init+0x348>)
    121e:	4798      	blx	r3
    1220:	464b      	mov	r3, r9
    1222:	2b00      	cmp	r3, #0
    1224:	dd3c      	ble.n	12a0 <tcc_init+0x354>
    1226:	002e      	movs	r6, r5
    1228:	3658      	adds	r6, #88	; 0x58
    122a:	3398      	adds	r3, #152	; 0x98
    122c:	4698      	mov	r8, r3
    122e:	44a8      	add	r8, r5
    1230:	2301      	movs	r3, #1
    1232:	4699      	mov	r9, r3
    1234:	46ab      	mov	fp, r5
    1236:	4645      	mov	r5, r8
    1238:	46a0      	mov	r8, r4
    123a:	9c08      	ldr	r4, [sp, #32]
    123c:	e003      	b.n	1246 <tcc_init+0x2fa>
    123e:	3401      	adds	r4, #1
    1240:	3604      	adds	r6, #4
    1242:	42ac      	cmp	r4, r5
    1244:	d02a      	beq.n	129c <tcc_init+0x350>
    1246:	7823      	ldrb	r3, [r4, #0]
    1248:	2b00      	cmp	r3, #0
    124a:	d0f8      	beq.n	123e <tcc_init+0x2f2>
    124c:	ab0c      	add	r3, sp, #48	; 0x30
    124e:	464a      	mov	r2, r9
    1250:	709a      	strb	r2, [r3, #2]
    1252:	2300      	movs	r3, #0
    1254:	aa0c      	add	r2, sp, #48	; 0x30
    1256:	70d3      	strb	r3, [r2, #3]
    1258:	0013      	movs	r3, r2
    125a:	2220      	movs	r2, #32
    125c:	18b2      	adds	r2, r6, r2
    125e:	7812      	ldrb	r2, [r2, #0]
    1260:	701a      	strb	r2, [r3, #0]
    1262:	464a      	mov	r2, r9
    1264:	705a      	strb	r2, [r3, #1]
    1266:	7830      	ldrb	r0, [r6, #0]
    1268:	0019      	movs	r1, r3
    126a:	4b0b      	ldr	r3, [pc, #44]	; (1298 <tcc_init+0x34c>)
    126c:	4798      	blx	r3
    126e:	e7e6      	b.n	123e <tcc_init+0x2f2>
    1270:	00000dcd 	.word	0x00000dcd
    1274:	40000800 	.word	0x40000800
    1278:	00005930 	.word	0x00005930
    127c:	00005944 	.word	0x00005944
    1280:	00005950 	.word	0x00005950
    1284:	0000593c 	.word	0x0000593c
    1288:	200018c8 	.word	0x200018c8
    128c:	00005940 	.word	0x00005940
    1290:	000029b9 	.word	0x000029b9
    1294:	00002949 	.word	0x00002949
    1298:	00002ab5 	.word	0x00002ab5
    129c:	4644      	mov	r4, r8
    129e:	465d      	mov	r5, fp
    12a0:	9b0a      	ldr	r3, [sp, #40]	; 0x28
    12a2:	031b      	lsls	r3, r3, #12
    12a4:	9a0b      	ldr	r2, [sp, #44]	; 0x2c
    12a6:	0212      	lsls	r2, r2, #8
    12a8:	4313      	orrs	r3, r2
    12aa:	9a02      	ldr	r2, [sp, #8]
    12ac:	4313      	orrs	r3, r2
    12ae:	6023      	str	r3, [r4, #0]
    12b0:	2204      	movs	r2, #4
    12b2:	68a3      	ldr	r3, [r4, #8]
    12b4:	421a      	tst	r2, r3
    12b6:	d1fc      	bne.n	12b2 <tcc_init+0x366>
    12b8:	23ff      	movs	r3, #255	; 0xff
    12ba:	7123      	strb	r3, [r4, #4]
    12bc:	2204      	movs	r2, #4
    12be:	68a3      	ldr	r3, [r4, #8]
    12c0:	421a      	tst	r2, r3
    12c2:	d1fc      	bne.n	12be <tcc_init+0x372>
    12c4:	466b      	mov	r3, sp
    12c6:	7e1b      	ldrb	r3, [r3, #24]
    12c8:	7163      	strb	r3, [r4, #5]
    12ca:	9b0e      	ldr	r3, [sp, #56]	; 0x38
    12cc:	60e3      	str	r3, [r4, #12]
    12ce:	9b0f      	ldr	r3, [sp, #60]	; 0x3c
    12d0:	6123      	str	r3, [r4, #16]
    12d2:	61a7      	str	r7, [r4, #24]
    12d4:	4653      	mov	r3, sl
    12d6:	63e3      	str	r3, [r4, #60]	; 0x3c
    12d8:	2210      	movs	r2, #16
    12da:	68a3      	ldr	r3, [r4, #8]
    12dc:	421a      	tst	r2, r3
    12de:	d1fc      	bne.n	12da <tcc_init+0x38e>
    12e0:	682b      	ldr	r3, [r5, #0]
    12e2:	6363      	str	r3, [r4, #52]	; 0x34
    12e4:	686b      	ldr	r3, [r5, #4]
    12e6:	6423      	str	r3, [r4, #64]	; 0x40
    12e8:	9805      	ldr	r0, [sp, #20]
    12ea:	2800      	cmp	r0, #0
    12ec:	dd1c      	ble.n	1328 <tcc_init+0x3dc>
    12ee:	351c      	adds	r5, #28
    12f0:	2200      	movs	r2, #0
    12f2:	cd02      	ldmia	r5!, {r1}
    12f4:	0013      	movs	r3, r2
    12f6:	3310      	adds	r3, #16
    12f8:	009b      	lsls	r3, r3, #2
    12fa:	18e3      	adds	r3, r4, r3
    12fc:	6059      	str	r1, [r3, #4]
    12fe:	3201      	adds	r2, #1
    1300:	4290      	cmp	r0, r2
    1302:	dcf6      	bgt.n	12f2 <tcc_init+0x3a6>
    1304:	2000      	movs	r0, #0
    1306:	e63b      	b.n	f80 <tcc_init+0x34>
    1308:	2017      	movs	r0, #23
    130a:	e639      	b.n	f80 <tcc_init+0x34>
    130c:	2017      	movs	r0, #23
    130e:	e637      	b.n	f80 <tcc_init+0x34>
    1310:	2017      	movs	r0, #23
    1312:	e635      	b.n	f80 <tcc_init+0x34>
    1314:	2017      	movs	r0, #23
    1316:	e633      	b.n	f80 <tcc_init+0x34>
    1318:	2017      	movs	r0, #23
    131a:	e631      	b.n	f80 <tcc_init+0x34>
    131c:	2017      	movs	r0, #23
    131e:	e62f      	b.n	f80 <tcc_init+0x34>
    1320:	2017      	movs	r0, #23
    1322:	e62d      	b.n	f80 <tcc_init+0x34>
    1324:	2017      	movs	r0, #23
    1326:	e62b      	b.n	f80 <tcc_init+0x34>
    1328:	2000      	movs	r0, #0
    132a:	e629      	b.n	f80 <tcc_init+0x34>
    132c:	2017      	movs	r0, #23
    132e:	e627      	b.n	f80 <tcc_init+0x34>

00001330 <tcc_register_callback>:
    1330:	0092      	lsls	r2, r2, #2
    1332:	1883      	adds	r3, r0, r2
    1334:	6059      	str	r1, [r3, #4]
    1336:	4b03      	ldr	r3, [pc, #12]	; (1344 <tcc_register_callback+0x14>)
    1338:	58d3      	ldr	r3, [r2, r3]
    133a:	6b42      	ldr	r2, [r0, #52]	; 0x34
    133c:	4313      	orrs	r3, r2
    133e:	6343      	str	r3, [r0, #52]	; 0x34
    1340:	2000      	movs	r0, #0
    1342:	4770      	bx	lr
    1344:	00005954 	.word	0x00005954

00001348 <tcc_enable_callback>:
    1348:	b570      	push	{r4, r5, r6, lr}
    134a:	0004      	movs	r4, r0
    134c:	000d      	movs	r5, r1
    134e:	6800      	ldr	r0, [r0, #0]
    1350:	4b09      	ldr	r3, [pc, #36]	; (1378 <tcc_enable_callback+0x30>)
    1352:	4798      	blx	r3
    1354:	4b09      	ldr	r3, [pc, #36]	; (137c <tcc_enable_callback+0x34>)
    1356:	5c1b      	ldrb	r3, [r3, r0]
    1358:	221f      	movs	r2, #31
    135a:	401a      	ands	r2, r3
    135c:	2301      	movs	r3, #1
    135e:	4093      	lsls	r3, r2
    1360:	4a07      	ldr	r2, [pc, #28]	; (1380 <tcc_enable_callback+0x38>)
    1362:	6013      	str	r3, [r2, #0]
    1364:	00ad      	lsls	r5, r5, #2
    1366:	4b07      	ldr	r3, [pc, #28]	; (1384 <tcc_enable_callback+0x3c>)
    1368:	58ea      	ldr	r2, [r5, r3]
    136a:	6ba3      	ldr	r3, [r4, #56]	; 0x38
    136c:	4313      	orrs	r3, r2
    136e:	63a3      	str	r3, [r4, #56]	; 0x38
    1370:	6823      	ldr	r3, [r4, #0]
    1372:	629a      	str	r2, [r3, #40]	; 0x28
    1374:	bd70      	pop	{r4, r5, r6, pc}
    1376:	46c0      	nop			; (mov r8, r8)
    1378:	00000dcd 	.word	0x00000dcd
    137c:	00005984 	.word	0x00005984
    1380:	e000e100 	.word	0xe000e100
    1384:	00005954 	.word	0x00005954

00001388 <_tcc_interrupt_handler>:
    1388:	b5f0      	push	{r4, r5, r6, r7, lr}
    138a:	46c6      	mov	lr, r8
    138c:	b500      	push	{lr}
    138e:	0080      	lsls	r0, r0, #2
    1390:	4b0e      	ldr	r3, [pc, #56]	; (13cc <_tcc_interrupt_handler+0x44>)
    1392:	58c7      	ldr	r7, [r0, r3]
    1394:	683b      	ldr	r3, [r7, #0]
    1396:	6ade      	ldr	r6, [r3, #44]	; 0x2c
    1398:	6bbb      	ldr	r3, [r7, #56]	; 0x38
    139a:	6b7a      	ldr	r2, [r7, #52]	; 0x34
    139c:	4013      	ands	r3, r2
    139e:	401e      	ands	r6, r3
    13a0:	2400      	movs	r4, #0
    13a2:	4b0b      	ldr	r3, [pc, #44]	; (13d0 <_tcc_interrupt_handler+0x48>)
    13a4:	4698      	mov	r8, r3
    13a6:	e002      	b.n	13ae <_tcc_interrupt_handler+0x26>
    13a8:	3404      	adds	r4, #4
    13aa:	2c30      	cmp	r4, #48	; 0x30
    13ac:	d00a      	beq.n	13c4 <_tcc_interrupt_handler+0x3c>
    13ae:	4643      	mov	r3, r8
    13b0:	58e5      	ldr	r5, [r4, r3]
    13b2:	4235      	tst	r5, r6
    13b4:	d0f8      	beq.n	13a8 <_tcc_interrupt_handler+0x20>
    13b6:	193b      	adds	r3, r7, r4
    13b8:	685b      	ldr	r3, [r3, #4]
    13ba:	0038      	movs	r0, r7
    13bc:	4798      	blx	r3
    13be:	683b      	ldr	r3, [r7, #0]
    13c0:	62dd      	str	r5, [r3, #44]	; 0x2c
    13c2:	e7f1      	b.n	13a8 <_tcc_interrupt_handler+0x20>
    13c4:	bc04      	pop	{r2}
    13c6:	4690      	mov	r8, r2
    13c8:	bdf0      	pop	{r4, r5, r6, r7, pc}
    13ca:	46c0      	nop			; (mov r8, r8)
    13cc:	200018c8 	.word	0x200018c8
    13d0:	00005954 	.word	0x00005954

000013d4 <TCC0_Handler>:
    13d4:	b510      	push	{r4, lr}
    13d6:	2000      	movs	r0, #0
    13d8:	4b01      	ldr	r3, [pc, #4]	; (13e0 <TCC0_Handler+0xc>)
    13da:	4798      	blx	r3
    13dc:	bd10      	pop	{r4, pc}
    13de:	46c0      	nop			; (mov r8, r8)
    13e0:	00001389 	.word	0x00001389

000013e4 <TCC1_Handler>:
    13e4:	b510      	push	{r4, lr}
    13e6:	2001      	movs	r0, #1
    13e8:	4b01      	ldr	r3, [pc, #4]	; (13f0 <TCC1_Handler+0xc>)
    13ea:	4798      	blx	r3
    13ec:	bd10      	pop	{r4, pc}
    13ee:	46c0      	nop			; (mov r8, r8)
    13f0:	00001389 	.word	0x00001389

000013f4 <TCC2_Handler>:
    13f4:	b510      	push	{r4, lr}
    13f6:	2002      	movs	r0, #2
    13f8:	4b01      	ldr	r3, [pc, #4]	; (1400 <TCC2_Handler+0xc>)
    13fa:	4798      	blx	r3
    13fc:	bd10      	pop	{r4, pc}
    13fe:	46c0      	nop			; (mov r8, r8)
    1400:	00001389 	.word	0x00001389

00001404 <usart_init>:
    1404:	b5f0      	push	{r4, r5, r6, r7, lr}
    1406:	46de      	mov	lr, fp
    1408:	4657      	mov	r7, sl
    140a:	464e      	mov	r6, r9
    140c:	4645      	mov	r5, r8
    140e:	b5e0      	push	{r5, r6, r7, lr}
    1410:	b091      	sub	sp, #68	; 0x44
    1412:	0005      	movs	r5, r0
    1414:	000c      	movs	r4, r1
    1416:	0016      	movs	r6, r2
    1418:	6029      	str	r1, [r5, #0]
    141a:	0008      	movs	r0, r1
    141c:	4bd2      	ldr	r3, [pc, #840]	; (1768 <usart_init+0x364>)
    141e:	4798      	blx	r3
    1420:	2805      	cmp	r0, #5
    1422:	d00d      	beq.n	1440 <usart_init+0x3c>
    1424:	0007      	movs	r7, r0
    1426:	3713      	adds	r7, #19
    1428:	6822      	ldr	r2, [r4, #0]
    142a:	2305      	movs	r3, #5
    142c:	07d2      	lsls	r2, r2, #31
    142e:	d509      	bpl.n	1444 <usart_init+0x40>
    1430:	0018      	movs	r0, r3
    1432:	b011      	add	sp, #68	; 0x44
    1434:	bc3c      	pop	{r2, r3, r4, r5}
    1436:	4690      	mov	r8, r2
    1438:	4699      	mov	r9, r3
    143a:	46a2      	mov	sl, r4
    143c:	46ab      	mov	fp, r5
    143e:	bdf0      	pop	{r4, r5, r6, r7, pc}
    1440:	2719      	movs	r7, #25
    1442:	e7f1      	b.n	1428 <usart_init+0x24>
    1444:	6822      	ldr	r2, [r4, #0]
    1446:	3317      	adds	r3, #23
    1448:	0792      	lsls	r2, r2, #30
    144a:	d4f1      	bmi.n	1430 <usart_init+0x2c>
    144c:	4ac7      	ldr	r2, [pc, #796]	; (176c <usart_init+0x368>)
    144e:	69d1      	ldr	r1, [r2, #28]
    1450:	3001      	adds	r0, #1
    1452:	3b1b      	subs	r3, #27
    1454:	4083      	lsls	r3, r0
    1456:	430b      	orrs	r3, r1
    1458:	61d3      	str	r3, [r2, #28]
    145a:	a90f      	add	r1, sp, #60	; 0x3c
    145c:	2335      	movs	r3, #53	; 0x35
    145e:	4698      	mov	r8, r3
    1460:	5cf3      	ldrb	r3, [r6, r3]
    1462:	700b      	strb	r3, [r1, #0]
    1464:	b2ff      	uxtb	r7, r7
    1466:	0038      	movs	r0, r7
    1468:	4bc1      	ldr	r3, [pc, #772]	; (1770 <usart_init+0x36c>)
    146a:	4798      	blx	r3
    146c:	0038      	movs	r0, r7
    146e:	4bc1      	ldr	r3, [pc, #772]	; (1774 <usart_init+0x370>)
    1470:	4798      	blx	r3
    1472:	4643      	mov	r3, r8
    1474:	5cf0      	ldrb	r0, [r6, r3]
    1476:	2100      	movs	r1, #0
    1478:	4bbf      	ldr	r3, [pc, #764]	; (1778 <usart_init+0x374>)
    147a:	4798      	blx	r3
    147c:	7af3      	ldrb	r3, [r6, #11]
    147e:	716b      	strb	r3, [r5, #5]
    1480:	232c      	movs	r3, #44	; 0x2c
    1482:	5cf3      	ldrb	r3, [r6, r3]
    1484:	71ab      	strb	r3, [r5, #6]
    1486:	232d      	movs	r3, #45	; 0x2d
    1488:	5cf3      	ldrb	r3, [r6, r3]
    148a:	71eb      	strb	r3, [r5, #7]
    148c:	7ef3      	ldrb	r3, [r6, #27]
    148e:	722b      	strb	r3, [r5, #8]
    1490:	2324      	movs	r3, #36	; 0x24
    1492:	5cf3      	ldrb	r3, [r6, r3]
    1494:	726b      	strb	r3, [r5, #9]
    1496:	682b      	ldr	r3, [r5, #0]
    1498:	9302      	str	r3, [sp, #8]
    149a:	0018      	movs	r0, r3
    149c:	4bb2      	ldr	r3, [pc, #712]	; (1768 <usart_init+0x364>)
    149e:	4798      	blx	r3
    14a0:	2805      	cmp	r0, #5
    14a2:	d01d      	beq.n	14e0 <usart_init+0xdc>
    14a4:	3013      	adds	r0, #19
    14a6:	2200      	movs	r2, #0
    14a8:	230e      	movs	r3, #14
    14aa:	a906      	add	r1, sp, #24
    14ac:	468c      	mov	ip, r1
    14ae:	4463      	add	r3, ip
    14b0:	801a      	strh	r2, [r3, #0]
    14b2:	8a33      	ldrh	r3, [r6, #16]
    14b4:	4698      	mov	r8, r3
    14b6:	2380      	movs	r3, #128	; 0x80
    14b8:	01db      	lsls	r3, r3, #7
    14ba:	4598      	cmp	r8, r3
    14bc:	d100      	bne.n	14c0 <usart_init+0xbc>
    14be:	e0c3      	b.n	1648 <usart_init+0x244>
    14c0:	d910      	bls.n	14e4 <usart_init+0xe0>
    14c2:	23c0      	movs	r3, #192	; 0xc0
    14c4:	01db      	lsls	r3, r3, #7
    14c6:	4598      	cmp	r8, r3
    14c8:	d100      	bne.n	14cc <usart_init+0xc8>
    14ca:	e0b8      	b.n	163e <usart_init+0x23a>
    14cc:	2380      	movs	r3, #128	; 0x80
    14ce:	021b      	lsls	r3, r3, #8
    14d0:	4598      	cmp	r8, r3
    14d2:	d000      	beq.n	14d6 <usart_init+0xd2>
    14d4:	e166      	b.n	17a4 <usart_init+0x3a0>
    14d6:	2303      	movs	r3, #3
    14d8:	9306      	str	r3, [sp, #24]
    14da:	2300      	movs	r3, #0
    14dc:	9307      	str	r3, [sp, #28]
    14de:	e00a      	b.n	14f6 <usart_init+0xf2>
    14e0:	2019      	movs	r0, #25
    14e2:	e7e0      	b.n	14a6 <usart_init+0xa2>
    14e4:	2380      	movs	r3, #128	; 0x80
    14e6:	019b      	lsls	r3, r3, #6
    14e8:	4598      	cmp	r8, r3
    14ea:	d000      	beq.n	14ee <usart_init+0xea>
    14ec:	e15a      	b.n	17a4 <usart_init+0x3a0>
    14ee:	2310      	movs	r3, #16
    14f0:	9306      	str	r3, [sp, #24]
    14f2:	3b0f      	subs	r3, #15
    14f4:	9307      	str	r3, [sp, #28]
    14f6:	6833      	ldr	r3, [r6, #0]
    14f8:	9305      	str	r3, [sp, #20]
    14fa:	68f3      	ldr	r3, [r6, #12]
    14fc:	469b      	mov	fp, r3
    14fe:	6973      	ldr	r3, [r6, #20]
    1500:	9303      	str	r3, [sp, #12]
    1502:	7e33      	ldrb	r3, [r6, #24]
    1504:	9304      	str	r3, [sp, #16]
    1506:	232e      	movs	r3, #46	; 0x2e
    1508:	5cf3      	ldrb	r3, [r6, r3]
    150a:	469a      	mov	sl, r3
    150c:	6873      	ldr	r3, [r6, #4]
    150e:	4699      	mov	r9, r3
    1510:	2b00      	cmp	r3, #0
    1512:	d100      	bne.n	1516 <usart_init+0x112>
    1514:	e0c5      	b.n	16a2 <usart_init+0x29e>
    1516:	2380      	movs	r3, #128	; 0x80
    1518:	055b      	lsls	r3, r3, #21
    151a:	4599      	cmp	r9, r3
    151c:	d100      	bne.n	1520 <usart_init+0x11c>
    151e:	e0a8      	b.n	1672 <usart_init+0x26e>
    1520:	7e73      	ldrb	r3, [r6, #25]
    1522:	2b00      	cmp	r3, #0
    1524:	d002      	beq.n	152c <usart_init+0x128>
    1526:	7eb3      	ldrb	r3, [r6, #26]
    1528:	9a02      	ldr	r2, [sp, #8]
    152a:	7393      	strb	r3, [r2, #14]
    152c:	230e      	movs	r3, #14
    152e:	aa06      	add	r2, sp, #24
    1530:	4694      	mov	ip, r2
    1532:	4463      	add	r3, ip
    1534:	881b      	ldrh	r3, [r3, #0]
    1536:	9a02      	ldr	r2, [sp, #8]
    1538:	8193      	strh	r3, [r2, #12]
    153a:	9a05      	ldr	r2, [sp, #20]
    153c:	465b      	mov	r3, fp
    153e:	431a      	orrs	r2, r3
    1540:	9b03      	ldr	r3, [sp, #12]
    1542:	431a      	orrs	r2, r3
    1544:	464b      	mov	r3, r9
    1546:	431a      	orrs	r2, r3
    1548:	4643      	mov	r3, r8
    154a:	431a      	orrs	r2, r3
    154c:	9b04      	ldr	r3, [sp, #16]
    154e:	021b      	lsls	r3, r3, #8
    1550:	431a      	orrs	r2, r3
    1552:	4653      	mov	r3, sl
    1554:	075b      	lsls	r3, r3, #29
    1556:	431a      	orrs	r2, r3
    1558:	232f      	movs	r3, #47	; 0x2f
    155a:	5cf3      	ldrb	r3, [r6, r3]
    155c:	2b00      	cmp	r3, #0
    155e:	d101      	bne.n	1564 <usart_init+0x160>
    1560:	3304      	adds	r3, #4
    1562:	431a      	orrs	r2, r3
    1564:	7e73      	ldrb	r3, [r6, #25]
    1566:	029b      	lsls	r3, r3, #10
    1568:	2124      	movs	r1, #36	; 0x24
    156a:	5c71      	ldrb	r1, [r6, r1]
    156c:	0249      	lsls	r1, r1, #9
    156e:	430b      	orrs	r3, r1
    1570:	2126      	movs	r1, #38	; 0x26
    1572:	5c71      	ldrb	r1, [r6, r1]
    1574:	0209      	lsls	r1, r1, #8
    1576:	430b      	orrs	r3, r1
    1578:	212c      	movs	r1, #44	; 0x2c
    157a:	5c71      	ldrb	r1, [r6, r1]
    157c:	0449      	lsls	r1, r1, #17
    157e:	430b      	orrs	r3, r1
    1580:	212d      	movs	r1, #45	; 0x2d
    1582:	5c71      	ldrb	r1, [r6, r1]
    1584:	0409      	lsls	r1, r1, #16
    1586:	430b      	orrs	r3, r1
    1588:	7ab0      	ldrb	r0, [r6, #10]
    158a:	7af1      	ldrb	r1, [r6, #11]
    158c:	4308      	orrs	r0, r1
    158e:	4318      	orrs	r0, r3
    1590:	8933      	ldrh	r3, [r6, #8]
    1592:	2bff      	cmp	r3, #255	; 0xff
    1594:	d100      	bne.n	1598 <usart_init+0x194>
    1596:	e0aa      	b.n	16ee <usart_init+0x2ea>
    1598:	2180      	movs	r1, #128	; 0x80
    159a:	0449      	lsls	r1, r1, #17
    159c:	430a      	orrs	r2, r1
    159e:	4318      	orrs	r0, r3
    15a0:	9902      	ldr	r1, [sp, #8]
    15a2:	688b      	ldr	r3, [r1, #8]
    15a4:	469c      	mov	ip, r3
    15a6:	8c33      	ldrh	r3, [r6, #32]
    15a8:	8c71      	ldrh	r1, [r6, #34]	; 0x22
    15aa:	430b      	orrs	r3, r1
    15ac:	001f      	movs	r7, r3
    15ae:	2107      	movs	r1, #7
    15b0:	4663      	mov	r3, ip
    15b2:	4019      	ands	r1, r3
    15b4:	003b      	movs	r3, r7
    15b6:	430b      	orrs	r3, r1
    15b8:	9902      	ldr	r1, [sp, #8]
    15ba:	608b      	str	r3, [r1, #8]
    15bc:	69f3      	ldr	r3, [r6, #28]
    15be:	2b00      	cmp	r3, #0
    15c0:	d002      	beq.n	15c8 <usart_init+0x1c4>
    15c2:	496e      	ldr	r1, [pc, #440]	; (177c <usart_init+0x378>)
    15c4:	400a      	ands	r2, r1
    15c6:	431a      	orrs	r2, r3
    15c8:	2334      	movs	r3, #52	; 0x34
    15ca:	5cf3      	ldrb	r3, [r6, r3]
    15cc:	2b00      	cmp	r3, #0
    15ce:	d103      	bne.n	15d8 <usart_init+0x1d4>
    15d0:	4b6b      	ldr	r3, [pc, #428]	; (1780 <usart_init+0x37c>)
    15d2:	789b      	ldrb	r3, [r3, #2]
    15d4:	079b      	lsls	r3, r3, #30
    15d6:	d501      	bpl.n	15dc <usart_init+0x1d8>
    15d8:	2380      	movs	r3, #128	; 0x80
    15da:	431a      	orrs	r2, r3
    15dc:	6829      	ldr	r1, [r5, #0]
    15de:	9f02      	ldr	r7, [sp, #8]
    15e0:	69cb      	ldr	r3, [r1, #28]
    15e2:	2b00      	cmp	r3, #0
    15e4:	d1fc      	bne.n	15e0 <usart_init+0x1dc>
    15e6:	6078      	str	r0, [r7, #4]
    15e8:	6829      	ldr	r1, [r5, #0]
    15ea:	69cb      	ldr	r3, [r1, #28]
    15ec:	2b00      	cmp	r3, #0
    15ee:	d1fc      	bne.n	15ea <usart_init+0x1e6>
    15f0:	603a      	str	r2, [r7, #0]
    15f2:	683b      	ldr	r3, [r7, #0]
    15f4:	22f0      	movs	r2, #240	; 0xf0
    15f6:	0512      	lsls	r2, r2, #20
    15f8:	4013      	ands	r3, r2
    15fa:	22e0      	movs	r2, #224	; 0xe0
    15fc:	04d2      	lsls	r2, r2, #19
    15fe:	4293      	cmp	r3, r2
    1600:	d00a      	beq.n	1618 <usart_init+0x214>
    1602:	68bb      	ldr	r3, [r7, #8]
    1604:	2207      	movs	r2, #7
    1606:	4393      	bics	r3, r2
    1608:	60bb      	str	r3, [r7, #8]
    160a:	68ba      	ldr	r2, [r7, #8]
    160c:	2325      	movs	r3, #37	; 0x25
    160e:	5cf1      	ldrb	r1, [r6, r3]
    1610:	3b1e      	subs	r3, #30
    1612:	400b      	ands	r3, r1
    1614:	4313      	orrs	r3, r2
    1616:	60bb      	str	r3, [r7, #8]
    1618:	ab0e      	add	r3, sp, #56	; 0x38
    161a:	2280      	movs	r2, #128	; 0x80
    161c:	701a      	strb	r2, [r3, #0]
    161e:	2200      	movs	r2, #0
    1620:	705a      	strb	r2, [r3, #1]
    1622:	70da      	strb	r2, [r3, #3]
    1624:	709a      	strb	r2, [r3, #2]
    1626:	6bb3      	ldr	r3, [r6, #56]	; 0x38
    1628:	930a      	str	r3, [sp, #40]	; 0x28
    162a:	6bf3      	ldr	r3, [r6, #60]	; 0x3c
    162c:	930b      	str	r3, [sp, #44]	; 0x2c
    162e:	6c33      	ldr	r3, [r6, #64]	; 0x40
    1630:	930c      	str	r3, [sp, #48]	; 0x30
    1632:	6c73      	ldr	r3, [r6, #68]	; 0x44
    1634:	9302      	str	r3, [sp, #8]
    1636:	930d      	str	r3, [sp, #52]	; 0x34
    1638:	2700      	movs	r7, #0
    163a:	ae0a      	add	r6, sp, #40	; 0x28
    163c:	e066      	b.n	170c <usart_init+0x308>
    163e:	2308      	movs	r3, #8
    1640:	9306      	str	r3, [sp, #24]
    1642:	3b07      	subs	r3, #7
    1644:	9307      	str	r3, [sp, #28]
    1646:	e756      	b.n	14f6 <usart_init+0xf2>
    1648:	6833      	ldr	r3, [r6, #0]
    164a:	9305      	str	r3, [sp, #20]
    164c:	68f3      	ldr	r3, [r6, #12]
    164e:	469b      	mov	fp, r3
    1650:	6973      	ldr	r3, [r6, #20]
    1652:	9303      	str	r3, [sp, #12]
    1654:	7e33      	ldrb	r3, [r6, #24]
    1656:	9304      	str	r3, [sp, #16]
    1658:	232e      	movs	r3, #46	; 0x2e
    165a:	5cf3      	ldrb	r3, [r6, r3]
    165c:	469a      	mov	sl, r3
    165e:	6873      	ldr	r3, [r6, #4]
    1660:	4699      	mov	r9, r3
    1662:	2b00      	cmp	r3, #0
    1664:	d019      	beq.n	169a <usart_init+0x296>
    1666:	2380      	movs	r3, #128	; 0x80
    1668:	055b      	lsls	r3, r3, #21
    166a:	4599      	cmp	r9, r3
    166c:	d001      	beq.n	1672 <usart_init+0x26e>
    166e:	2300      	movs	r3, #0
    1670:	e027      	b.n	16c2 <usart_init+0x2be>
    1672:	232f      	movs	r3, #47	; 0x2f
    1674:	5cf3      	ldrb	r3, [r6, r3]
    1676:	2b00      	cmp	r3, #0
    1678:	d000      	beq.n	167c <usart_init+0x278>
    167a:	e751      	b.n	1520 <usart_init+0x11c>
    167c:	6ab3      	ldr	r3, [r6, #40]	; 0x28
    167e:	001f      	movs	r7, r3
    1680:	b2c0      	uxtb	r0, r0
    1682:	4b40      	ldr	r3, [pc, #256]	; (1784 <usart_init+0x380>)
    1684:	4798      	blx	r3
    1686:	0001      	movs	r1, r0
    1688:	220e      	movs	r2, #14
    168a:	ab06      	add	r3, sp, #24
    168c:	469c      	mov	ip, r3
    168e:	4462      	add	r2, ip
    1690:	0038      	movs	r0, r7
    1692:	4b3d      	ldr	r3, [pc, #244]	; (1788 <usart_init+0x384>)
    1694:	4798      	blx	r3
    1696:	0003      	movs	r3, r0
    1698:	e013      	b.n	16c2 <usart_init+0x2be>
    169a:	2308      	movs	r3, #8
    169c:	9306      	str	r3, [sp, #24]
    169e:	2300      	movs	r3, #0
    16a0:	9307      	str	r3, [sp, #28]
    16a2:	232f      	movs	r3, #47	; 0x2f
    16a4:	5cf3      	ldrb	r3, [r6, r3]
    16a6:	2b00      	cmp	r3, #0
    16a8:	d00f      	beq.n	16ca <usart_init+0x2c6>
    16aa:	9b06      	ldr	r3, [sp, #24]
    16ac:	9300      	str	r3, [sp, #0]
    16ae:	9b07      	ldr	r3, [sp, #28]
    16b0:	220e      	movs	r2, #14
    16b2:	a906      	add	r1, sp, #24
    16b4:	468c      	mov	ip, r1
    16b6:	4462      	add	r2, ip
    16b8:	6b31      	ldr	r1, [r6, #48]	; 0x30
    16ba:	6ab0      	ldr	r0, [r6, #40]	; 0x28
    16bc:	4f33      	ldr	r7, [pc, #204]	; (178c <usart_init+0x388>)
    16be:	47b8      	blx	r7
    16c0:	0003      	movs	r3, r0
    16c2:	2b00      	cmp	r3, #0
    16c4:	d000      	beq.n	16c8 <usart_init+0x2c4>
    16c6:	e6b3      	b.n	1430 <usart_init+0x2c>
    16c8:	e72a      	b.n	1520 <usart_init+0x11c>
    16ca:	6ab3      	ldr	r3, [r6, #40]	; 0x28
    16cc:	001f      	movs	r7, r3
    16ce:	b2c0      	uxtb	r0, r0
    16d0:	4b2c      	ldr	r3, [pc, #176]	; (1784 <usart_init+0x380>)
    16d2:	4798      	blx	r3
    16d4:	0001      	movs	r1, r0
    16d6:	9b06      	ldr	r3, [sp, #24]
    16d8:	9300      	str	r3, [sp, #0]
    16da:	9b07      	ldr	r3, [sp, #28]
    16dc:	220e      	movs	r2, #14
    16de:	a806      	add	r0, sp, #24
    16e0:	4684      	mov	ip, r0
    16e2:	4462      	add	r2, ip
    16e4:	0038      	movs	r0, r7
    16e6:	4f29      	ldr	r7, [pc, #164]	; (178c <usart_init+0x388>)
    16e8:	47b8      	blx	r7
    16ea:	0003      	movs	r3, r0
    16ec:	e7e9      	b.n	16c2 <usart_init+0x2be>
    16ee:	7ef3      	ldrb	r3, [r6, #27]
    16f0:	2b00      	cmp	r3, #0
    16f2:	d100      	bne.n	16f6 <usart_init+0x2f2>
    16f4:	e754      	b.n	15a0 <usart_init+0x19c>
    16f6:	2380      	movs	r3, #128	; 0x80
    16f8:	04db      	lsls	r3, r3, #19
    16fa:	431a      	orrs	r2, r3
    16fc:	e750      	b.n	15a0 <usart_init+0x19c>
    16fe:	0020      	movs	r0, r4
    1700:	4b23      	ldr	r3, [pc, #140]	; (1790 <usart_init+0x38c>)
    1702:	4798      	blx	r3
    1704:	e007      	b.n	1716 <usart_init+0x312>
    1706:	3701      	adds	r7, #1
    1708:	2f04      	cmp	r7, #4
    170a:	d00d      	beq.n	1728 <usart_init+0x324>
    170c:	b2f9      	uxtb	r1, r7
    170e:	00bb      	lsls	r3, r7, #2
    1710:	5998      	ldr	r0, [r3, r6]
    1712:	2800      	cmp	r0, #0
    1714:	d0f3      	beq.n	16fe <usart_init+0x2fa>
    1716:	1c43      	adds	r3, r0, #1
    1718:	d0f5      	beq.n	1706 <usart_init+0x302>
    171a:	a90e      	add	r1, sp, #56	; 0x38
    171c:	7008      	strb	r0, [r1, #0]
    171e:	0c00      	lsrs	r0, r0, #16
    1720:	b2c0      	uxtb	r0, r0
    1722:	4b1c      	ldr	r3, [pc, #112]	; (1794 <usart_init+0x390>)
    1724:	4798      	blx	r3
    1726:	e7ee      	b.n	1706 <usart_init+0x302>
    1728:	2300      	movs	r3, #0
    172a:	60eb      	str	r3, [r5, #12]
    172c:	612b      	str	r3, [r5, #16]
    172e:	616b      	str	r3, [r5, #20]
    1730:	61ab      	str	r3, [r5, #24]
    1732:	61eb      	str	r3, [r5, #28]
    1734:	622b      	str	r3, [r5, #32]
    1736:	62ab      	str	r3, [r5, #40]	; 0x28
    1738:	626b      	str	r3, [r5, #36]	; 0x24
    173a:	2200      	movs	r2, #0
    173c:	85eb      	strh	r3, [r5, #46]	; 0x2e
    173e:	85ab      	strh	r3, [r5, #44]	; 0x2c
    1740:	3330      	adds	r3, #48	; 0x30
    1742:	54ea      	strb	r2, [r5, r3]
    1744:	3301      	adds	r3, #1
    1746:	54ea      	strb	r2, [r5, r3]
    1748:	3301      	adds	r3, #1
    174a:	54ea      	strb	r2, [r5, r3]
    174c:	3301      	adds	r3, #1
    174e:	54ea      	strb	r2, [r5, r3]
    1750:	6828      	ldr	r0, [r5, #0]
    1752:	4b05      	ldr	r3, [pc, #20]	; (1768 <usart_init+0x364>)
    1754:	4798      	blx	r3
    1756:	0004      	movs	r4, r0
    1758:	490f      	ldr	r1, [pc, #60]	; (1798 <usart_init+0x394>)
    175a:	4b10      	ldr	r3, [pc, #64]	; (179c <usart_init+0x398>)
    175c:	4798      	blx	r3
    175e:	00a4      	lsls	r4, r4, #2
    1760:	4b0f      	ldr	r3, [pc, #60]	; (17a0 <usart_init+0x39c>)
    1762:	50e5      	str	r5, [r4, r3]
    1764:	2300      	movs	r3, #0
    1766:	e663      	b.n	1430 <usart_init+0x2c>
    1768:	00000d95 	.word	0x00000d95
    176c:	40000800 	.word	0x40000800
    1770:	000029b9 	.word	0x000029b9
    1774:	00002949 	.word	0x00002949
    1778:	00000bcd 	.word	0x00000bcd
    177c:	f0ffffff 	.word	0xf0ffffff
    1780:	41002000 	.word	0x41002000
    1784:	000029dd 	.word	0x000029dd
    1788:	00000b0f 	.word	0x00000b0f
    178c:	00000b39 	.word	0x00000b39
    1790:	00000c19 	.word	0x00000c19
    1794:	00002ab5 	.word	0x00002ab5
    1798:	000018a1 	.word	0x000018a1
    179c:	00001a41 	.word	0x00001a41
    17a0:	200018d4 	.word	0x200018d4
    17a4:	2310      	movs	r3, #16
    17a6:	9306      	str	r3, [sp, #24]
    17a8:	2300      	movs	r3, #0
    17aa:	9307      	str	r3, [sp, #28]
    17ac:	e6a3      	b.n	14f6 <usart_init+0xf2>
    17ae:	46c0      	nop			; (mov r8, r8)

000017b0 <_usart_write_buffer>:
    17b0:	b5f8      	push	{r3, r4, r5, r6, r7, lr}
    17b2:	0006      	movs	r6, r0
    17b4:	000c      	movs	r4, r1
    17b6:	0015      	movs	r5, r2
    17b8:	6807      	ldr	r7, [r0, #0]
    17ba:	4b0a      	ldr	r3, [pc, #40]	; (17e4 <_usart_write_buffer+0x34>)
    17bc:	4798      	blx	r3
    17be:	8df3      	ldrh	r3, [r6, #46]	; 0x2e
    17c0:	b29b      	uxth	r3, r3
    17c2:	2b00      	cmp	r3, #0
    17c4:	d003      	beq.n	17ce <_usart_write_buffer+0x1e>
    17c6:	4b08      	ldr	r3, [pc, #32]	; (17e8 <_usart_write_buffer+0x38>)
    17c8:	4798      	blx	r3
    17ca:	2005      	movs	r0, #5
    17cc:	bdf8      	pop	{r3, r4, r5, r6, r7, pc}
    17ce:	85f5      	strh	r5, [r6, #46]	; 0x2e
    17d0:	4b05      	ldr	r3, [pc, #20]	; (17e8 <_usart_write_buffer+0x38>)
    17d2:	4798      	blx	r3
    17d4:	62b4      	str	r4, [r6, #40]	; 0x28
    17d6:	2205      	movs	r2, #5
    17d8:	2333      	movs	r3, #51	; 0x33
    17da:	54f2      	strb	r2, [r6, r3]
    17dc:	3b32      	subs	r3, #50	; 0x32
    17de:	75bb      	strb	r3, [r7, #22]
    17e0:	2000      	movs	r0, #0
    17e2:	e7f3      	b.n	17cc <_usart_write_buffer+0x1c>
    17e4:	000025d9 	.word	0x000025d9
    17e8:	00002619 	.word	0x00002619

000017ec <_usart_read_buffer>:
    17ec:	b5f8      	push	{r3, r4, r5, r6, r7, lr}
    17ee:	0004      	movs	r4, r0
    17f0:	000d      	movs	r5, r1
    17f2:	0016      	movs	r6, r2
    17f4:	6807      	ldr	r7, [r0, #0]
    17f6:	4b0f      	ldr	r3, [pc, #60]	; (1834 <_usart_read_buffer+0x48>)
    17f8:	4798      	blx	r3
    17fa:	8da3      	ldrh	r3, [r4, #44]	; 0x2c
    17fc:	b29b      	uxth	r3, r3
    17fe:	2b00      	cmp	r3, #0
    1800:	d003      	beq.n	180a <_usart_read_buffer+0x1e>
    1802:	4b0d      	ldr	r3, [pc, #52]	; (1838 <_usart_read_buffer+0x4c>)
    1804:	4798      	blx	r3
    1806:	2005      	movs	r0, #5
    1808:	bdf8      	pop	{r3, r4, r5, r6, r7, pc}
    180a:	85a6      	strh	r6, [r4, #44]	; 0x2c
    180c:	4b0a      	ldr	r3, [pc, #40]	; (1838 <_usart_read_buffer+0x4c>)
    180e:	4798      	blx	r3
    1810:	6265      	str	r5, [r4, #36]	; 0x24
    1812:	2205      	movs	r2, #5
    1814:	2332      	movs	r3, #50	; 0x32
    1816:	54e2      	strb	r2, [r4, r3]
    1818:	3b2e      	subs	r3, #46	; 0x2e
    181a:	75bb      	strb	r3, [r7, #22]
    181c:	7a23      	ldrb	r3, [r4, #8]
    181e:	2b00      	cmp	r3, #0
    1820:	d001      	beq.n	1826 <_usart_read_buffer+0x3a>
    1822:	2320      	movs	r3, #32
    1824:	75bb      	strb	r3, [r7, #22]
    1826:	7a63      	ldrb	r3, [r4, #9]
    1828:	2000      	movs	r0, #0
    182a:	2b00      	cmp	r3, #0
    182c:	d0ec      	beq.n	1808 <_usart_read_buffer+0x1c>
    182e:	2308      	movs	r3, #8
    1830:	75bb      	strb	r3, [r7, #22]
    1832:	e7e9      	b.n	1808 <_usart_read_buffer+0x1c>
    1834:	000025d9 	.word	0x000025d9
    1838:	00002619 	.word	0x00002619

0000183c <usart_register_callback>:
    183c:	1c93      	adds	r3, r2, #2
    183e:	009b      	lsls	r3, r3, #2
    1840:	18c3      	adds	r3, r0, r3
    1842:	6059      	str	r1, [r3, #4]
    1844:	2130      	movs	r1, #48	; 0x30
    1846:	2301      	movs	r3, #1
    1848:	4093      	lsls	r3, r2
    184a:	001a      	movs	r2, r3
    184c:	5c43      	ldrb	r3, [r0, r1]
    184e:	4313      	orrs	r3, r2
    1850:	5443      	strb	r3, [r0, r1]
    1852:	4770      	bx	lr

00001854 <usart_read_job>:
    1854:	b510      	push	{r4, lr}
    1856:	2201      	movs	r2, #1
    1858:	4b01      	ldr	r3, [pc, #4]	; (1860 <usart_read_job+0xc>)
    185a:	4798      	blx	r3
    185c:	bd10      	pop	{r4, pc}
    185e:	46c0      	nop			; (mov r8, r8)
    1860:	000017ed 	.word	0x000017ed

00001864 <usart_write_buffer_job>:
    1864:	b510      	push	{r4, lr}
    1866:	2317      	movs	r3, #23
    1868:	2a00      	cmp	r2, #0
    186a:	d101      	bne.n	1870 <usart_write_buffer_job+0xc>
    186c:	0018      	movs	r0, r3
    186e:	bd10      	pop	{r4, pc}
    1870:	79c4      	ldrb	r4, [r0, #7]
    1872:	3305      	adds	r3, #5
    1874:	2c00      	cmp	r4, #0
    1876:	d0f9      	beq.n	186c <usart_write_buffer_job+0x8>
    1878:	4b01      	ldr	r3, [pc, #4]	; (1880 <usart_write_buffer_job+0x1c>)
    187a:	4798      	blx	r3
    187c:	0003      	movs	r3, r0
    187e:	e7f5      	b.n	186c <usart_write_buffer_job+0x8>
    1880:	000017b1 	.word	0x000017b1

00001884 <usart_get_job_status>:
    1884:	2900      	cmp	r1, #0
    1886:	d003      	beq.n	1890 <usart_get_job_status+0xc>
    1888:	2901      	cmp	r1, #1
    188a:	d005      	beq.n	1898 <usart_get_job_status+0x14>
    188c:	2017      	movs	r0, #23
    188e:	e002      	b.n	1896 <usart_get_job_status+0x12>
    1890:	2332      	movs	r3, #50	; 0x32
    1892:	5cc0      	ldrb	r0, [r0, r3]
    1894:	b2c0      	uxtb	r0, r0
    1896:	4770      	bx	lr
    1898:	2333      	movs	r3, #51	; 0x33
    189a:	5cc0      	ldrb	r0, [r0, r3]
    189c:	b2c0      	uxtb	r0, r0
    189e:	e7fa      	b.n	1896 <usart_get_job_status+0x12>

000018a0 <_usart_interrupt_handler>:
    18a0:	b5f8      	push	{r3, r4, r5, r6, r7, lr}
    18a2:	0080      	lsls	r0, r0, #2
    18a4:	4b64      	ldr	r3, [pc, #400]	; (1a38 <_usart_interrupt_handler+0x198>)
    18a6:	58c5      	ldr	r5, [r0, r3]
    18a8:	682c      	ldr	r4, [r5, #0]
    18aa:	69e3      	ldr	r3, [r4, #28]
    18ac:	2b00      	cmp	r3, #0
    18ae:	d1fc      	bne.n	18aa <_usart_interrupt_handler+0xa>
    18b0:	7e23      	ldrb	r3, [r4, #24]
    18b2:	7da6      	ldrb	r6, [r4, #22]
    18b4:	401e      	ands	r6, r3
    18b6:	2330      	movs	r3, #48	; 0x30
    18b8:	5ceb      	ldrb	r3, [r5, r3]
    18ba:	2231      	movs	r2, #49	; 0x31
    18bc:	5caf      	ldrb	r7, [r5, r2]
    18be:	401f      	ands	r7, r3
    18c0:	07f3      	lsls	r3, r6, #31
    18c2:	d522      	bpl.n	190a <_usart_interrupt_handler+0x6a>
    18c4:	8deb      	ldrh	r3, [r5, #46]	; 0x2e
    18c6:	b29b      	uxth	r3, r3
    18c8:	2b00      	cmp	r3, #0
    18ca:	d01c      	beq.n	1906 <_usart_interrupt_handler+0x66>
    18cc:	6aaa      	ldr	r2, [r5, #40]	; 0x28
    18ce:	7813      	ldrb	r3, [r2, #0]
    18d0:	b2db      	uxtb	r3, r3
    18d2:	1c51      	adds	r1, r2, #1
    18d4:	62a9      	str	r1, [r5, #40]	; 0x28
    18d6:	7969      	ldrb	r1, [r5, #5]
    18d8:	2901      	cmp	r1, #1
    18da:	d00e      	beq.n	18fa <_usart_interrupt_handler+0x5a>
    18dc:	b29b      	uxth	r3, r3
    18de:	05db      	lsls	r3, r3, #23
    18e0:	0ddb      	lsrs	r3, r3, #23
    18e2:	8523      	strh	r3, [r4, #40]	; 0x28
    18e4:	8deb      	ldrh	r3, [r5, #46]	; 0x2e
    18e6:	3b01      	subs	r3, #1
    18e8:	b29b      	uxth	r3, r3
    18ea:	85eb      	strh	r3, [r5, #46]	; 0x2e
    18ec:	2b00      	cmp	r3, #0
    18ee:	d10c      	bne.n	190a <_usart_interrupt_handler+0x6a>
    18f0:	3301      	adds	r3, #1
    18f2:	7523      	strb	r3, [r4, #20]
    18f4:	3301      	adds	r3, #1
    18f6:	75a3      	strb	r3, [r4, #22]
    18f8:	e007      	b.n	190a <_usart_interrupt_handler+0x6a>
    18fa:	7851      	ldrb	r1, [r2, #1]
    18fc:	0209      	lsls	r1, r1, #8
    18fe:	430b      	orrs	r3, r1
    1900:	3202      	adds	r2, #2
    1902:	62aa      	str	r2, [r5, #40]	; 0x28
    1904:	e7eb      	b.n	18de <_usart_interrupt_handler+0x3e>
    1906:	2301      	movs	r3, #1
    1908:	7523      	strb	r3, [r4, #20]
    190a:	07b3      	lsls	r3, r6, #30
    190c:	d506      	bpl.n	191c <_usart_interrupt_handler+0x7c>
    190e:	2302      	movs	r3, #2
    1910:	7523      	strb	r3, [r4, #20]
    1912:	2200      	movs	r2, #0
    1914:	3331      	adds	r3, #49	; 0x31
    1916:	54ea      	strb	r2, [r5, r3]
    1918:	07fb      	lsls	r3, r7, #31
    191a:	d41e      	bmi.n	195a <_usart_interrupt_handler+0xba>
    191c:	0773      	lsls	r3, r6, #29
    191e:	d568      	bpl.n	19f2 <_usart_interrupt_handler+0x152>
    1920:	8dab      	ldrh	r3, [r5, #44]	; 0x2c
    1922:	b29b      	uxth	r3, r3
    1924:	2b00      	cmp	r3, #0
    1926:	d062      	beq.n	19ee <_usart_interrupt_handler+0x14e>
    1928:	8b63      	ldrh	r3, [r4, #26]
    192a:	b2db      	uxtb	r3, r3
    192c:	071a      	lsls	r2, r3, #28
    192e:	d418      	bmi.n	1962 <_usart_interrupt_handler+0xc2>
    1930:	227f      	movs	r2, #127	; 0x7f
    1932:	4013      	ands	r3, r2
    1934:	065a      	lsls	r2, r3, #25
    1936:	d501      	bpl.n	193c <_usart_interrupt_handler+0x9c>
    1938:	2240      	movs	r2, #64	; 0x40
    193a:	4393      	bics	r3, r2
    193c:	2b00      	cmp	r3, #0
    193e:	d033      	beq.n	19a8 <_usart_interrupt_handler+0x108>
    1940:	079a      	lsls	r2, r3, #30
    1942:	d511      	bpl.n	1968 <_usart_interrupt_handler+0xc8>
    1944:	221a      	movs	r2, #26
    1946:	2332      	movs	r3, #50	; 0x32
    1948:	54ea      	strb	r2, [r5, r3]
    194a:	3b30      	subs	r3, #48	; 0x30
    194c:	8363      	strh	r3, [r4, #26]
    194e:	077b      	lsls	r3, r7, #29
    1950:	d54f      	bpl.n	19f2 <_usart_interrupt_handler+0x152>
    1952:	0028      	movs	r0, r5
    1954:	696b      	ldr	r3, [r5, #20]
    1956:	4798      	blx	r3
    1958:	e04b      	b.n	19f2 <_usart_interrupt_handler+0x152>
    195a:	0028      	movs	r0, r5
    195c:	68eb      	ldr	r3, [r5, #12]
    195e:	4798      	blx	r3
    1960:	e7dc      	b.n	191c <_usart_interrupt_handler+0x7c>
    1962:	2277      	movs	r2, #119	; 0x77
    1964:	4013      	ands	r3, r2
    1966:	e7e5      	b.n	1934 <_usart_interrupt_handler+0x94>
    1968:	075a      	lsls	r2, r3, #29
    196a:	d505      	bpl.n	1978 <_usart_interrupt_handler+0xd8>
    196c:	221e      	movs	r2, #30
    196e:	2332      	movs	r3, #50	; 0x32
    1970:	54ea      	strb	r2, [r5, r3]
    1972:	3b2e      	subs	r3, #46	; 0x2e
    1974:	8363      	strh	r3, [r4, #26]
    1976:	e7ea      	b.n	194e <_usart_interrupt_handler+0xae>
    1978:	07da      	lsls	r2, r3, #31
    197a:	d505      	bpl.n	1988 <_usart_interrupt_handler+0xe8>
    197c:	2213      	movs	r2, #19
    197e:	2332      	movs	r3, #50	; 0x32
    1980:	54ea      	strb	r2, [r5, r3]
    1982:	3b31      	subs	r3, #49	; 0x31
    1984:	8363      	strh	r3, [r4, #26]
    1986:	e7e2      	b.n	194e <_usart_interrupt_handler+0xae>
    1988:	06da      	lsls	r2, r3, #27
    198a:	d505      	bpl.n	1998 <_usart_interrupt_handler+0xf8>
    198c:	2242      	movs	r2, #66	; 0x42
    198e:	2332      	movs	r3, #50	; 0x32
    1990:	54ea      	strb	r2, [r5, r3]
    1992:	3b22      	subs	r3, #34	; 0x22
    1994:	8363      	strh	r3, [r4, #26]
    1996:	e7da      	b.n	194e <_usart_interrupt_handler+0xae>
    1998:	069b      	lsls	r3, r3, #26
    199a:	d5d8      	bpl.n	194e <_usart_interrupt_handler+0xae>
    199c:	2241      	movs	r2, #65	; 0x41
    199e:	2332      	movs	r3, #50	; 0x32
    19a0:	54ea      	strb	r2, [r5, r3]
    19a2:	3b12      	subs	r3, #18
    19a4:	8363      	strh	r3, [r4, #26]
    19a6:	e7d2      	b.n	194e <_usart_interrupt_handler+0xae>
    19a8:	8d23      	ldrh	r3, [r4, #40]	; 0x28
    19aa:	05db      	lsls	r3, r3, #23
    19ac:	0ddb      	lsrs	r3, r3, #23
    19ae:	b2da      	uxtb	r2, r3
    19b0:	6a69      	ldr	r1, [r5, #36]	; 0x24
    19b2:	700a      	strb	r2, [r1, #0]
    19b4:	6a6a      	ldr	r2, [r5, #36]	; 0x24
    19b6:	1c51      	adds	r1, r2, #1
    19b8:	6269      	str	r1, [r5, #36]	; 0x24
    19ba:	7969      	ldrb	r1, [r5, #5]
    19bc:	2901      	cmp	r1, #1
    19be:	d010      	beq.n	19e2 <_usart_interrupt_handler+0x142>
    19c0:	8dab      	ldrh	r3, [r5, #44]	; 0x2c
    19c2:	3b01      	subs	r3, #1
    19c4:	b29b      	uxth	r3, r3
    19c6:	85ab      	strh	r3, [r5, #44]	; 0x2c
    19c8:	2b00      	cmp	r3, #0
    19ca:	d112      	bne.n	19f2 <_usart_interrupt_handler+0x152>
    19cc:	3304      	adds	r3, #4
    19ce:	7523      	strb	r3, [r4, #20]
    19d0:	2200      	movs	r2, #0
    19d2:	332e      	adds	r3, #46	; 0x2e
    19d4:	54ea      	strb	r2, [r5, r3]
    19d6:	07bb      	lsls	r3, r7, #30
    19d8:	d50b      	bpl.n	19f2 <_usart_interrupt_handler+0x152>
    19da:	0028      	movs	r0, r5
    19dc:	692b      	ldr	r3, [r5, #16]
    19de:	4798      	blx	r3
    19e0:	e007      	b.n	19f2 <_usart_interrupt_handler+0x152>
    19e2:	0a1b      	lsrs	r3, r3, #8
    19e4:	7053      	strb	r3, [r2, #1]
    19e6:	6a6b      	ldr	r3, [r5, #36]	; 0x24
    19e8:	3301      	adds	r3, #1
    19ea:	626b      	str	r3, [r5, #36]	; 0x24
    19ec:	e7e8      	b.n	19c0 <_usart_interrupt_handler+0x120>
    19ee:	2304      	movs	r3, #4
    19f0:	7523      	strb	r3, [r4, #20]
    19f2:	06f3      	lsls	r3, r6, #27
    19f4:	d504      	bpl.n	1a00 <_usart_interrupt_handler+0x160>
    19f6:	2310      	movs	r3, #16
    19f8:	7523      	strb	r3, [r4, #20]
    19fa:	7623      	strb	r3, [r4, #24]
    19fc:	06fb      	lsls	r3, r7, #27
    19fe:	d40e      	bmi.n	1a1e <_usart_interrupt_handler+0x17e>
    1a00:	06b3      	lsls	r3, r6, #26
    1a02:	d504      	bpl.n	1a0e <_usart_interrupt_handler+0x16e>
    1a04:	2320      	movs	r3, #32
    1a06:	7523      	strb	r3, [r4, #20]
    1a08:	7623      	strb	r3, [r4, #24]
    1a0a:	073b      	lsls	r3, r7, #28
    1a0c:	d40b      	bmi.n	1a26 <_usart_interrupt_handler+0x186>
    1a0e:	0733      	lsls	r3, r6, #28
    1a10:	d504      	bpl.n	1a1c <_usart_interrupt_handler+0x17c>
    1a12:	2308      	movs	r3, #8
    1a14:	7523      	strb	r3, [r4, #20]
    1a16:	7623      	strb	r3, [r4, #24]
    1a18:	06bb      	lsls	r3, r7, #26
    1a1a:	d408      	bmi.n	1a2e <_usart_interrupt_handler+0x18e>
    1a1c:	bdf8      	pop	{r3, r4, r5, r6, r7, pc}
    1a1e:	0028      	movs	r0, r5
    1a20:	69eb      	ldr	r3, [r5, #28]
    1a22:	4798      	blx	r3
    1a24:	e7ec      	b.n	1a00 <_usart_interrupt_handler+0x160>
    1a26:	0028      	movs	r0, r5
    1a28:	69ab      	ldr	r3, [r5, #24]
    1a2a:	4798      	blx	r3
    1a2c:	e7ef      	b.n	1a0e <_usart_interrupt_handler+0x16e>
    1a2e:	6a2b      	ldr	r3, [r5, #32]
    1a30:	0028      	movs	r0, r5
    1a32:	4798      	blx	r3
    1a34:	e7f2      	b.n	1a1c <_usart_interrupt_handler+0x17c>
    1a36:	46c0      	nop			; (mov r8, r8)
    1a38:	200018d4 	.word	0x200018d4

00001a3c <_sercom_default_handler>:
    1a3c:	4770      	bx	lr
	...

00001a40 <_sercom_set_handler>:
    1a40:	b5f0      	push	{r4, r5, r6, r7, lr}
    1a42:	4b0a      	ldr	r3, [pc, #40]	; (1a6c <_sercom_set_handler+0x2c>)
    1a44:	781b      	ldrb	r3, [r3, #0]
    1a46:	2b00      	cmp	r3, #0
    1a48:	d10c      	bne.n	1a64 <_sercom_set_handler+0x24>
    1a4a:	4f09      	ldr	r7, [pc, #36]	; (1a70 <_sercom_set_handler+0x30>)
    1a4c:	4e09      	ldr	r6, [pc, #36]	; (1a74 <_sercom_set_handler+0x34>)
    1a4e:	4d0a      	ldr	r5, [pc, #40]	; (1a78 <_sercom_set_handler+0x38>)
    1a50:	2400      	movs	r4, #0
    1a52:	51de      	str	r6, [r3, r7]
    1a54:	195a      	adds	r2, r3, r5
    1a56:	6014      	str	r4, [r2, #0]
    1a58:	3304      	adds	r3, #4
    1a5a:	2b18      	cmp	r3, #24
    1a5c:	d1f9      	bne.n	1a52 <_sercom_set_handler+0x12>
    1a5e:	2201      	movs	r2, #1
    1a60:	4b02      	ldr	r3, [pc, #8]	; (1a6c <_sercom_set_handler+0x2c>)
    1a62:	701a      	strb	r2, [r3, #0]
    1a64:	0080      	lsls	r0, r0, #2
    1a66:	4b02      	ldr	r3, [pc, #8]	; (1a70 <_sercom_set_handler+0x30>)
    1a68:	50c1      	str	r1, [r0, r3]
    1a6a:	bdf0      	pop	{r4, r5, r6, r7, pc}
    1a6c:	200000a6 	.word	0x200000a6
    1a70:	200000a8 	.word	0x200000a8
    1a74:	00001a3d 	.word	0x00001a3d
    1a78:	200018d4 	.word	0x200018d4

00001a7c <_sercom_get_interrupt_vector>:
    1a7c:	b500      	push	{lr}
    1a7e:	b083      	sub	sp, #12
    1a80:	2309      	movs	r3, #9
    1a82:	466a      	mov	r2, sp
    1a84:	7013      	strb	r3, [r2, #0]
    1a86:	3301      	adds	r3, #1
    1a88:	7053      	strb	r3, [r2, #1]
    1a8a:	3301      	adds	r3, #1
    1a8c:	7093      	strb	r3, [r2, #2]
    1a8e:	3301      	adds	r3, #1
    1a90:	70d3      	strb	r3, [r2, #3]
    1a92:	3301      	adds	r3, #1
    1a94:	7113      	strb	r3, [r2, #4]
    1a96:	3301      	adds	r3, #1
    1a98:	7153      	strb	r3, [r2, #5]
    1a9a:	4b03      	ldr	r3, [pc, #12]	; (1aa8 <_sercom_get_interrupt_vector+0x2c>)
    1a9c:	4798      	blx	r3
    1a9e:	466b      	mov	r3, sp
    1aa0:	5618      	ldrsb	r0, [r3, r0]
    1aa2:	b003      	add	sp, #12
    1aa4:	bd00      	pop	{pc}
    1aa6:	46c0      	nop			; (mov r8, r8)
    1aa8:	00000d95 	.word	0x00000d95

00001aac <SERCOM0_Handler>:
    1aac:	b510      	push	{r4, lr}
    1aae:	4b02      	ldr	r3, [pc, #8]	; (1ab8 <SERCOM0_Handler+0xc>)
    1ab0:	681b      	ldr	r3, [r3, #0]
    1ab2:	2000      	movs	r0, #0
    1ab4:	4798      	blx	r3
    1ab6:	bd10      	pop	{r4, pc}
    1ab8:	200000a8 	.word	0x200000a8

00001abc <SERCOM1_Handler>:
    1abc:	b510      	push	{r4, lr}
    1abe:	4b02      	ldr	r3, [pc, #8]	; (1ac8 <SERCOM1_Handler+0xc>)
    1ac0:	685b      	ldr	r3, [r3, #4]
    1ac2:	2001      	movs	r0, #1
    1ac4:	4798      	blx	r3
    1ac6:	bd10      	pop	{r4, pc}
    1ac8:	200000a8 	.word	0x200000a8

00001acc <SERCOM2_Handler>:
    1acc:	b510      	push	{r4, lr}
    1ace:	4b02      	ldr	r3, [pc, #8]	; (1ad8 <SERCOM2_Handler+0xc>)
    1ad0:	689b      	ldr	r3, [r3, #8]
    1ad2:	2002      	movs	r0, #2
    1ad4:	4798      	blx	r3
    1ad6:	bd10      	pop	{r4, pc}
    1ad8:	200000a8 	.word	0x200000a8

00001adc <SERCOM3_Handler>:
    1adc:	b510      	push	{r4, lr}
    1ade:	4b02      	ldr	r3, [pc, #8]	; (1ae8 <SERCOM3_Handler+0xc>)
    1ae0:	68db      	ldr	r3, [r3, #12]
    1ae2:	2003      	movs	r0, #3
    1ae4:	4798      	blx	r3
    1ae6:	bd10      	pop	{r4, pc}
    1ae8:	200000a8 	.word	0x200000a8

00001aec <SERCOM4_Handler>:
    1aec:	b510      	push	{r4, lr}
    1aee:	4b02      	ldr	r3, [pc, #8]	; (1af8 <SERCOM4_Handler+0xc>)
    1af0:	691b      	ldr	r3, [r3, #16]
    1af2:	2004      	movs	r0, #4
    1af4:	4798      	blx	r3
    1af6:	bd10      	pop	{r4, pc}
    1af8:	200000a8 	.word	0x200000a8

00001afc <SERCOM5_Handler>:
    1afc:	b510      	push	{r4, lr}
    1afe:	4b02      	ldr	r3, [pc, #8]	; (1b08 <SERCOM5_Handler+0xc>)
    1b00:	695b      	ldr	r3, [r3, #20]
    1b02:	2005      	movs	r0, #5
    1b04:	4798      	blx	r3
    1b06:	bd10      	pop	{r4, pc}
    1b08:	200000a8 	.word	0x200000a8

00001b0c <_ac_interrupt_handler>:
    1b0c:	b570      	push	{r4, r5, r6, lr}
    1b0e:	0080      	lsls	r0, r0, #2
    1b10:	4b1f      	ldr	r3, [pc, #124]	; (1b90 <_ac_interrupt_handler+0x84>)
    1b12:	58c4      	ldr	r4, [r0, r3]
    1b14:	6823      	ldr	r3, [r4, #0]
    1b16:	799d      	ldrb	r5, [r3, #6]
    1b18:	7f22      	ldrb	r2, [r4, #28]
    1b1a:	7f63      	ldrb	r3, [r4, #29]
    1b1c:	4013      	ands	r3, r2
    1b1e:	401d      	ands	r5, r3
    1b20:	07eb      	lsls	r3, r5, #31
    1b22:	d40a      	bmi.n	1b3a <_ac_interrupt_handler+0x2e>
    1b24:	07ab      	lsls	r3, r5, #30
    1b26:	d40f      	bmi.n	1b48 <_ac_interrupt_handler+0x3c>
    1b28:	06eb      	lsls	r3, r5, #27
    1b2a:	d414      	bmi.n	1b56 <_ac_interrupt_handler+0x4a>
    1b2c:	076b      	lsls	r3, r5, #29
    1b2e:	d419      	bmi.n	1b64 <_ac_interrupt_handler+0x58>
    1b30:	072b      	lsls	r3, r5, #28
    1b32:	d41e      	bmi.n	1b72 <_ac_interrupt_handler+0x66>
    1b34:	06ab      	lsls	r3, r5, #26
    1b36:	d423      	bmi.n	1b80 <_ac_interrupt_handler+0x74>
    1b38:	bd70      	pop	{r4, r5, r6, pc}
    1b3a:	0020      	movs	r0, r4
    1b3c:	6863      	ldr	r3, [r4, #4]
    1b3e:	4798      	blx	r3
    1b40:	2301      	movs	r3, #1
    1b42:	6822      	ldr	r2, [r4, #0]
    1b44:	7193      	strb	r3, [r2, #6]
    1b46:	e7ed      	b.n	1b24 <_ac_interrupt_handler+0x18>
    1b48:	0020      	movs	r0, r4
    1b4a:	68a3      	ldr	r3, [r4, #8]
    1b4c:	4798      	blx	r3
    1b4e:	2302      	movs	r3, #2
    1b50:	6822      	ldr	r2, [r4, #0]
    1b52:	7193      	strb	r3, [r2, #6]
    1b54:	e7e8      	b.n	1b28 <_ac_interrupt_handler+0x1c>
    1b56:	0020      	movs	r0, r4
    1b58:	6963      	ldr	r3, [r4, #20]
    1b5a:	4798      	blx	r3
    1b5c:	2310      	movs	r3, #16
    1b5e:	6822      	ldr	r2, [r4, #0]
    1b60:	7193      	strb	r3, [r2, #6]
    1b62:	e7e3      	b.n	1b2c <_ac_interrupt_handler+0x20>
    1b64:	0020      	movs	r0, r4
    1b66:	68e3      	ldr	r3, [r4, #12]
    1b68:	4798      	blx	r3
    1b6a:	2304      	movs	r3, #4
    1b6c:	6822      	ldr	r2, [r4, #0]
    1b6e:	7193      	strb	r3, [r2, #6]
    1b70:	e7de      	b.n	1b30 <_ac_interrupt_handler+0x24>
    1b72:	0020      	movs	r0, r4
    1b74:	6923      	ldr	r3, [r4, #16]
    1b76:	4798      	blx	r3
    1b78:	2308      	movs	r3, #8
    1b7a:	6822      	ldr	r2, [r4, #0]
    1b7c:	7193      	strb	r3, [r2, #6]
    1b7e:	e7d9      	b.n	1b34 <_ac_interrupt_handler+0x28>
    1b80:	0020      	movs	r0, r4
    1b82:	69a3      	ldr	r3, [r4, #24]
    1b84:	4798      	blx	r3
    1b86:	6823      	ldr	r3, [r4, #0]
    1b88:	2220      	movs	r2, #32
    1b8a:	719a      	strb	r2, [r3, #6]
    1b8c:	e7d4      	b.n	1b38 <_ac_interrupt_handler+0x2c>
    1b8e:	46c0      	nop			; (mov r8, r8)
    1b90:	200018ec 	.word	0x200018ec

00001b94 <AC_Handler>:
    1b94:	b510      	push	{r4, lr}
    1b96:	2000      	movs	r0, #0
    1b98:	4b01      	ldr	r3, [pc, #4]	; (1ba0 <AC_Handler+0xc>)
    1b9a:	4798      	blx	r3
    1b9c:	bd10      	pop	{r4, pc}
    1b9e:	46c0      	nop			; (mov r8, r8)
    1ba0:	00001b0d 	.word	0x00001b0d

00001ba4 <port_pin_set_config>:
    1ba4:	b500      	push	{lr}
    1ba6:	b083      	sub	sp, #12
    1ba8:	ab01      	add	r3, sp, #4
    1baa:	2280      	movs	r2, #128	; 0x80
    1bac:	701a      	strb	r2, [r3, #0]
    1bae:	780a      	ldrb	r2, [r1, #0]
    1bb0:	705a      	strb	r2, [r3, #1]
    1bb2:	784a      	ldrb	r2, [r1, #1]
    1bb4:	709a      	strb	r2, [r3, #2]
    1bb6:	788a      	ldrb	r2, [r1, #2]
    1bb8:	70da      	strb	r2, [r3, #3]
    1bba:	0019      	movs	r1, r3
    1bbc:	4b01      	ldr	r3, [pc, #4]	; (1bc4 <port_pin_set_config+0x20>)
    1bbe:	4798      	blx	r3
    1bc0:	b003      	add	sp, #12
    1bc2:	bd00      	pop	{pc}
    1bc4:	00002ab5 	.word	0x00002ab5

00001bc8 <menu_add_item>:
#include "config.h"
#include "my_menu.h"
//#include "functions.h"


void menu_add_item(MENU *m, menu_item item) {
    1bc8:	b084      	sub	sp, #16
    1bca:	b570      	push	{r4, r5, r6, lr}
    1bcc:	9105      	str	r1, [sp, #20]
    1bce:	9206      	str	r2, [sp, #24]
    1bd0:	9307      	str	r3, [sp, #28]
    if(m->num_of_items == MENU_MAX_ITEMS)
    1bd2:	2399      	movs	r3, #153	; 0x99
    1bd4:	009b      	lsls	r3, r3, #2
    1bd6:	5cc1      	ldrb	r1, [r0, r3]
    1bd8:	2911      	cmp	r1, #17
    1bda:	d013      	beq.n	1c04 <menu_add_item+0x3c>
        return;
    m->items[m->num_of_items] = item;
    1bdc:	00cb      	lsls	r3, r1, #3
    1bde:	185b      	adds	r3, r3, r1
    1be0:	009b      	lsls	r3, r3, #2
    1be2:	aa05      	add	r2, sp, #20
    1be4:	18c3      	adds	r3, r0, r3
    1be6:	ca70      	ldmia	r2!, {r4, r5, r6}
    1be8:	c370      	stmia	r3!, {r4, r5, r6}
    1bea:	ca70      	ldmia	r2!, {r4, r5, r6}
    1bec:	c370      	stmia	r3!, {r4, r5, r6}
    1bee:	ca70      	ldmia	r2!, {r4, r5, r6}
    1bf0:	c370      	stmia	r3!, {r4, r5, r6}
    m->num_of_items++;
    1bf2:	3101      	adds	r1, #1
    1bf4:	2399      	movs	r3, #153	; 0x99
    1bf6:	009b      	lsls	r3, r3, #2
    1bf8:	54c1      	strb	r1, [r0, r3]
    m->curr_pos = 0;
    1bfa:	2300      	movs	r3, #0
    1bfc:	4a03      	ldr	r2, [pc, #12]	; (1c0c <menu_add_item+0x44>)
    1bfe:	5483      	strb	r3, [r0, r2]
    m->curr_window_pos = 0;
    1c00:	4a03      	ldr	r2, [pc, #12]	; (1c10 <menu_add_item+0x48>)
    1c02:	5483      	strb	r3, [r0, r2]
}
    1c04:	bc70      	pop	{r4, r5, r6}
    1c06:	bc08      	pop	{r3}
    1c08:	b004      	add	sp, #16
    1c0a:	4718      	bx	r3
    1c0c:	00000265 	.word	0x00000265
    1c10:	00000266 	.word	0x00000266

00001c14 <increment_menu_position>:

void increment_menu_position(MENU *m) {
    if(m->curr_pos < m->num_of_items - 1)
    1c14:	4b0a      	ldr	r3, [pc, #40]	; (1c40 <increment_menu_position+0x2c>)
    1c16:	5cc2      	ldrb	r2, [r0, r3]
    1c18:	3b01      	subs	r3, #1
    1c1a:	5cc3      	ldrb	r3, [r0, r3]
    1c1c:	3b01      	subs	r3, #1
    1c1e:	429a      	cmp	r2, r3
    1c20:	da02      	bge.n	1c28 <increment_menu_position+0x14>
        m->curr_pos++;
    1c22:	3201      	adds	r2, #1
    1c24:	4b06      	ldr	r3, [pc, #24]	; (1c40 <increment_menu_position+0x2c>)
    1c26:	54c2      	strb	r2, [r0, r3]
    if((m->curr_pos - m->curr_window_pos) == 4)
    1c28:	4b06      	ldr	r3, [pc, #24]	; (1c44 <increment_menu_position+0x30>)
    1c2a:	5cc2      	ldrb	r2, [r0, r3]
    1c2c:	4b04      	ldr	r3, [pc, #16]	; (1c40 <increment_menu_position+0x2c>)
    1c2e:	5cc3      	ldrb	r3, [r0, r3]
    1c30:	1a9b      	subs	r3, r3, r2
    1c32:	2b04      	cmp	r3, #4
    1c34:	d000      	beq.n	1c38 <increment_menu_position+0x24>
        m->curr_window_pos++;
}
    1c36:	4770      	bx	lr
        m->curr_window_pos++;
    1c38:	3201      	adds	r2, #1
    1c3a:	4b02      	ldr	r3, [pc, #8]	; (1c44 <increment_menu_position+0x30>)
    1c3c:	54c2      	strb	r2, [r0, r3]
}
    1c3e:	e7fa      	b.n	1c36 <increment_menu_position+0x22>
    1c40:	00000265 	.word	0x00000265
    1c44:	00000266 	.word	0x00000266

00001c48 <decrement_menu_position>:

void decrement_menu_position(MENU *m) {
    if(m->curr_pos > 0)
    1c48:	4b08      	ldr	r3, [pc, #32]	; (1c6c <decrement_menu_position+0x24>)
    1c4a:	5cc3      	ldrb	r3, [r0, r3]
    1c4c:	2b00      	cmp	r3, #0
    1c4e:	d002      	beq.n	1c56 <decrement_menu_position+0xe>
        m->curr_pos--;
    1c50:	3b01      	subs	r3, #1
    1c52:	4a06      	ldr	r2, [pc, #24]	; (1c6c <decrement_menu_position+0x24>)
    1c54:	5483      	strb	r3, [r0, r2]
    if(m->curr_pos < m->curr_window_pos)
    1c56:	4b06      	ldr	r3, [pc, #24]	; (1c70 <decrement_menu_position+0x28>)
    1c58:	5cc3      	ldrb	r3, [r0, r3]
    1c5a:	4a04      	ldr	r2, [pc, #16]	; (1c6c <decrement_menu_position+0x24>)
    1c5c:	5c82      	ldrb	r2, [r0, r2]
    1c5e:	429a      	cmp	r2, r3
    1c60:	d202      	bcs.n	1c68 <decrement_menu_position+0x20>
        m->curr_window_pos--;
    1c62:	3b01      	subs	r3, #1
    1c64:	4a02      	ldr	r2, [pc, #8]	; (1c70 <decrement_menu_position+0x28>)
    1c66:	5483      	strb	r3, [r0, r2]
}
    1c68:	4770      	bx	lr
    1c6a:	46c0      	nop			; (mov r8, r8)
    1c6c:	00000265 	.word	0x00000265
    1c70:	00000266 	.word	0x00000266

00001c74 <get_p_to_item>:
uint8_t get_menu_position(MENU *m) {
    return m->curr_pos;
}

menu_item *get_p_to_item(MENU *m) {
    return &(m->items[m->curr_pos]);
    1c74:	4b03      	ldr	r3, [pc, #12]	; (1c84 <get_p_to_item+0x10>)
    1c76:	5cc2      	ldrb	r2, [r0, r3]
    1c78:	00d3      	lsls	r3, r2, #3
    1c7a:	189b      	adds	r3, r3, r2
    1c7c:	009b      	lsls	r3, r3, #2
    1c7e:	18c0      	adds	r0, r0, r3
}
    1c80:	4770      	bx	lr
    1c82:	46c0      	nop			; (mov r8, r8)
    1c84:	00000265 	.word	0x00000265

00001c88 <ftoe>:

void ftoe(char *s, float val) {
    1c88:	b570      	push	{r4, r5, r6, lr}
    1c8a:	0006      	movs	r6, r0
    1c8c:	1c0d      	adds	r5, r1, #0
    uint32_t whole = (int) val;
    1c8e:	1c08      	adds	r0, r1, #0
    1c90:	4b0a      	ldr	r3, [pc, #40]	; (1cbc <ftoe+0x34>)
    1c92:	4798      	blx	r3
    1c94:	0004      	movs	r4, r0
    float fract = val - whole;
    1c96:	4b0a      	ldr	r3, [pc, #40]	; (1cc0 <ftoe+0x38>)
    1c98:	4798      	blx	r3
    1c9a:	1c01      	adds	r1, r0, #0
    1c9c:	1c28      	adds	r0, r5, #0
    1c9e:	4b09      	ldr	r3, [pc, #36]	; (1cc4 <ftoe+0x3c>)
    1ca0:	4798      	blx	r3
    uint32_t whole_fract = fract * 1000;
    1ca2:	4909      	ldr	r1, [pc, #36]	; (1cc8 <ftoe+0x40>)
    1ca4:	4b09      	ldr	r3, [pc, #36]	; (1ccc <ftoe+0x44>)
    1ca6:	4798      	blx	r3
    1ca8:	4b09      	ldr	r3, [pc, #36]	; (1cd0 <ftoe+0x48>)
    1caa:	4798      	blx	r3
    1cac:	0003      	movs	r3, r0
    //ne dela v primeru 4.05
    sprintf(s, "%3lu.%03lu", whole, whole_fract);
    1cae:	0022      	movs	r2, r4
    1cb0:	4908      	ldr	r1, [pc, #32]	; (1cd4 <ftoe+0x4c>)
    1cb2:	0030      	movs	r0, r6
    1cb4:	4c08      	ldr	r4, [pc, #32]	; (1cd8 <ftoe+0x50>)
    1cb6:	47a0      	blx	r4
}
    1cb8:	bd70      	pop	{r4, r5, r6, pc}
    1cba:	46c0      	nop			; (mov r8, r8)
    1cbc:	0000405d 	.word	0x0000405d
    1cc0:	0000413d 	.word	0x0000413d
    1cc4:	00003d25 	.word	0x00003d25
    1cc8:	447a0000 	.word	0x447a0000
    1ccc:	00003ae5 	.word	0x00003ae5
    1cd0:	000037e5 	.word	0x000037e5
    1cd4:	000059a4 	.word	0x000059a4
    1cd8:	00005215 	.word	0x00005215

00001cdc <menu_get_item_string>:

void menu_get_item_string(MENU *m, char *str, uint8_t n) {
    1cdc:	b5f0      	push	{r4, r5, r6, r7, lr}
    1cde:	b089      	sub	sp, #36	; 0x24
    1ce0:	0007      	movs	r7, r0
    1ce2:	000d      	movs	r5, r1
    1ce4:	0016      	movs	r6, r2
    if(n >= m->num_of_items)
    1ce6:	2399      	movs	r3, #153	; 0x99
    1ce8:	009b      	lsls	r3, r3, #2
    1cea:	5cc3      	ldrb	r3, [r0, r3]
    1cec:	4293      	cmp	r3, r2
    1cee:	d925      	bls.n	1d3c <menu_get_item_string+0x60>
        return;
    menu_item *tmp = m->items + n;
    1cf0:	00d4      	lsls	r4, r2, #3
    1cf2:	18a4      	adds	r4, r4, r2
    1cf4:	00a4      	lsls	r4, r4, #2
    1cf6:	1904      	adds	r4, r0, r4
    switch(tmp->type) {
    1cf8:	7823      	ldrb	r3, [r4, #0]
    1cfa:	2b06      	cmp	r3, #6
    1cfc:	d845      	bhi.n	1d8a <menu_get_item_string+0xae>
    1cfe:	009b      	lsls	r3, r3, #2
    1d00:	4a2b      	ldr	r2, [pc, #172]	; (1db0 <menu_get_item_string+0xd4>)
    1d02:	58d3      	ldr	r3, [r2, r3]
    1d04:	469f      	mov	pc, r3
        case  TYPE_UINT8:
            sprintf(tmp->val_str, "%7d", *(uint8_t *)tmp->variable);
    1d06:	6923      	ldr	r3, [r4, #16]
    1d08:	781a      	ldrb	r2, [r3, #0]
    1d0a:	0020      	movs	r0, r4
    1d0c:	3014      	adds	r0, #20
    1d0e:	4929      	ldr	r1, [pc, #164]	; (1db4 <menu_get_item_string+0xd8>)
    1d10:	4b29      	ldr	r3, [pc, #164]	; (1db8 <menu_get_item_string+0xdc>)
    1d12:	4798      	blx	r3
            break;
        default:
            sprintf(tmp->val_str, "%7s", "ERROR99");
            break;
    }
    *(tmp->val_str + 7) = 0;
    1d14:	2300      	movs	r3, #0
    1d16:	76e3      	strb	r3, [r4, #27]
    char test[21];
    if(n == m->curr_pos) {
    1d18:	4b28      	ldr	r3, [pc, #160]	; (1dbc <menu_get_item_string+0xe0>)
    1d1a:	5cfb      	ldrb	r3, [r7, r3]
    1d1c:	42b3      	cmp	r3, r6
    1d1e:	d03b      	beq.n	1d98 <menu_get_item_string+0xbc>
        sprintf(test, "%c%-9s%6s%4s", '~', tmp->name, tmp->val_str, tmp->units);
    }
    else
        sprintf(test, "%-9s%7s%4s", tmp->name, tmp->val_str, tmp->units);
    1d20:	0023      	movs	r3, r4
    1d22:	3314      	adds	r3, #20
    1d24:	1c62      	adds	r2, r4, #1
    1d26:	340b      	adds	r4, #11
    1d28:	9400      	str	r4, [sp, #0]
    1d2a:	4925      	ldr	r1, [pc, #148]	; (1dc0 <menu_get_item_string+0xe4>)
    1d2c:	a802      	add	r0, sp, #8
    1d2e:	4c22      	ldr	r4, [pc, #136]	; (1db8 <menu_get_item_string+0xdc>)
    1d30:	47a0      	blx	r4
    memcpy(str, test, 20);
    1d32:	2214      	movs	r2, #20
    1d34:	a902      	add	r1, sp, #8
    1d36:	0028      	movs	r0, r5
    1d38:	4b22      	ldr	r3, [pc, #136]	; (1dc4 <menu_get_item_string+0xe8>)
    1d3a:	4798      	blx	r3

}
    1d3c:	b009      	add	sp, #36	; 0x24
    1d3e:	bdf0      	pop	{r4, r5, r6, r7, pc}
            sprintf(tmp->val_str, "%7d", *(uint16_t *)tmp->variable);
    1d40:	6923      	ldr	r3, [r4, #16]
    1d42:	881a      	ldrh	r2, [r3, #0]
    1d44:	0020      	movs	r0, r4
    1d46:	3014      	adds	r0, #20
    1d48:	491a      	ldr	r1, [pc, #104]	; (1db4 <menu_get_item_string+0xd8>)
    1d4a:	4b1b      	ldr	r3, [pc, #108]	; (1db8 <menu_get_item_string+0xdc>)
    1d4c:	4798      	blx	r3
            break;
    1d4e:	e7e1      	b.n	1d14 <menu_get_item_string+0x38>
            sprintf(tmp->val_str, "%7lu", *(uint32_t *)tmp->variable);
    1d50:	6923      	ldr	r3, [r4, #16]
    1d52:	681a      	ldr	r2, [r3, #0]
    1d54:	0020      	movs	r0, r4
    1d56:	3014      	adds	r0, #20
    1d58:	491b      	ldr	r1, [pc, #108]	; (1dc8 <menu_get_item_string+0xec>)
    1d5a:	4b17      	ldr	r3, [pc, #92]	; (1db8 <menu_get_item_string+0xdc>)
    1d5c:	4798      	blx	r3
            break;
    1d5e:	e7d9      	b.n	1d14 <menu_get_item_string+0x38>
            sprintf(tmp->val_str, "%7s", "");
    1d60:	0020      	movs	r0, r4
    1d62:	3014      	adds	r0, #20
    1d64:	4a19      	ldr	r2, [pc, #100]	; (1dcc <menu_get_item_string+0xf0>)
    1d66:	491a      	ldr	r1, [pc, #104]	; (1dd0 <menu_get_item_string+0xf4>)
    1d68:	4b13      	ldr	r3, [pc, #76]	; (1db8 <menu_get_item_string+0xdc>)
    1d6a:	4798      	blx	r3
            break;
    1d6c:	e7d2      	b.n	1d14 <menu_get_item_string+0x38>
            ftoe(tmp->val_str, *(float *)tmp->variable);
    1d6e:	6923      	ldr	r3, [r4, #16]
    1d70:	6819      	ldr	r1, [r3, #0]
    1d72:	0020      	movs	r0, r4
    1d74:	3014      	adds	r0, #20
    1d76:	4b17      	ldr	r3, [pc, #92]	; (1dd4 <menu_get_item_string+0xf8>)
    1d78:	4798      	blx	r3
            break;
    1d7a:	e7cb      	b.n	1d14 <menu_get_item_string+0x38>
            sprintf(tmp->val_str, "%7s", "");
    1d7c:	0020      	movs	r0, r4
    1d7e:	3014      	adds	r0, #20
    1d80:	4a12      	ldr	r2, [pc, #72]	; (1dcc <menu_get_item_string+0xf0>)
    1d82:	4913      	ldr	r1, [pc, #76]	; (1dd0 <menu_get_item_string+0xf4>)
    1d84:	4b0c      	ldr	r3, [pc, #48]	; (1db8 <menu_get_item_string+0xdc>)
    1d86:	4798      	blx	r3
            break;
    1d88:	e7c4      	b.n	1d14 <menu_get_item_string+0x38>
            sprintf(tmp->val_str, "%7s", "ERROR99");
    1d8a:	0020      	movs	r0, r4
    1d8c:	3014      	adds	r0, #20
    1d8e:	4a12      	ldr	r2, [pc, #72]	; (1dd8 <menu_get_item_string+0xfc>)
    1d90:	490f      	ldr	r1, [pc, #60]	; (1dd0 <menu_get_item_string+0xf4>)
    1d92:	4b09      	ldr	r3, [pc, #36]	; (1db8 <menu_get_item_string+0xdc>)
    1d94:	4798      	blx	r3
            break;
    1d96:	e7bd      	b.n	1d14 <menu_get_item_string+0x38>
        sprintf(test, "%c%-9s%6s%4s", '~', tmp->name, tmp->val_str, tmp->units);
    1d98:	1c63      	adds	r3, r4, #1
    1d9a:	0022      	movs	r2, r4
    1d9c:	320b      	adds	r2, #11
    1d9e:	9201      	str	r2, [sp, #4]
    1da0:	3414      	adds	r4, #20
    1da2:	9400      	str	r4, [sp, #0]
    1da4:	227e      	movs	r2, #126	; 0x7e
    1da6:	490d      	ldr	r1, [pc, #52]	; (1ddc <menu_get_item_string+0x100>)
    1da8:	a802      	add	r0, sp, #8
    1daa:	4c03      	ldr	r4, [pc, #12]	; (1db8 <menu_get_item_string+0xdc>)
    1dac:	47a0      	blx	r4
    1dae:	e7c0      	b.n	1d32 <menu_get_item_string+0x56>
    1db0:	00005988 	.word	0x00005988
    1db4:	000059cc 	.word	0x000059cc
    1db8:	00005215 	.word	0x00005215
    1dbc:	00000265 	.word	0x00000265
    1dc0:	000059f4 	.word	0x000059f4
    1dc4:	0000507d 	.word	0x0000507d
    1dc8:	000059d0 	.word	0x000059d0
    1dcc:	000059c0 	.word	0x000059c0
    1dd0:	000059d8 	.word	0x000059d8
    1dd4:	00001c89 	.word	0x00001c89
    1dd8:	000059dc 	.word	0x000059dc
    1ddc:	000059e4 	.word	0x000059e4

00001de0 <menu_whole_solo_string>:

void menu_whole_solo_string(MENU *m, char *s) {
    1de0:	b5f0      	push	{r4, r5, r6, r7, lr}
    1de2:	46de      	mov	lr, fp
    1de4:	4657      	mov	r7, sl
    1de6:	464e      	mov	r6, r9
    1de8:	4645      	mov	r5, r8
    1dea:	b5e0      	push	{r5, r6, r7, lr}
    1dec:	b08b      	sub	sp, #44	; 0x2c
    1dee:	0007      	movs	r7, r0
    1df0:	000e      	movs	r6, r1
    return &(m->items[m->curr_pos]);
    1df2:	4b2f      	ldr	r3, [pc, #188]	; (1eb0 <menu_whole_solo_string+0xd0>)
    1df4:	5cc3      	ldrb	r3, [r0, r3]
    1df6:	4698      	mov	r8, r3
    char tmp_string[21];
    menu_item *p_to_item = get_p_to_item(m);
    menu_get_item_string(m, tmp_string, m->curr_pos);
    1df8:	001a      	movs	r2, r3
    1dfa:	a904      	add	r1, sp, #16
    1dfc:	4b2d      	ldr	r3, [pc, #180]	; (1eb4 <menu_whole_solo_string+0xd4>)
    1dfe:	4798      	blx	r3
    1e00:	4643      	mov	r3, r8
    1e02:	00dd      	lsls	r5, r3, #3
    1e04:	4445      	add	r5, r8
    1e06:	00ad      	lsls	r5, r5, #2

    uint8_t string_length = strlen(p_to_item->name);
    1e08:	1c6b      	adds	r3, r5, #1
    1e0a:	18fb      	adds	r3, r7, r3
    1e0c:	9301      	str	r3, [sp, #4]
    1e0e:	0018      	movs	r0, r3
    1e10:	4c29      	ldr	r4, [pc, #164]	; (1eb8 <menu_whole_solo_string+0xd8>)
    1e12:	47a0      	blx	r4
    1e14:	4683      	mov	fp, r0
    uint8_t value_length = strlen(p_to_item->val_str);
    1e16:	002b      	movs	r3, r5
    1e18:	3314      	adds	r3, #20
    1e1a:	18fb      	adds	r3, r7, r3
    1e1c:	9302      	str	r3, [sp, #8]
    1e1e:	0018      	movs	r0, r3
    1e20:	47a0      	blx	r4
    1e22:	9003      	str	r0, [sp, #12]
    1e24:	ab04      	add	r3, sp, #16
    1e26:	a909      	add	r1, sp, #36	; 0x24

    p_to_item->name[sizeof(p_to_item->name) - 1] = 0;
    for(uint8_t i = 0; i < 20; i++)
        tmp_string[i] = ' ';
    1e28:	2220      	movs	r2, #32
    1e2a:	701a      	strb	r2, [r3, #0]
    1e2c:	3301      	adds	r3, #1
    for(uint8_t i = 0; i < 20; i++)
    1e2e:	428b      	cmp	r3, r1
    1e30:	d1fb      	bne.n	1e2a <menu_whole_solo_string+0x4a>
    tmp_string[20] = 0;
    1e32:	2300      	movs	r3, #0
    1e34:	aa04      	add	r2, sp, #16
    1e36:	7513      	strb	r3, [r2, #20]
    1e38:	0034      	movs	r4, r6
    1e3a:	3354      	adds	r3, #84	; 0x54
    1e3c:	469a      	mov	sl, r3
    1e3e:	44b2      	add	sl, r6
    for(uint8_t i = 0; i < 4; i++)
        memcpy(s + 21 * i, tmp_string, 20);
    1e40:	4b1e      	ldr	r3, [pc, #120]	; (1ebc <menu_whole_solo_string+0xdc>)
    1e42:	4699      	mov	r9, r3
    1e44:	002b      	movs	r3, r5
    1e46:	4655      	mov	r5, sl
    1e48:	469a      	mov	sl, r3
    1e4a:	2214      	movs	r2, #20
    1e4c:	a904      	add	r1, sp, #16
    1e4e:	0020      	movs	r0, r4
    1e50:	47c8      	blx	r9
    1e52:	3415      	adds	r4, #21
    for(uint8_t i = 0; i < 4; i++)
    1e54:	42ac      	cmp	r4, r5
    1e56:	d1f8      	bne.n	1e4a <menu_whole_solo_string+0x6a>
    1e58:	4655      	mov	r5, sl

    p_to_item->name[sizeof(p_to_item->name) - 1] = 0;
    1e5a:	4643      	mov	r3, r8
    1e5c:	00db      	lsls	r3, r3, #3
    1e5e:	4642      	mov	r2, r8
    1e60:	1899      	adds	r1, r3, r2
    1e62:	0089      	lsls	r1, r1, #2
    1e64:	1879      	adds	r1, r7, r1
    1e66:	2200      	movs	r2, #0
    1e68:	728a      	strb	r2, [r1, #10]
    p_to_item->val_str[sizeof(p_to_item->val_str) - 1] = 0;
    1e6a:	76ca      	strb	r2, [r1, #27]

    memcpy(s + 21, p_to_item->name, string_length);
    1e6c:	0030      	movs	r0, r6
    1e6e:	3015      	adds	r0, #21
    1e70:	24ff      	movs	r4, #255	; 0xff
    1e72:	465a      	mov	r2, fp
    1e74:	4022      	ands	r2, r4
    1e76:	9901      	ldr	r1, [sp, #4]
    1e78:	4b10      	ldr	r3, [pc, #64]	; (1ebc <menu_whole_solo_string+0xdc>)
    1e7a:	4698      	mov	r8, r3
    1e7c:	4798      	blx	r3
    1e7e:	9b03      	ldr	r3, [sp, #12]
    1e80:	401c      	ands	r4, r3
    memcpy(s + 42, p_to_item->val_str, value_length);
    1e82:	0030      	movs	r0, r6
    1e84:	302a      	adds	r0, #42	; 0x2a
    1e86:	0022      	movs	r2, r4
    1e88:	9902      	ldr	r1, [sp, #8]
    1e8a:	47c0      	blx	r8
    memcpy(s + 42 + value_length + 1, p_to_item->units, strlen(p_to_item->units));
    1e8c:	350b      	adds	r5, #11
    1e8e:	197f      	adds	r7, r7, r5
    1e90:	0038      	movs	r0, r7
    1e92:	4b09      	ldr	r3, [pc, #36]	; (1eb8 <menu_whole_solo_string+0xd8>)
    1e94:	4798      	blx	r3
    1e96:	0002      	movs	r2, r0
    1e98:	342b      	adds	r4, #43	; 0x2b
    1e9a:	1930      	adds	r0, r6, r4
    1e9c:	0039      	movs	r1, r7
    1e9e:	47c0      	blx	r8
}
    1ea0:	b00b      	add	sp, #44	; 0x2c
    1ea2:	bc3c      	pop	{r2, r3, r4, r5}
    1ea4:	4690      	mov	r8, r2
    1ea6:	4699      	mov	r9, r3
    1ea8:	46a2      	mov	sl, r4
    1eaa:	46ab      	mov	fp, r5
    1eac:	bdf0      	pop	{r4, r5, r6, r7, pc}
    1eae:	46c0      	nop			; (mov r8, r8)
    1eb0:	00000265 	.word	0x00000265
    1eb4:	00001cdd 	.word	0x00001cdd
    1eb8:	00005269 	.word	0x00005269
    1ebc:	0000507d 	.word	0x0000507d

00001ec0 <menu_whole_string>:

void menu_whole_string(MENU *m, char *s, STATE state) {
    1ec0:	b5f0      	push	{r4, r5, r6, r7, lr}
    1ec2:	46d6      	mov	lr, sl
    1ec4:	464f      	mov	r7, r9
    1ec6:	4646      	mov	r6, r8
    1ec8:	b5c0      	push	{r6, r7, lr}
    1eca:	0006      	movs	r6, r0
    1ecc:	000f      	movs	r7, r1
    if(state == EDIT) {
    1ece:	2a01      	cmp	r2, #1
    1ed0:	d03e      	beq.n	1f50 <menu_whole_string+0x90>
        menu_whole_solo_string(m, s);
    }
    else {
        uint8_t j = 0;
        for(uint8_t i = (m->curr_window_pos); i < (4 + m->curr_window_pos) && i < m->num_of_items; i++) {
    1ed2:	4b23      	ldr	r3, [pc, #140]	; (1f60 <menu_whole_string+0xa0>)
    1ed4:	5cc5      	ldrb	r5, [r0, r3]
    1ed6:	1d2b      	adds	r3, r5, #4
    1ed8:	429d      	cmp	r5, r3
    1eda:	da3c      	bge.n	1f56 <menu_whole_string+0x96>
    1edc:	2399      	movs	r3, #153	; 0x99
    1ede:	009b      	lsls	r3, r3, #2
    1ee0:	5cc3      	ldrb	r3, [r0, r3]
    1ee2:	42ab      	cmp	r3, r5
    1ee4:	d939      	bls.n	1f5a <menu_whole_string+0x9a>
    1ee6:	2300      	movs	r3, #0
            menu_get_item_string(m, s + 21 * (j++), i);
    1ee8:	4a1e      	ldr	r2, [pc, #120]	; (1f64 <menu_whole_string+0xa4>)
    1eea:	4691      	mov	r9, r2
        for(uint8_t i = (m->curr_window_pos); i < (4 + m->curr_window_pos) && i < m->num_of_items; i++) {
    1eec:	4a1c      	ldr	r2, [pc, #112]	; (1f60 <menu_whole_string+0xa0>)
    1eee:	4690      	mov	r8, r2
    1ef0:	3a02      	subs	r2, #2
    1ef2:	4692      	mov	sl, r2
            menu_get_item_string(m, s + 21 * (j++), i);
    1ef4:	1c5c      	adds	r4, r3, #1
    1ef6:	b2e4      	uxtb	r4, r4
    1ef8:	0059      	lsls	r1, r3, #1
    1efa:	18cb      	adds	r3, r1, r3
    1efc:	00d9      	lsls	r1, r3, #3
    1efe:	1ac9      	subs	r1, r1, r3
    1f00:	1879      	adds	r1, r7, r1
    1f02:	002a      	movs	r2, r5
    1f04:	0030      	movs	r0, r6
    1f06:	47c8      	blx	r9
        for(uint8_t i = (m->curr_window_pos); i < (4 + m->curr_window_pos) && i < m->num_of_items; i++) {
    1f08:	3501      	adds	r5, #1
    1f0a:	b2ed      	uxtb	r5, r5
    1f0c:	4643      	mov	r3, r8
    1f0e:	5cf3      	ldrb	r3, [r6, r3]
    1f10:	3304      	adds	r3, #4
    1f12:	429d      	cmp	r5, r3
    1f14:	da04      	bge.n	1f20 <menu_whole_string+0x60>
            menu_get_item_string(m, s + 21 * (j++), i);
    1f16:	0023      	movs	r3, r4
        for(uint8_t i = (m->curr_window_pos); i < (4 + m->curr_window_pos) && i < m->num_of_items; i++) {
    1f18:	4652      	mov	r2, sl
    1f1a:	5cb2      	ldrb	r2, [r6, r2]
    1f1c:	42aa      	cmp	r2, r5
    1f1e:	d8e9      	bhi.n	1ef4 <menu_whole_string+0x34>
        }
        for(; j < 4; j++)
    1f20:	2c03      	cmp	r4, #3
    1f22:	d810      	bhi.n	1f46 <menu_whole_string+0x86>
            for(uint8_t i = 0; i < 20; i++)
                *(s + 21 * j) = ' ';
    1f24:	2114      	movs	r1, #20
    1f26:	2020      	movs	r0, #32
    1f28:	0062      	lsls	r2, r4, #1
    1f2a:	1912      	adds	r2, r2, r4
    1f2c:	00d3      	lsls	r3, r2, #3
    1f2e:	1a9a      	subs	r2, r3, r2
    1f30:	18ba      	adds	r2, r7, r2
    1f32:	000b      	movs	r3, r1
    1f34:	3b01      	subs	r3, #1
    1f36:	b2db      	uxtb	r3, r3
            for(uint8_t i = 0; i < 20; i++)
    1f38:	2b00      	cmp	r3, #0
    1f3a:	d1fb      	bne.n	1f34 <menu_whole_string+0x74>
    1f3c:	7010      	strb	r0, [r2, #0]
        for(; j < 4; j++)
    1f3e:	3401      	adds	r4, #1
    1f40:	b2e4      	uxtb	r4, r4
    1f42:	2c03      	cmp	r4, #3
    1f44:	d9f0      	bls.n	1f28 <menu_whole_string+0x68>
    }

}
    1f46:	bc1c      	pop	{r2, r3, r4}
    1f48:	4690      	mov	r8, r2
    1f4a:	4699      	mov	r9, r3
    1f4c:	46a2      	mov	sl, r4
    1f4e:	bdf0      	pop	{r4, r5, r6, r7, pc}
        menu_whole_solo_string(m, s);
    1f50:	4b05      	ldr	r3, [pc, #20]	; (1f68 <menu_whole_string+0xa8>)
    1f52:	4798      	blx	r3
    1f54:	e7f7      	b.n	1f46 <menu_whole_string+0x86>
        for(uint8_t i = (m->curr_window_pos); i < (4 + m->curr_window_pos) && i < m->num_of_items; i++) {
    1f56:	2400      	movs	r4, #0
    1f58:	e7e4      	b.n	1f24 <menu_whole_string+0x64>
    1f5a:	2400      	movs	r4, #0
    1f5c:	e7e2      	b.n	1f24 <menu_whole_string+0x64>
    1f5e:	46c0      	nop			; (mov r8, r8)
    1f60:	00000266 	.word	0x00000266
    1f64:	00001cdd 	.word	0x00001cdd
    1f68:	00001de1 	.word	0x00001de1

00001f6c <menu_create_item>:

void menu_create_item(menu_item *item, const char *name, enum VAR_TYPE typ, const char *units, void *p_variable, float min_val, float max_val) {
    1f6c:	b5f0      	push	{r4, r5, r6, r7, lr}
    1f6e:	46c6      	mov	lr, r8
    1f70:	b500      	push	{lr}
    1f72:	b082      	sub	sp, #8
    1f74:	0004      	movs	r4, r0
    1f76:	000f      	movs	r7, r1
    1f78:	4690      	mov	r8, r2
    1f7a:	9301      	str	r3, [sp, #4]
    strcpy(item->name, "         ");
    1f7c:	1c45      	adds	r5, r0, #1
    1f7e:	220a      	movs	r2, #10
    1f80:	4910      	ldr	r1, [pc, #64]	; (1fc4 <menu_create_item+0x58>)
    1f82:	0028      	movs	r0, r5
    1f84:	4e10      	ldr	r6, [pc, #64]	; (1fc8 <menu_create_item+0x5c>)
    1f86:	47b0      	blx	r6
    strcpy(item->name, name);
    1f88:	0039      	movs	r1, r7
    1f8a:	0028      	movs	r0, r5
    1f8c:	4f0f      	ldr	r7, [pc, #60]	; (1fcc <menu_create_item+0x60>)
    1f8e:	47b8      	blx	r7
    strcpy(item->units, "    ");
    1f90:	350a      	adds	r5, #10
    1f92:	2205      	movs	r2, #5
    1f94:	490e      	ldr	r1, [pc, #56]	; (1fd0 <menu_create_item+0x64>)
    1f96:	0028      	movs	r0, r5
    1f98:	47b0      	blx	r6
    strcpy(item->units, units);
    1f9a:	9901      	ldr	r1, [sp, #4]
    1f9c:	0028      	movs	r0, r5
    1f9e:	47b8      	blx	r7
    strcpy(item->val_str, "       ");
    1fa0:	0020      	movs	r0, r4
    1fa2:	3014      	adds	r0, #20
    1fa4:	2208      	movs	r2, #8
    1fa6:	490b      	ldr	r1, [pc, #44]	; (1fd4 <menu_create_item+0x68>)
    1fa8:	47b0      	blx	r6
    item->type = typ;
    1faa:	4643      	mov	r3, r8
    1fac:	7023      	strb	r3, [r4, #0]
    item->variable = p_variable;
    1fae:	9b08      	ldr	r3, [sp, #32]
    1fb0:	6123      	str	r3, [r4, #16]
    item->val_max = max_val;
    1fb2:	9b0a      	ldr	r3, [sp, #40]	; 0x28
    1fb4:	6223      	str	r3, [r4, #32]
    item->val_min = min_val;
    1fb6:	9b09      	ldr	r3, [sp, #36]	; 0x24
    1fb8:	61e3      	str	r3, [r4, #28]
}
    1fba:	b002      	add	sp, #8
    1fbc:	bc04      	pop	{r2}
    1fbe:	4690      	mov	r8, r2
    1fc0:	bdf0      	pop	{r4, r5, r6, r7, pc}
    1fc2:	46c0      	nop			; (mov r8, r8)
    1fc4:	000059b0 	.word	0x000059b0
    1fc8:	0000507d 	.word	0x0000507d
    1fcc:	00005259 	.word	0x00005259
    1fd0:	000059bc 	.word	0x000059bc
    1fd4:	000059c4 	.word	0x000059c4

00001fd8 <menu_increment_item>:

void menu_increment_item(MENU *m) {
    1fd8:	b5f0      	push	{r4, r5, r6, r7, lr}
    1fda:	46c6      	mov	lr, r8
    1fdc:	b500      	push	{lr}
    1fde:	0005      	movs	r5, r0
    switch(m->items[m->curr_pos].type) {
    1fe0:	4b34      	ldr	r3, [pc, #208]	; (20b4 <STACK_SIZE+0xb4>)
    1fe2:	5cc4      	ldrb	r4, [r0, r3]
    1fe4:	00e3      	lsls	r3, r4, #3
    1fe6:	191b      	adds	r3, r3, r4
    1fe8:	009b      	lsls	r3, r3, #2
    1fea:	5c1b      	ldrb	r3, [r3, r0]
    1fec:	2b01      	cmp	r3, #1
    1fee:	d01e      	beq.n	202e <STACK_SIZE+0x2e>
    1ff0:	2b00      	cmp	r3, #0
    1ff2:	d006      	beq.n	2002 <STACK_SIZE+0x2>
    1ff4:	2b02      	cmp	r3, #2
    1ff6:	d030      	beq.n	205a <STACK_SIZE+0x5a>
    1ff8:	2b03      	cmp	r3, #3
    1ffa:	d044      	beq.n	2086 <STACK_SIZE+0x86>
                (*(float *)m->items[m->curr_pos].variable) += 0.1;
            break;
        default:
            break;
    }
}
    1ffc:	bc04      	pop	{r2}
    1ffe:	4690      	mov	r8, r2
    2000:	bdf0      	pop	{r4, r5, r6, r7, pc}
            if((*(uint8_t *)m->items[m->curr_pos].variable) < (m->items[m->curr_pos].val_max))
    2002:	00e6      	lsls	r6, r4, #3
    2004:	1933      	adds	r3, r6, r4
    2006:	009b      	lsls	r3, r3, #2
    2008:	18c3      	adds	r3, r0, r3
    200a:	691b      	ldr	r3, [r3, #16]
    200c:	4698      	mov	r8, r3
    200e:	781f      	ldrb	r7, [r3, #0]
    2010:	0038      	movs	r0, r7
    2012:	4b29      	ldr	r3, [pc, #164]	; (20b8 <STACK_SIZE+0xb8>)
    2014:	4798      	blx	r3
    2016:	1936      	adds	r6, r6, r4
    2018:	00b6      	lsls	r6, r6, #2
    201a:	19ad      	adds	r5, r5, r6
    201c:	6a29      	ldr	r1, [r5, #32]
    201e:	4b27      	ldr	r3, [pc, #156]	; (20bc <STACK_SIZE+0xbc>)
    2020:	4798      	blx	r3
    2022:	2800      	cmp	r0, #0
    2024:	d0ea      	beq.n	1ffc <menu_increment_item+0x24>
                (*(uint8_t *)m->items[m->curr_pos].variable)++;
    2026:	3701      	adds	r7, #1
    2028:	4643      	mov	r3, r8
    202a:	701f      	strb	r7, [r3, #0]
    202c:	e7e6      	b.n	1ffc <menu_increment_item+0x24>
            if((*(uint16_t *)m->items[m->curr_pos].variable) < (m->items[m->curr_pos].val_max))
    202e:	00e6      	lsls	r6, r4, #3
    2030:	1933      	adds	r3, r6, r4
    2032:	009b      	lsls	r3, r3, #2
    2034:	18c3      	adds	r3, r0, r3
    2036:	691b      	ldr	r3, [r3, #16]
    2038:	4698      	mov	r8, r3
    203a:	881f      	ldrh	r7, [r3, #0]
    203c:	0038      	movs	r0, r7
    203e:	4b1e      	ldr	r3, [pc, #120]	; (20b8 <STACK_SIZE+0xb8>)
    2040:	4798      	blx	r3
    2042:	1936      	adds	r6, r6, r4
    2044:	00b6      	lsls	r6, r6, #2
    2046:	19ad      	adds	r5, r5, r6
    2048:	6a29      	ldr	r1, [r5, #32]
    204a:	4b1c      	ldr	r3, [pc, #112]	; (20bc <STACK_SIZE+0xbc>)
    204c:	4798      	blx	r3
    204e:	2800      	cmp	r0, #0
    2050:	d0d4      	beq.n	1ffc <menu_increment_item+0x24>
                (*(uint16_t *)m->items[m->curr_pos].variable)++;
    2052:	3701      	adds	r7, #1
    2054:	4643      	mov	r3, r8
    2056:	801f      	strh	r7, [r3, #0]
    2058:	e7d0      	b.n	1ffc <menu_increment_item+0x24>
            if((*(uint32_t *)m->items[m->curr_pos].variable) < (m->items[m->curr_pos].val_max))
    205a:	00e6      	lsls	r6, r4, #3
    205c:	1933      	adds	r3, r6, r4
    205e:	009b      	lsls	r3, r3, #2
    2060:	18c3      	adds	r3, r0, r3
    2062:	691b      	ldr	r3, [r3, #16]
    2064:	4698      	mov	r8, r3
    2066:	681f      	ldr	r7, [r3, #0]
    2068:	0038      	movs	r0, r7
    206a:	4b15      	ldr	r3, [pc, #84]	; (20c0 <STACK_SIZE+0xc0>)
    206c:	4798      	blx	r3
    206e:	1936      	adds	r6, r6, r4
    2070:	00b6      	lsls	r6, r6, #2
    2072:	19ad      	adds	r5, r5, r6
    2074:	6a29      	ldr	r1, [r5, #32]
    2076:	4b11      	ldr	r3, [pc, #68]	; (20bc <STACK_SIZE+0xbc>)
    2078:	4798      	blx	r3
    207a:	2800      	cmp	r0, #0
    207c:	d0be      	beq.n	1ffc <menu_increment_item+0x24>
                (*(uint32_t *)m->items[m->curr_pos].variable)++;
    207e:	3701      	adds	r7, #1
    2080:	4643      	mov	r3, r8
    2082:	601f      	str	r7, [r3, #0]
    2084:	e7ba      	b.n	1ffc <menu_increment_item+0x24>
            if((*(float *)m->items[m->curr_pos].variable) < (m->items[m->curr_pos].val_max))
    2086:	00e3      	lsls	r3, r4, #3
    2088:	191a      	adds	r2, r3, r4
    208a:	0092      	lsls	r2, r2, #2
    208c:	1882      	adds	r2, r0, r2
    208e:	6917      	ldr	r7, [r2, #16]
    2090:	683e      	ldr	r6, [r7, #0]
    2092:	6a11      	ldr	r1, [r2, #32]
    2094:	1c30      	adds	r0, r6, #0
    2096:	4b09      	ldr	r3, [pc, #36]	; (20bc <STACK_SIZE+0xbc>)
    2098:	4798      	blx	r3
    209a:	2800      	cmp	r0, #0
    209c:	d0ae      	beq.n	1ffc <menu_increment_item+0x24>
                (*(float *)m->items[m->curr_pos].variable) += 0.1;
    209e:	1c30      	adds	r0, r6, #0
    20a0:	4b08      	ldr	r3, [pc, #32]	; (20c4 <STACK_SIZE+0xc4>)
    20a2:	4798      	blx	r3
    20a4:	4a08      	ldr	r2, [pc, #32]	; (20c8 <STACK_SIZE+0xc8>)
    20a6:	4b09      	ldr	r3, [pc, #36]	; (20cc <STACK_SIZE+0xcc>)
    20a8:	4c09      	ldr	r4, [pc, #36]	; (20d0 <STACK_SIZE+0xd0>)
    20aa:	47a0      	blx	r4
    20ac:	4b09      	ldr	r3, [pc, #36]	; (20d4 <STACK_SIZE+0xd4>)
    20ae:	4798      	blx	r3
    20b0:	6038      	str	r0, [r7, #0]
}
    20b2:	e7a3      	b.n	1ffc <menu_increment_item+0x24>
    20b4:	00000265 	.word	0x00000265
    20b8:	0000409d 	.word	0x0000409d
    20bc:	00003701 	.word	0x00003701
    20c0:	0000413d 	.word	0x0000413d
    20c4:	00004e15 	.word	0x00004e15
    20c8:	9999999a 	.word	0x9999999a
    20cc:	3fb99999 	.word	0x3fb99999
    20d0:	000041c9 	.word	0x000041c9
    20d4:	00004eb9 	.word	0x00004eb9

000020d8 <menu_decrement_item>:
void menu_decrement_item(MENU *m) {
    20d8:	b5f0      	push	{r4, r5, r6, r7, lr}
    20da:	46c6      	mov	lr, r8
    20dc:	b500      	push	{lr}
    20de:	0005      	movs	r5, r0
    switch(m->items[m->curr_pos].type) {
    20e0:	4b34      	ldr	r3, [pc, #208]	; (21b4 <menu_decrement_item+0xdc>)
    20e2:	5cc4      	ldrb	r4, [r0, r3]
    20e4:	00e3      	lsls	r3, r4, #3
    20e6:	191b      	adds	r3, r3, r4
    20e8:	009b      	lsls	r3, r3, #2
    20ea:	5c1b      	ldrb	r3, [r3, r0]
    20ec:	2b01      	cmp	r3, #1
    20ee:	d01e      	beq.n	212e <menu_decrement_item+0x56>
    20f0:	2b00      	cmp	r3, #0
    20f2:	d006      	beq.n	2102 <menu_decrement_item+0x2a>
    20f4:	2b02      	cmp	r3, #2
    20f6:	d030      	beq.n	215a <menu_decrement_item+0x82>
    20f8:	2b03      	cmp	r3, #3
    20fa:	d044      	beq.n	2186 <menu_decrement_item+0xae>
                (*(float *)m->items[m->curr_pos].variable) -= 0.1;
            break;
        default:
            break;
    }
}
    20fc:	bc04      	pop	{r2}
    20fe:	4690      	mov	r8, r2
    2100:	bdf0      	pop	{r4, r5, r6, r7, pc}
            if((*(uint8_t *)m->items[m->curr_pos].variable) > (m->items[m->curr_pos].val_min))
    2102:	00e6      	lsls	r6, r4, #3
    2104:	1933      	adds	r3, r6, r4
    2106:	009b      	lsls	r3, r3, #2
    2108:	18c3      	adds	r3, r0, r3
    210a:	691b      	ldr	r3, [r3, #16]
    210c:	4698      	mov	r8, r3
    210e:	781f      	ldrb	r7, [r3, #0]
    2110:	0038      	movs	r0, r7
    2112:	4b29      	ldr	r3, [pc, #164]	; (21b8 <menu_decrement_item+0xe0>)
    2114:	4798      	blx	r3
    2116:	1936      	adds	r6, r6, r4
    2118:	00b6      	lsls	r6, r6, #2
    211a:	19ad      	adds	r5, r5, r6
    211c:	69e9      	ldr	r1, [r5, #28]
    211e:	4b27      	ldr	r3, [pc, #156]	; (21bc <menu_decrement_item+0xe4>)
    2120:	4798      	blx	r3
    2122:	2800      	cmp	r0, #0
    2124:	d0ea      	beq.n	20fc <menu_decrement_item+0x24>
                (*(uint8_t *)m->items[m->curr_pos].variable)--;
    2126:	3f01      	subs	r7, #1
    2128:	4643      	mov	r3, r8
    212a:	701f      	strb	r7, [r3, #0]
    212c:	e7e6      	b.n	20fc <menu_decrement_item+0x24>
            if((*(uint16_t *)m->items[m->curr_pos].variable) > (m->items[m->curr_pos].val_min))
    212e:	00e6      	lsls	r6, r4, #3
    2130:	1933      	adds	r3, r6, r4
    2132:	009b      	lsls	r3, r3, #2
    2134:	18c3      	adds	r3, r0, r3
    2136:	691b      	ldr	r3, [r3, #16]
    2138:	4698      	mov	r8, r3
    213a:	881f      	ldrh	r7, [r3, #0]
    213c:	0038      	movs	r0, r7
    213e:	4b1e      	ldr	r3, [pc, #120]	; (21b8 <menu_decrement_item+0xe0>)
    2140:	4798      	blx	r3
    2142:	1936      	adds	r6, r6, r4
    2144:	00b6      	lsls	r6, r6, #2
    2146:	19ad      	adds	r5, r5, r6
    2148:	69e9      	ldr	r1, [r5, #28]
    214a:	4b1c      	ldr	r3, [pc, #112]	; (21bc <menu_decrement_item+0xe4>)
    214c:	4798      	blx	r3
    214e:	2800      	cmp	r0, #0
    2150:	d0d4      	beq.n	20fc <menu_decrement_item+0x24>
                (*(uint16_t *)m->items[m->curr_pos].variable)--;
    2152:	3f01      	subs	r7, #1
    2154:	4643      	mov	r3, r8
    2156:	801f      	strh	r7, [r3, #0]
    2158:	e7d0      	b.n	20fc <menu_decrement_item+0x24>
            if((*(uint32_t *)m->items[m->curr_pos].variable) > (m->items[m->curr_pos].val_min))
    215a:	00e6      	lsls	r6, r4, #3
    215c:	1933      	adds	r3, r6, r4
    215e:	009b      	lsls	r3, r3, #2
    2160:	18c3      	adds	r3, r0, r3
    2162:	691b      	ldr	r3, [r3, #16]
    2164:	4698      	mov	r8, r3
    2166:	681f      	ldr	r7, [r3, #0]
    2168:	0038      	movs	r0, r7
    216a:	4b15      	ldr	r3, [pc, #84]	; (21c0 <menu_decrement_item+0xe8>)
    216c:	4798      	blx	r3
    216e:	1936      	adds	r6, r6, r4
    2170:	00b6      	lsls	r6, r6, #2
    2172:	19ad      	adds	r5, r5, r6
    2174:	69e9      	ldr	r1, [r5, #28]
    2176:	4b11      	ldr	r3, [pc, #68]	; (21bc <menu_decrement_item+0xe4>)
    2178:	4798      	blx	r3
    217a:	2800      	cmp	r0, #0
    217c:	d0be      	beq.n	20fc <menu_decrement_item+0x24>
                (*(uint32_t *)m->items[m->curr_pos].variable)--;
    217e:	3f01      	subs	r7, #1
    2180:	4643      	mov	r3, r8
    2182:	601f      	str	r7, [r3, #0]
    2184:	e7ba      	b.n	20fc <menu_decrement_item+0x24>
            if((*(float *)m->items[m->curr_pos].variable) > (m->items[m->curr_pos].val_min))
    2186:	00e3      	lsls	r3, r4, #3
    2188:	191a      	adds	r2, r3, r4
    218a:	0092      	lsls	r2, r2, #2
    218c:	1882      	adds	r2, r0, r2
    218e:	6917      	ldr	r7, [r2, #16]
    2190:	683e      	ldr	r6, [r7, #0]
    2192:	69d1      	ldr	r1, [r2, #28]
    2194:	1c30      	adds	r0, r6, #0
    2196:	4b09      	ldr	r3, [pc, #36]	; (21bc <menu_decrement_item+0xe4>)
    2198:	4798      	blx	r3
    219a:	2800      	cmp	r0, #0
    219c:	d0ae      	beq.n	20fc <menu_decrement_item+0x24>
                (*(float *)m->items[m->curr_pos].variable) -= 0.1;
    219e:	1c30      	adds	r0, r6, #0
    21a0:	4b08      	ldr	r3, [pc, #32]	; (21c4 <menu_decrement_item+0xec>)
    21a2:	4798      	blx	r3
    21a4:	4a08      	ldr	r2, [pc, #32]	; (21c8 <menu_decrement_item+0xf0>)
    21a6:	4b09      	ldr	r3, [pc, #36]	; (21cc <menu_decrement_item+0xf4>)
    21a8:	4c09      	ldr	r4, [pc, #36]	; (21d0 <menu_decrement_item+0xf8>)
    21aa:	47a0      	blx	r4
    21ac:	4b09      	ldr	r3, [pc, #36]	; (21d4 <menu_decrement_item+0xfc>)
    21ae:	4798      	blx	r3
    21b0:	6038      	str	r0, [r7, #0]
}
    21b2:	e7a3      	b.n	20fc <menu_decrement_item+0x24>
    21b4:	00000265 	.word	0x00000265
    21b8:	0000409d 	.word	0x0000409d
    21bc:	00003729 	.word	0x00003729
    21c0:	0000413d 	.word	0x0000413d
    21c4:	00004e15 	.word	0x00004e15
    21c8:	9999999a 	.word	0x9999999a
    21cc:	3fb99999 	.word	0x3fb99999
    21d0:	000047e9 	.word	0x000047e9
    21d4:	00004eb9 	.word	0x00004eb9

000021d8 <menu_swap>:
void menu_swap(MENU **dest, MENU *src) {
    *dest = src;
    21d8:	6001      	str	r1, [r0, #0]
    21da:	4770      	bx	lr

000021dc <USB_transmit_enable>:
    21dc:	4a02      	ldr	r2, [pc, #8]	; (21e8 <USB_transmit_enable+0xc>)
    21de:	7813      	ldrb	r3, [r2, #0]
    21e0:	2104      	movs	r1, #4
    21e2:	430b      	orrs	r3, r1
    21e4:	7013      	strb	r3, [r2, #0]
    21e6:	4770      	bx	lr
    21e8:	20001b2c 	.word	0x20001b2c

000021ec <USB_transmit_callback>:
    21ec:	b510      	push	{r4, lr}
    21ee:	4b01      	ldr	r3, [pc, #4]	; (21f4 <USB_transmit_callback+0x8>)
    21f0:	4798      	blx	r3
    21f2:	bd10      	pop	{r4, pc}
    21f4:	000021dd 	.word	0x000021dd

000021f8 <USB_transmit_disable>:
    21f8:	4a02      	ldr	r2, [pc, #8]	; (2204 <USB_transmit_disable+0xc>)
    21fa:	7813      	ldrb	r3, [r2, #0]
    21fc:	2104      	movs	r1, #4
    21fe:	438b      	bics	r3, r1
    2200:	7013      	strb	r3, [r2, #0]
    2202:	4770      	bx	lr
    2204:	20001b2c 	.word	0x20001b2c

00002208 <USB_SendMessage>:
    2208:	b5f8      	push	{r3, r4, r5, r6, r7, lr}
    220a:	0004      	movs	r4, r0
    220c:	000d      	movs	r5, r1
    220e:	490b      	ldr	r1, [pc, #44]	; (223c <USB_SendMessage+0x34>)
    2210:	2204      	movs	r2, #4
    2212:	780b      	ldrb	r3, [r1, #0]
    2214:	4213      	tst	r3, r2
    2216:	d0fc      	beq.n	2212 <USB_SendMessage+0xa>
    2218:	4b09      	ldr	r3, [pc, #36]	; (2240 <USB_SendMessage+0x38>)
    221a:	4798      	blx	r3
    221c:	4e09      	ldr	r6, [pc, #36]	; (2244 <USB_SendMessage+0x3c>)
    221e:	4f0a      	ldr	r7, [pc, #40]	; (2248 <USB_SendMessage+0x40>)
    2220:	002a      	movs	r2, r5
    2222:	0021      	movs	r1, r4
    2224:	0030      	movs	r0, r6
    2226:	47b8      	blx	r7
    2228:	2800      	cmp	r0, #0
    222a:	d1f9      	bne.n	2220 <USB_SendMessage+0x18>
    222c:	4d05      	ldr	r5, [pc, #20]	; (2244 <USB_SendMessage+0x3c>)
    222e:	4c07      	ldr	r4, [pc, #28]	; (224c <USB_SendMessage+0x44>)
    2230:	2101      	movs	r1, #1
    2232:	0028      	movs	r0, r5
    2234:	47a0      	blx	r4
    2236:	2800      	cmp	r0, #0
    2238:	d1fa      	bne.n	2230 <USB_SendMessage+0x28>
    223a:	bdf8      	pop	{r3, r4, r5, r6, r7, pc}
    223c:	20001b2c 	.word	0x20001b2c
    2240:	000021f9 	.word	0x000021f9
    2244:	20001af8 	.word	0x20001af8
    2248:	00001865 	.word	0x00001865
    224c:	00001885 	.word	0x00001885

00002250 <configure_USB_callbacks>:
    2250:	b510      	push	{r4, lr}
    2252:	4c08      	ldr	r4, [pc, #32]	; (2274 <configure_USB_callbacks+0x24>)
    2254:	2200      	movs	r2, #0
    2256:	4908      	ldr	r1, [pc, #32]	; (2278 <configure_USB_callbacks+0x28>)
    2258:	0020      	movs	r0, r4
    225a:	4b08      	ldr	r3, [pc, #32]	; (227c <configure_USB_callbacks+0x2c>)
    225c:	4798      	blx	r3
    225e:	2231      	movs	r2, #49	; 0x31
    2260:	5ca3      	ldrb	r3, [r4, r2]
    2262:	2101      	movs	r1, #1
    2264:	430b      	orrs	r3, r1
    2266:	54a3      	strb	r3, [r4, r2]
    2268:	4905      	ldr	r1, [pc, #20]	; (2280 <configure_USB_callbacks+0x30>)
    226a:	0020      	movs	r0, r4
    226c:	4b05      	ldr	r3, [pc, #20]	; (2284 <configure_USB_callbacks+0x34>)
    226e:	4798      	blx	r3
    2270:	bd10      	pop	{r4, pc}
    2272:	46c0      	nop			; (mov r8, r8)
    2274:	20001af8 	.word	0x20001af8
    2278:	000021ed 	.word	0x000021ed
    227c:	0000183d 	.word	0x0000183d
    2280:	2000188e 	.word	0x2000188e
    2284:	00001855 	.word	0x00001855

00002288 <configure_USB>:
    2288:	b530      	push	{r4, r5, lr}
    228a:	b093      	sub	sp, #76	; 0x4c
    228c:	2380      	movs	r3, #128	; 0x80
    228e:	05db      	lsls	r3, r3, #23
    2290:	9300      	str	r3, [sp, #0]
    2292:	2300      	movs	r3, #0
    2294:	9301      	str	r3, [sp, #4]
    2296:	22ff      	movs	r2, #255	; 0xff
    2298:	4669      	mov	r1, sp
    229a:	810a      	strh	r2, [r1, #8]
    229c:	728b      	strb	r3, [r1, #10]
    229e:	72cb      	strb	r3, [r1, #11]
    22a0:	2101      	movs	r1, #1
    22a2:	222c      	movs	r2, #44	; 0x2c
    22a4:	4668      	mov	r0, sp
    22a6:	5481      	strb	r1, [r0, r2]
    22a8:	3201      	adds	r2, #1
    22aa:	5481      	strb	r1, [r0, r2]
    22ac:	3201      	adds	r2, #1
    22ae:	5483      	strb	r3, [r0, r2]
    22b0:	3201      	adds	r2, #1
    22b2:	5483      	strb	r3, [r0, r2]
    22b4:	930c      	str	r3, [sp, #48]	; 0x30
    22b6:	3205      	adds	r2, #5
    22b8:	5483      	strb	r3, [r0, r2]
    22ba:	9305      	str	r3, [sp, #20]
    22bc:	2200      	movs	r2, #0
    22be:	8203      	strh	r3, [r0, #16]
    22c0:	76c2      	strb	r2, [r0, #27]
    22c2:	9307      	str	r3, [sp, #28]
    22c4:	8403      	strh	r3, [r0, #32]
    22c6:	8443      	strh	r3, [r0, #34]	; 0x22
    22c8:	7602      	strb	r2, [r0, #24]
    22ca:	7642      	strb	r2, [r0, #25]
    22cc:	2313      	movs	r3, #19
    22ce:	7683      	strb	r3, [r0, #26]
    22d0:	3313      	adds	r3, #19
    22d2:	54c2      	strb	r2, [r0, r3]
    22d4:	3b01      	subs	r3, #1
    22d6:	54c2      	strb	r2, [r0, r3]
    22d8:	4b2f      	ldr	r3, [pc, #188]	; (2398 <configure_USB+0x110>)
    22da:	930a      	str	r3, [sp, #40]	; 0x28
    22dc:	2380      	movs	r3, #128	; 0x80
    22de:	035b      	lsls	r3, r3, #13
    22e0:	9303      	str	r3, [sp, #12]
    22e2:	4b2e      	ldr	r3, [pc, #184]	; (239c <configure_USB+0x114>)
    22e4:	930e      	str	r3, [sp, #56]	; 0x38
    22e6:	4b2e      	ldr	r3, [pc, #184]	; (23a0 <configure_USB+0x118>)
    22e8:	930f      	str	r3, [sp, #60]	; 0x3c
    22ea:	2301      	movs	r3, #1
    22ec:	425b      	negs	r3, r3
    22ee:	9310      	str	r3, [sp, #64]	; 0x40
    22f0:	9311      	str	r3, [sp, #68]	; 0x44
    22f2:	2203      	movs	r2, #3
    22f4:	3336      	adds	r3, #54	; 0x36
    22f6:	54c2      	strb	r2, [r0, r3]
    22f8:	3b11      	subs	r3, #17
    22fa:	54c1      	strb	r1, [r0, r3]
    22fc:	4d29      	ldr	r5, [pc, #164]	; (23a4 <configure_USB+0x11c>)
    22fe:	4c2a      	ldr	r4, [pc, #168]	; (23a8 <configure_USB+0x120>)
    2300:	466a      	mov	r2, sp
    2302:	492a      	ldr	r1, [pc, #168]	; (23ac <configure_USB+0x124>)
    2304:	0028      	movs	r0, r5
    2306:	47a0      	blx	r4
    2308:	2800      	cmp	r0, #0
    230a:	d1f9      	bne.n	2300 <configure_USB+0x78>
    230c:	4d25      	ldr	r5, [pc, #148]	; (23a4 <configure_USB+0x11c>)
    230e:	682c      	ldr	r4, [r5, #0]
    2310:	0020      	movs	r0, r4
    2312:	4b27      	ldr	r3, [pc, #156]	; (23b0 <configure_USB+0x128>)
    2314:	4798      	blx	r3
    2316:	231f      	movs	r3, #31
    2318:	4018      	ands	r0, r3
    231a:	3b1e      	subs	r3, #30
    231c:	4083      	lsls	r3, r0
    231e:	4a25      	ldr	r2, [pc, #148]	; (23b4 <configure_USB+0x12c>)
    2320:	6013      	str	r3, [r2, #0]
    2322:	682a      	ldr	r2, [r5, #0]
    2324:	69d3      	ldr	r3, [r2, #28]
    2326:	2b00      	cmp	r3, #0
    2328:	d1fc      	bne.n	2324 <configure_USB+0x9c>
    232a:	6823      	ldr	r3, [r4, #0]
    232c:	2202      	movs	r2, #2
    232e:	4313      	orrs	r3, r2
    2330:	6023      	str	r3, [r4, #0]
    2332:	4b1c      	ldr	r3, [pc, #112]	; (23a4 <configure_USB+0x11c>)
    2334:	681b      	ldr	r3, [r3, #0]
    2336:	69da      	ldr	r2, [r3, #28]
    2338:	2a00      	cmp	r2, #0
    233a:	d1fc      	bne.n	2336 <configure_USB+0xae>
    233c:	6859      	ldr	r1, [r3, #4]
    233e:	2280      	movs	r2, #128	; 0x80
    2340:	0252      	lsls	r2, r2, #9
    2342:	430a      	orrs	r2, r1
    2344:	605a      	str	r2, [r3, #4]
    2346:	2101      	movs	r1, #1
    2348:	4a16      	ldr	r2, [pc, #88]	; (23a4 <configure_USB+0x11c>)
    234a:	71d1      	strb	r1, [r2, #7]
    234c:	69da      	ldr	r2, [r3, #28]
    234e:	2a00      	cmp	r2, #0
    2350:	d1fc      	bne.n	234c <configure_USB+0xc4>
    2352:	69da      	ldr	r2, [r3, #28]
    2354:	2a00      	cmp	r2, #0
    2356:	d1fc      	bne.n	2352 <configure_USB+0xca>
    2358:	6859      	ldr	r1, [r3, #4]
    235a:	2280      	movs	r2, #128	; 0x80
    235c:	0292      	lsls	r2, r2, #10
    235e:	430a      	orrs	r2, r1
    2360:	605a      	str	r2, [r3, #4]
    2362:	2101      	movs	r1, #1
    2364:	4a0f      	ldr	r2, [pc, #60]	; (23a4 <configure_USB+0x11c>)
    2366:	7191      	strb	r1, [r2, #6]
    2368:	69da      	ldr	r2, [r3, #28]
    236a:	2a00      	cmp	r2, #0
    236c:	d1fc      	bne.n	2368 <configure_USB+0xe0>
    236e:	2000      	movs	r0, #0
    2370:	4b11      	ldr	r3, [pc, #68]	; (23b8 <configure_USB+0x130>)
    2372:	4798      	blx	r3
    2374:	0002      	movs	r2, r0
    2376:	2300      	movs	r3, #0
    2378:	4810      	ldr	r0, [pc, #64]	; (23bc <configure_USB+0x134>)
    237a:	2100      	movs	r1, #0
    237c:	1880      	adds	r0, r0, r2
    237e:	4159      	adcs	r1, r3
    2380:	4a0f      	ldr	r2, [pc, #60]	; (23c0 <configure_USB+0x138>)
    2382:	2300      	movs	r3, #0
    2384:	4c0f      	ldr	r4, [pc, #60]	; (23c4 <configure_USB+0x13c>)
    2386:	47a0      	blx	r4
    2388:	4b0f      	ldr	r3, [pc, #60]	; (23c8 <configure_USB+0x140>)
    238a:	4798      	blx	r3
    238c:	4b0f      	ldr	r3, [pc, #60]	; (23cc <configure_USB+0x144>)
    238e:	4798      	blx	r3
    2390:	4b0f      	ldr	r3, [pc, #60]	; (23d0 <configure_USB+0x148>)
    2392:	4798      	blx	r3
    2394:	b013      	add	sp, #76	; 0x4c
    2396:	bd30      	pop	{r4, r5, pc}
    2398:	0003d090 	.word	0x0003d090
    239c:	00100002 	.word	0x00100002
    23a0:	00110002 	.word	0x00110002
    23a4:	20001af8 	.word	0x20001af8
    23a8:	00001405 	.word	0x00001405
    23ac:	42000800 	.word	0x42000800
    23b0:	00001a7d 	.word	0x00001a7d
    23b4:	e000e100 	.word	0xe000e100
    23b8:	000028dd 	.word	0x000028dd
    23bc:	00001b57 	.word	0x00001b57
    23c0:	00001b58 	.word	0x00001b58
    23c4:	00003751 	.word	0x00003751
    23c8:	20000001 	.word	0x20000001
    23cc:	00002251 	.word	0x00002251
    23d0:	000021dd 	.word	0x000021dd

000023d4 <millis>:
    23d4:	4b01      	ldr	r3, [pc, #4]	; (23dc <millis+0x8>)
    23d6:	6818      	ldr	r0, [r3, #0]
    23d8:	4770      	bx	lr
    23da:	46c0      	nop			; (mov r8, r8)
    23dc:	200000c8 	.word	0x200000c8

000023e0 <get_encoder_status>:
    23e0:	4b01      	ldr	r3, [pc, #4]	; (23e8 <get_encoder_status+0x8>)
    23e2:	7818      	ldrb	r0, [r3, #0]
    23e4:	4770      	bx	lr
    23e6:	46c0      	nop			; (mov r8, r8)
    23e8:	20001d3c 	.word	0x20001d3c

000023ec <process_encoder>:
    23ec:	4b26      	ldr	r3, [pc, #152]	; (2488 <process_encoder+0x9c>)
    23ee:	6a1a      	ldr	r2, [r3, #32]
    23f0:	6a19      	ldr	r1, [r3, #32]
    23f2:	0dc9      	lsrs	r1, r1, #23
    23f4:	2001      	movs	r0, #1
    23f6:	0003      	movs	r3, r0
    23f8:	438b      	bics	r3, r1
    23fa:	005b      	lsls	r3, r3, #1
    23fc:	0d92      	lsrs	r2, r2, #22
    23fe:	4042      	eors	r2, r0
    2400:	2101      	movs	r1, #1
    2402:	400a      	ands	r2, r1
    2404:	4313      	orrs	r3, r2
    2406:	2b01      	cmp	r3, #1
    2408:	d009      	beq.n	241e <process_encoder+0x32>
    240a:	2b02      	cmp	r3, #2
    240c:	d021      	beq.n	2452 <process_encoder+0x66>
    240e:	2b00      	cmp	r3, #0
    2410:	d000      	beq.n	2414 <process_encoder+0x28>
    2412:	4770      	bx	lr
    2414:	4a1d      	ldr	r2, [pc, #116]	; (248c <process_encoder+0xa0>)
    2416:	7013      	strb	r3, [r2, #0]
    2418:	4a1d      	ldr	r2, [pc, #116]	; (2490 <process_encoder+0xa4>)
    241a:	7013      	strb	r3, [r2, #0]
    241c:	e7f9      	b.n	2412 <process_encoder+0x26>
    241e:	4b1b      	ldr	r3, [pc, #108]	; (248c <process_encoder+0xa0>)
    2420:	781b      	ldrb	r3, [r3, #0]
    2422:	2b00      	cmp	r3, #0
    2424:	d008      	beq.n	2438 <process_encoder+0x4c>
    2426:	2b02      	cmp	r3, #2
    2428:	d1f3      	bne.n	2412 <process_encoder+0x26>
    242a:	2200      	movs	r2, #0
    242c:	4b17      	ldr	r3, [pc, #92]	; (248c <process_encoder+0xa0>)
    242e:	701a      	strb	r2, [r3, #0]
    2430:	3201      	adds	r2, #1
    2432:	4b17      	ldr	r3, [pc, #92]	; (2490 <process_encoder+0xa4>)
    2434:	701a      	strb	r2, [r3, #0]
    2436:	e7ec      	b.n	2412 <process_encoder+0x26>
    2438:	2201      	movs	r2, #1
    243a:	4b14      	ldr	r3, [pc, #80]	; (248c <process_encoder+0xa0>)
    243c:	701a      	strb	r2, [r3, #0]
    243e:	4915      	ldr	r1, [pc, #84]	; (2494 <process_encoder+0xa8>)
    2440:	680b      	ldr	r3, [r1, #0]
    2442:	4a15      	ldr	r2, [pc, #84]	; (2498 <process_encoder+0xac>)
    2444:	6810      	ldr	r0, [r2, #0]
    2446:	1a1b      	subs	r3, r3, r0
    2448:	4814      	ldr	r0, [pc, #80]	; (249c <process_encoder+0xb0>)
    244a:	6003      	str	r3, [r0, #0]
    244c:	680b      	ldr	r3, [r1, #0]
    244e:	6013      	str	r3, [r2, #0]
    2450:	e7df      	b.n	2412 <process_encoder+0x26>
    2452:	4b0e      	ldr	r3, [pc, #56]	; (248c <process_encoder+0xa0>)
    2454:	781b      	ldrb	r3, [r3, #0]
    2456:	2b00      	cmp	r3, #0
    2458:	d008      	beq.n	246c <process_encoder+0x80>
    245a:	2b01      	cmp	r3, #1
    245c:	d1d9      	bne.n	2412 <process_encoder+0x26>
    245e:	2200      	movs	r2, #0
    2460:	4b0a      	ldr	r3, [pc, #40]	; (248c <process_encoder+0xa0>)
    2462:	701a      	strb	r2, [r3, #0]
    2464:	3202      	adds	r2, #2
    2466:	4b0a      	ldr	r3, [pc, #40]	; (2490 <process_encoder+0xa4>)
    2468:	701a      	strb	r2, [r3, #0]
    246a:	e7d2      	b.n	2412 <process_encoder+0x26>
    246c:	2202      	movs	r2, #2
    246e:	4b07      	ldr	r3, [pc, #28]	; (248c <process_encoder+0xa0>)
    2470:	701a      	strb	r2, [r3, #0]
    2472:	4908      	ldr	r1, [pc, #32]	; (2494 <process_encoder+0xa8>)
    2474:	680b      	ldr	r3, [r1, #0]
    2476:	4a08      	ldr	r2, [pc, #32]	; (2498 <process_encoder+0xac>)
    2478:	6810      	ldr	r0, [r2, #0]
    247a:	1a1b      	subs	r3, r3, r0
    247c:	4807      	ldr	r0, [pc, #28]	; (249c <process_encoder+0xb0>)
    247e:	6003      	str	r3, [r0, #0]
    2480:	680b      	ldr	r3, [r1, #0]
    2482:	6013      	str	r3, [r2, #0]
    2484:	e7c5      	b.n	2412 <process_encoder+0x26>
    2486:	46c0      	nop			; (mov r8, r8)
    2488:	41000080 	.word	0x41000080
    248c:	20001d44 	.word	0x20001d44
    2490:	20001d3c 	.word	0x20001d3c
    2494:	200000c8 	.word	0x200000c8
    2498:	200000c4 	.word	0x200000c4
    249c:	200000c0 	.word	0x200000c0

000024a0 <timer0_compare_callback>:
    24a0:	b510      	push	{r4, lr}
    24a2:	4b0b      	ldr	r3, [pc, #44]	; (24d0 <timer0_compare_callback+0x30>)
    24a4:	6818      	ldr	r0, [r3, #0]
    24a6:	4c0b      	ldr	r4, [pc, #44]	; (24d4 <timer0_compare_callback+0x34>)
    24a8:	47a0      	blx	r4
    24aa:	4b0b      	ldr	r3, [pc, #44]	; (24d8 <timer0_compare_callback+0x38>)
    24ac:	6818      	ldr	r0, [r3, #0]
    24ae:	47a0      	blx	r4
    24b0:	4b0a      	ldr	r3, [pc, #40]	; (24dc <timer0_compare_callback+0x3c>)
    24b2:	6818      	ldr	r0, [r3, #0]
    24b4:	47a0      	blx	r4
    24b6:	4b0a      	ldr	r3, [pc, #40]	; (24e0 <timer0_compare_callback+0x40>)
    24b8:	6818      	ldr	r0, [r3, #0]
    24ba:	47a0      	blx	r4
    24bc:	4b09      	ldr	r3, [pc, #36]	; (24e4 <timer0_compare_callback+0x44>)
    24be:	6818      	ldr	r0, [r3, #0]
    24c0:	47a0      	blx	r4
    24c2:	4a09      	ldr	r2, [pc, #36]	; (24e8 <timer0_compare_callback+0x48>)
    24c4:	6813      	ldr	r3, [r2, #0]
    24c6:	3301      	adds	r3, #1
    24c8:	6013      	str	r3, [r2, #0]
    24ca:	4b08      	ldr	r3, [pc, #32]	; (24ec <timer0_compare_callback+0x4c>)
    24cc:	4798      	blx	r3
    24ce:	bd10      	pop	{r4, pc}
    24d0:	20001d8c 	.word	0x20001d8c
    24d4:	00000509 	.word	0x00000509
    24d8:	20001d38 	.word	0x20001d38
    24dc:	20001d48 	.word	0x20001d48
    24e0:	20001d40 	.word	0x20001d40
    24e4:	20001d90 	.word	0x20001d90
    24e8:	200000c8 	.word	0x200000c8
    24ec:	000023ed 	.word	0x000023ed

000024f0 <configure_tcc0>:
    24f0:	b570      	push	{r4, r5, r6, lr}
    24f2:	b0aa      	sub	sp, #168	; 0xa8
    24f4:	4e0e      	ldr	r6, [pc, #56]	; (2530 <configure_tcc0+0x40>)
    24f6:	ac01      	add	r4, sp, #4
    24f8:	0031      	movs	r1, r6
    24fa:	0020      	movs	r0, r4
    24fc:	4b0d      	ldr	r3, [pc, #52]	; (2534 <configure_tcc0+0x44>)
    24fe:	4798      	blx	r3
    2500:	2306      	movs	r3, #6
    2502:	72a3      	strb	r3, [r4, #10]
    2504:	3b02      	subs	r3, #2
    2506:	72e3      	strb	r3, [r4, #11]
    2508:	33f6      	adds	r3, #246	; 0xf6
    250a:	6063      	str	r3, [r4, #4]
    250c:	4d0a      	ldr	r5, [pc, #40]	; (2538 <configure_tcc0+0x48>)
    250e:	0022      	movs	r2, r4
    2510:	0031      	movs	r1, r6
    2512:	0028      	movs	r0, r5
    2514:	4b09      	ldr	r3, [pc, #36]	; (253c <configure_tcc0+0x4c>)
    2516:	4798      	blx	r3
    2518:	682a      	ldr	r2, [r5, #0]
    251a:	2102      	movs	r1, #2
    251c:	6893      	ldr	r3, [r2, #8]
    251e:	4219      	tst	r1, r3
    2520:	d1fc      	bne.n	251c <configure_tcc0+0x2c>
    2522:	6813      	ldr	r3, [r2, #0]
    2524:	2102      	movs	r1, #2
    2526:	430b      	orrs	r3, r1
    2528:	6013      	str	r3, [r2, #0]
    252a:	b02a      	add	sp, #168	; 0xa8
    252c:	bd70      	pop	{r4, r5, r6, pc}
    252e:	46c0      	nop			; (mov r8, r8)
    2530:	42002400 	.word	0x42002400
    2534:	00000e01 	.word	0x00000e01
    2538:	20001d4c 	.word	0x20001d4c
    253c:	00000f4d 	.word	0x00000f4d

00002540 <configure_tcc0_callbacks>:
    2540:	b5f0      	push	{r4, r5, r6, r7, lr}
    2542:	46c6      	mov	lr, r8
    2544:	b500      	push	{lr}
    2546:	4680      	mov	r8, r0
    2548:	000f      	movs	r7, r1
    254a:	0016      	movs	r6, r2
    254c:	001d      	movs	r5, r3
    254e:	4b0d      	ldr	r3, [pc, #52]	; (2584 <configure_tcc0_callbacks+0x44>)
    2550:	4798      	blx	r3
    2552:	4c0d      	ldr	r4, [pc, #52]	; (2588 <configure_tcc0_callbacks+0x48>)
    2554:	2200      	movs	r2, #0
    2556:	490d      	ldr	r1, [pc, #52]	; (258c <configure_tcc0_callbacks+0x4c>)
    2558:	0020      	movs	r0, r4
    255a:	4b0d      	ldr	r3, [pc, #52]	; (2590 <configure_tcc0_callbacks+0x50>)
    255c:	4798      	blx	r3
    255e:	2100      	movs	r1, #0
    2560:	0020      	movs	r0, r4
    2562:	4b0c      	ldr	r3, [pc, #48]	; (2594 <configure_tcc0_callbacks+0x54>)
    2564:	4798      	blx	r3
    2566:	4b0c      	ldr	r3, [pc, #48]	; (2598 <configure_tcc0_callbacks+0x58>)
    2568:	4642      	mov	r2, r8
    256a:	601a      	str	r2, [r3, #0]
    256c:	4b0b      	ldr	r3, [pc, #44]	; (259c <configure_tcc0_callbacks+0x5c>)
    256e:	601f      	str	r7, [r3, #0]
    2570:	4b0b      	ldr	r3, [pc, #44]	; (25a0 <configure_tcc0_callbacks+0x60>)
    2572:	601e      	str	r6, [r3, #0]
    2574:	4b0b      	ldr	r3, [pc, #44]	; (25a4 <configure_tcc0_callbacks+0x64>)
    2576:	601d      	str	r5, [r3, #0]
    2578:	4b0b      	ldr	r3, [pc, #44]	; (25a8 <configure_tcc0_callbacks+0x68>)
    257a:	9a06      	ldr	r2, [sp, #24]
    257c:	601a      	str	r2, [r3, #0]
    257e:	bc04      	pop	{r2}
    2580:	4690      	mov	r8, r2
    2582:	bdf0      	pop	{r4, r5, r6, r7, pc}
    2584:	000023ed 	.word	0x000023ed
    2588:	20001d4c 	.word	0x20001d4c
    258c:	000024a1 	.word	0x000024a1
    2590:	00001331 	.word	0x00001331
    2594:	00001349 	.word	0x00001349
    2598:	20001d8c 	.word	0x20001d8c
    259c:	20001d38 	.word	0x20001d38
    25a0:	20001d48 	.word	0x20001d48
    25a4:	20001d40 	.word	0x20001d40
    25a8:	20001d90 	.word	0x20001d90

000025ac <get_encoder_speed>:
    25ac:	4b08      	ldr	r3, [pc, #32]	; (25d0 <get_encoder_speed+0x24>)
    25ae:	681b      	ldr	r3, [r3, #0]
    25b0:	2001      	movs	r0, #1
    25b2:	2b32      	cmp	r3, #50	; 0x32
    25b4:	d804      	bhi.n	25c0 <get_encoder_speed+0x14>
    25b6:	4b06      	ldr	r3, [pc, #24]	; (25d0 <get_encoder_speed+0x24>)
    25b8:	681b      	ldr	r3, [r3, #0]
    25ba:	3002      	adds	r0, #2
    25bc:	2b23      	cmp	r3, #35	; 0x23
    25be:	d900      	bls.n	25c2 <get_encoder_speed+0x16>
    25c0:	4770      	bx	lr
    25c2:	4b03      	ldr	r3, [pc, #12]	; (25d0 <get_encoder_speed+0x24>)
    25c4:	681b      	ldr	r3, [r3, #0]
    25c6:	3002      	adds	r0, #2
    25c8:	2b0f      	cmp	r3, #15
    25ca:	d8f9      	bhi.n	25c0 <get_encoder_speed+0x14>
    25cc:	3005      	adds	r0, #5
    25ce:	e7f7      	b.n	25c0 <get_encoder_speed+0x14>
    25d0:	200000c0 	.word	0x200000c0

000025d4 <system_board_init>:
{
	/* This function is meant to contain board-specific initialization code
	 * for, e.g., the I/O pins. The initialization can rely on application-
	 * specific board configuration, found in conf_board.h.
	 */
    25d4:	4770      	bx	lr
	...

000025d8 <cpu_irq_enter_critical>:
    25d8:	4b0c      	ldr	r3, [pc, #48]	; (260c <cpu_irq_enter_critical+0x34>)
    25da:	681b      	ldr	r3, [r3, #0]
    25dc:	2b00      	cmp	r3, #0
    25de:	d106      	bne.n	25ee <cpu_irq_enter_critical+0x16>
    25e0:	f3ef 8310 	mrs	r3, PRIMASK
    25e4:	2b00      	cmp	r3, #0
    25e6:	d007      	beq.n	25f8 <cpu_irq_enter_critical+0x20>
    25e8:	2200      	movs	r2, #0
    25ea:	4b09      	ldr	r3, [pc, #36]	; (2610 <cpu_irq_enter_critical+0x38>)
    25ec:	701a      	strb	r2, [r3, #0]
    25ee:	4a07      	ldr	r2, [pc, #28]	; (260c <cpu_irq_enter_critical+0x34>)
    25f0:	6813      	ldr	r3, [r2, #0]
    25f2:	3301      	adds	r3, #1
    25f4:	6013      	str	r3, [r2, #0]
    25f6:	4770      	bx	lr
    25f8:	b672      	cpsid	i
    25fa:	f3bf 8f5f 	dmb	sy
    25fe:	2200      	movs	r2, #0
    2600:	4b04      	ldr	r3, [pc, #16]	; (2614 <cpu_irq_enter_critical+0x3c>)
    2602:	701a      	strb	r2, [r3, #0]
    2604:	3201      	adds	r2, #1
    2606:	4b02      	ldr	r3, [pc, #8]	; (2610 <cpu_irq_enter_critical+0x38>)
    2608:	701a      	strb	r2, [r3, #0]
    260a:	e7f0      	b.n	25ee <cpu_irq_enter_critical+0x16>
    260c:	200000cc 	.word	0x200000cc
    2610:	200000d0 	.word	0x200000d0
    2614:	20000014 	.word	0x20000014

00002618 <cpu_irq_leave_critical>:
    2618:	4b08      	ldr	r3, [pc, #32]	; (263c <cpu_irq_leave_critical+0x24>)
    261a:	681a      	ldr	r2, [r3, #0]
    261c:	3a01      	subs	r2, #1
    261e:	601a      	str	r2, [r3, #0]
    2620:	681b      	ldr	r3, [r3, #0]
    2622:	2b00      	cmp	r3, #0
    2624:	d109      	bne.n	263a <cpu_irq_leave_critical+0x22>
    2626:	4b06      	ldr	r3, [pc, #24]	; (2640 <cpu_irq_leave_critical+0x28>)
    2628:	781b      	ldrb	r3, [r3, #0]
    262a:	2b00      	cmp	r3, #0
    262c:	d005      	beq.n	263a <cpu_irq_leave_critical+0x22>
    262e:	2201      	movs	r2, #1
    2630:	4b04      	ldr	r3, [pc, #16]	; (2644 <cpu_irq_leave_critical+0x2c>)
    2632:	701a      	strb	r2, [r3, #0]
    2634:	f3bf 8f5f 	dmb	sy
    2638:	b662      	cpsie	i
    263a:	4770      	bx	lr
    263c:	200000cc 	.word	0x200000cc
    2640:	200000d0 	.word	0x200000d0
    2644:	20000014 	.word	0x20000014

00002648 <system_clock_source_get_hz>:
    2648:	b510      	push	{r4, lr}
    264a:	2807      	cmp	r0, #7
    264c:	d803      	bhi.n	2656 <system_clock_source_get_hz+0xe>
    264e:	0080      	lsls	r0, r0, #2
    2650:	4b0f      	ldr	r3, [pc, #60]	; (2690 <system_clock_source_get_hz+0x48>)
    2652:	581b      	ldr	r3, [r3, r0]
    2654:	469f      	mov	pc, r3
    2656:	2000      	movs	r0, #0
    2658:	e018      	b.n	268c <system_clock_source_get_hz+0x44>
    265a:	4b0e      	ldr	r3, [pc, #56]	; (2694 <system_clock_source_get_hz+0x4c>)
    265c:	6858      	ldr	r0, [r3, #4]
    265e:	e015      	b.n	268c <system_clock_source_get_hz+0x44>
    2660:	4b0d      	ldr	r3, [pc, #52]	; (2698 <system_clock_source_get_hz+0x50>)
    2662:	7d59      	ldrb	r1, [r3, #21]
    2664:	0709      	lsls	r1, r1, #28
    2666:	0f09      	lsrs	r1, r1, #28
    2668:	3101      	adds	r1, #1
    266a:	480c      	ldr	r0, [pc, #48]	; (269c <system_clock_source_get_hz+0x54>)
    266c:	4b0c      	ldr	r3, [pc, #48]	; (26a0 <system_clock_source_get_hz+0x58>)
    266e:	4798      	blx	r3
    2670:	e00c      	b.n	268c <system_clock_source_get_hz+0x44>
    2672:	4b08      	ldr	r3, [pc, #32]	; (2694 <system_clock_source_get_hz+0x4c>)
    2674:	6898      	ldr	r0, [r3, #8]
    2676:	e009      	b.n	268c <system_clock_source_get_hz+0x44>
    2678:	4b07      	ldr	r3, [pc, #28]	; (2698 <system_clock_source_get_hz+0x50>)
    267a:	7f1b      	ldrb	r3, [r3, #28]
    267c:	2000      	movs	r0, #0
    267e:	079b      	lsls	r3, r3, #30
    2680:	d504      	bpl.n	268c <system_clock_source_get_hz+0x44>
    2682:	4b04      	ldr	r3, [pc, #16]	; (2694 <system_clock_source_get_hz+0x4c>)
    2684:	6818      	ldr	r0, [r3, #0]
    2686:	e001      	b.n	268c <system_clock_source_get_hz+0x44>
    2688:	2080      	movs	r0, #128	; 0x80
    268a:	0200      	lsls	r0, r0, #8
    268c:	bd10      	pop	{r4, pc}
    268e:	46c0      	nop			; (mov r8, r8)
    2690:	00005a00 	.word	0x00005a00
    2694:	200000d4 	.word	0x200000d4
    2698:	40001000 	.word	0x40001000
    269c:	02dc6c00 	.word	0x02dc6c00
    26a0:	000035c5 	.word	0x000035c5

000026a4 <system_clock_init>:
    26a4:	b5f0      	push	{r4, r5, r6, r7, lr}
    26a6:	46ce      	mov	lr, r9
    26a8:	4647      	mov	r7, r8
    26aa:	b580      	push	{r7, lr}
    26ac:	b085      	sub	sp, #20
    26ae:	2203      	movs	r2, #3
    26b0:	4b3f      	ldr	r3, [pc, #252]	; (27b0 <system_clock_init+0x10c>)
    26b2:	609a      	str	r2, [r3, #8]
    26b4:	4a3f      	ldr	r2, [pc, #252]	; (27b4 <system_clock_init+0x110>)
    26b6:	6853      	ldr	r3, [r2, #4]
    26b8:	211e      	movs	r1, #30
    26ba:	438b      	bics	r3, r1
    26bc:	6053      	str	r3, [r2, #4]
    26be:	4a3e      	ldr	r2, [pc, #248]	; (27b8 <system_clock_init+0x114>)
    26c0:	7d13      	ldrb	r3, [r2, #20]
    26c2:	3162      	adds	r1, #98	; 0x62
    26c4:	430b      	orrs	r3, r1
    26c6:	7513      	strb	r3, [r2, #20]
    26c8:	4b3c      	ldr	r3, [pc, #240]	; (27bc <system_clock_init+0x118>)
    26ca:	4798      	blx	r3
    26cc:	ac01      	add	r4, sp, #4
    26ce:	2601      	movs	r6, #1
    26d0:	6066      	str	r6, [r4, #4]
    26d2:	2500      	movs	r5, #0
    26d4:	7065      	strb	r5, [r4, #1]
    26d6:	2306      	movs	r3, #6
    26d8:	4699      	mov	r9, r3
    26da:	7023      	strb	r3, [r4, #0]
    26dc:	7225      	strb	r5, [r4, #8]
    26de:	7265      	strb	r5, [r4, #9]
    26e0:	0021      	movs	r1, r4
    26e2:	2001      	movs	r0, #1
    26e4:	4b36      	ldr	r3, [pc, #216]	; (27c0 <system_clock_init+0x11c>)
    26e6:	4698      	mov	r8, r3
    26e8:	4798      	blx	r3
    26ea:	2001      	movs	r0, #1
    26ec:	4f35      	ldr	r7, [pc, #212]	; (27c4 <system_clock_init+0x120>)
    26ee:	47b8      	blx	r7
    26f0:	6066      	str	r6, [r4, #4]
    26f2:	7065      	strb	r5, [r4, #1]
    26f4:	464b      	mov	r3, r9
    26f6:	7023      	strb	r3, [r4, #0]
    26f8:	7225      	strb	r5, [r4, #8]
    26fa:	7265      	strb	r5, [r4, #9]
    26fc:	0021      	movs	r1, r4
    26fe:	2002      	movs	r0, #2
    2700:	47c0      	blx	r8
    2702:	2002      	movs	r0, #2
    2704:	47b8      	blx	r7
    2706:	6066      	str	r6, [r4, #4]
    2708:	7065      	strb	r5, [r4, #1]
    270a:	464b      	mov	r3, r9
    270c:	7023      	strb	r3, [r4, #0]
    270e:	7225      	strb	r5, [r4, #8]
    2710:	7265      	strb	r5, [r4, #9]
    2712:	0021      	movs	r1, r4
    2714:	2003      	movs	r0, #3
    2716:	47c0      	blx	r8
    2718:	2003      	movs	r0, #3
    271a:	47b8      	blx	r7
    271c:	6066      	str	r6, [r4, #4]
    271e:	7065      	strb	r5, [r4, #1]
    2720:	464b      	mov	r3, r9
    2722:	7023      	strb	r3, [r4, #0]
    2724:	7225      	strb	r5, [r4, #8]
    2726:	7265      	strb	r5, [r4, #9]
    2728:	0021      	movs	r1, r4
    272a:	2004      	movs	r0, #4
    272c:	47c0      	blx	r8
    272e:	2004      	movs	r0, #4
    2730:	47b8      	blx	r7
    2732:	6066      	str	r6, [r4, #4]
    2734:	7065      	strb	r5, [r4, #1]
    2736:	464b      	mov	r3, r9
    2738:	7023      	strb	r3, [r4, #0]
    273a:	7225      	strb	r5, [r4, #8]
    273c:	7265      	strb	r5, [r4, #9]
    273e:	0021      	movs	r1, r4
    2740:	2005      	movs	r0, #5
    2742:	47c0      	blx	r8
    2744:	2005      	movs	r0, #5
    2746:	47b8      	blx	r7
    2748:	6066      	str	r6, [r4, #4]
    274a:	7065      	strb	r5, [r4, #1]
    274c:	464b      	mov	r3, r9
    274e:	7023      	strb	r3, [r4, #0]
    2750:	7225      	strb	r5, [r4, #8]
    2752:	7265      	strb	r5, [r4, #9]
    2754:	0021      	movs	r1, r4
    2756:	2006      	movs	r0, #6
    2758:	47c0      	blx	r8
    275a:	2006      	movs	r0, #6
    275c:	47b8      	blx	r7
    275e:	6066      	str	r6, [r4, #4]
    2760:	7065      	strb	r5, [r4, #1]
    2762:	464b      	mov	r3, r9
    2764:	7023      	strb	r3, [r4, #0]
    2766:	7225      	strb	r5, [r4, #8]
    2768:	7265      	strb	r5, [r4, #9]
    276a:	0021      	movs	r1, r4
    276c:	2007      	movs	r0, #7
    276e:	47c0      	blx	r8
    2770:	2007      	movs	r0, #7
    2772:	47b8      	blx	r7
    2774:	6066      	str	r6, [r4, #4]
    2776:	7065      	strb	r5, [r4, #1]
    2778:	464b      	mov	r3, r9
    277a:	7023      	strb	r3, [r4, #0]
    277c:	7225      	strb	r5, [r4, #8]
    277e:	7265      	strb	r5, [r4, #9]
    2780:	0021      	movs	r1, r4
    2782:	2008      	movs	r0, #8
    2784:	47c0      	blx	r8
    2786:	2008      	movs	r0, #8
    2788:	47b8      	blx	r7
    278a:	4b0f      	ldr	r3, [pc, #60]	; (27c8 <system_clock_init+0x124>)
    278c:	711e      	strb	r6, [r3, #4]
    278e:	6066      	str	r6, [r4, #4]
    2790:	7065      	strb	r5, [r4, #1]
    2792:	464b      	mov	r3, r9
    2794:	7023      	strb	r3, [r4, #0]
    2796:	7225      	strb	r5, [r4, #8]
    2798:	7265      	strb	r5, [r4, #9]
    279a:	0021      	movs	r1, r4
    279c:	2000      	movs	r0, #0
    279e:	47c0      	blx	r8
    27a0:	2000      	movs	r0, #0
    27a2:	47b8      	blx	r7
    27a4:	b005      	add	sp, #20
    27a6:	bc0c      	pop	{r2, r3}
    27a8:	4690      	mov	r8, r2
    27aa:	4699      	mov	r9, r3
    27ac:	bdf0      	pop	{r4, r5, r6, r7, pc}
    27ae:	46c0      	nop			; (mov r8, r8)
    27b0:	40001800 	.word	0x40001800
    27b4:	41004000 	.word	0x41004000
    27b8:	40001000 	.word	0x40001000
    27bc:	000027cd 	.word	0x000027cd
    27c0:	000027f1 	.word	0x000027f1
    27c4:	0000289d 	.word	0x0000289d
    27c8:	40000800 	.word	0x40000800

000027cc <system_gclk_init>:
    27cc:	4a06      	ldr	r2, [pc, #24]	; (27e8 <system_gclk_init+0x1c>)
    27ce:	6953      	ldr	r3, [r2, #20]
    27d0:	2180      	movs	r1, #128	; 0x80
    27d2:	430b      	orrs	r3, r1
    27d4:	6153      	str	r3, [r2, #20]
    27d6:	2201      	movs	r2, #1
    27d8:	4b04      	ldr	r3, [pc, #16]	; (27ec <system_gclk_init+0x20>)
    27da:	701a      	strb	r2, [r3, #0]
    27dc:	0019      	movs	r1, r3
    27de:	780b      	ldrb	r3, [r1, #0]
    27e0:	4213      	tst	r3, r2
    27e2:	d1fc      	bne.n	27de <system_gclk_init+0x12>
    27e4:	4770      	bx	lr
    27e6:	46c0      	nop			; (mov r8, r8)
    27e8:	40000800 	.word	0x40000800
    27ec:	40001c00 	.word	0x40001c00

000027f0 <system_gclk_gen_set_config>:
    27f0:	b570      	push	{r4, r5, r6, lr}
    27f2:	0004      	movs	r4, r0
    27f4:	780d      	ldrb	r5, [r1, #0]
    27f6:	784b      	ldrb	r3, [r1, #1]
    27f8:	2b00      	cmp	r3, #0
    27fa:	d002      	beq.n	2802 <system_gclk_gen_set_config+0x12>
    27fc:	2380      	movs	r3, #128	; 0x80
    27fe:	00db      	lsls	r3, r3, #3
    2800:	431d      	orrs	r5, r3
    2802:	7a4b      	ldrb	r3, [r1, #9]
    2804:	2b00      	cmp	r3, #0
    2806:	d002      	beq.n	280e <system_gclk_gen_set_config+0x1e>
    2808:	2380      	movs	r3, #128	; 0x80
    280a:	011b      	lsls	r3, r3, #4
    280c:	431d      	orrs	r5, r3
    280e:	6848      	ldr	r0, [r1, #4]
    2810:	2801      	cmp	r0, #1
    2812:	d90f      	bls.n	2834 <system_gclk_gen_set_config+0x44>
    2814:	1e43      	subs	r3, r0, #1
    2816:	4218      	tst	r0, r3
    2818:	d131      	bne.n	287e <system_gclk_gen_set_config+0x8e>
    281a:	2802      	cmp	r0, #2
    281c:	d92d      	bls.n	287a <system_gclk_gen_set_config+0x8a>
    281e:	2302      	movs	r3, #2
    2820:	2200      	movs	r2, #0
    2822:	3201      	adds	r2, #1
    2824:	005b      	lsls	r3, r3, #1
    2826:	4298      	cmp	r0, r3
    2828:	d8fb      	bhi.n	2822 <system_gclk_gen_set_config+0x32>
    282a:	2380      	movs	r3, #128	; 0x80
    282c:	015b      	lsls	r3, r3, #5
    282e:	431d      	orrs	r5, r3
    2830:	0412      	lsls	r2, r2, #16
    2832:	4315      	orrs	r5, r2
    2834:	7a0b      	ldrb	r3, [r1, #8]
    2836:	2b00      	cmp	r3, #0
    2838:	d002      	beq.n	2840 <system_gclk_gen_set_config+0x50>
    283a:	2380      	movs	r3, #128	; 0x80
    283c:	019b      	lsls	r3, r3, #6
    283e:	431d      	orrs	r5, r3
    2840:	2604      	movs	r6, #4
    2842:	40a6      	lsls	r6, r4
    2844:	4911      	ldr	r1, [pc, #68]	; (288c <system_gclk_gen_set_config+0x9c>)
    2846:	4a12      	ldr	r2, [pc, #72]	; (2890 <system_gclk_gen_set_config+0xa0>)
    2848:	684b      	ldr	r3, [r1, #4]
    284a:	4013      	ands	r3, r2
    284c:	421e      	tst	r6, r3
    284e:	d1fb      	bne.n	2848 <system_gclk_gen_set_config+0x58>
    2850:	4b10      	ldr	r3, [pc, #64]	; (2894 <system_gclk_gen_set_config+0xa4>)
    2852:	4798      	blx	r3
    2854:	00a4      	lsls	r4, r4, #2
    2856:	4b0d      	ldr	r3, [pc, #52]	; (288c <system_gclk_gen_set_config+0x9c>)
    2858:	469c      	mov	ip, r3
    285a:	4464      	add	r4, ip
    285c:	6a22      	ldr	r2, [r4, #32]
    285e:	2380      	movs	r3, #128	; 0x80
    2860:	005b      	lsls	r3, r3, #1
    2862:	401a      	ands	r2, r3
    2864:	432a      	orrs	r2, r5
    2866:	6222      	str	r2, [r4, #32]
    2868:	4661      	mov	r1, ip
    286a:	4a09      	ldr	r2, [pc, #36]	; (2890 <system_gclk_gen_set_config+0xa0>)
    286c:	684b      	ldr	r3, [r1, #4]
    286e:	4013      	ands	r3, r2
    2870:	421e      	tst	r6, r3
    2872:	d1fb      	bne.n	286c <system_gclk_gen_set_config+0x7c>
    2874:	4b08      	ldr	r3, [pc, #32]	; (2898 <system_gclk_gen_set_config+0xa8>)
    2876:	4798      	blx	r3
    2878:	bd70      	pop	{r4, r5, r6, pc}
    287a:	2200      	movs	r2, #0
    287c:	e7d5      	b.n	282a <system_gclk_gen_set_config+0x3a>
    287e:	0400      	lsls	r0, r0, #16
    2880:	2380      	movs	r3, #128	; 0x80
    2882:	009b      	lsls	r3, r3, #2
    2884:	4318      	orrs	r0, r3
    2886:	4305      	orrs	r5, r0
    2888:	e7d4      	b.n	2834 <system_gclk_gen_set_config+0x44>
    288a:	46c0      	nop			; (mov r8, r8)
    288c:	40001c00 	.word	0x40001c00
    2890:	000007fc 	.word	0x000007fc
    2894:	000025d9 	.word	0x000025d9
    2898:	00002619 	.word	0x00002619

0000289c <system_gclk_gen_enable>:
    289c:	b510      	push	{r4, lr}
    289e:	0004      	movs	r4, r0
    28a0:	2204      	movs	r2, #4
    28a2:	4082      	lsls	r2, r0
    28a4:	4809      	ldr	r0, [pc, #36]	; (28cc <system_gclk_gen_enable+0x30>)
    28a6:	490a      	ldr	r1, [pc, #40]	; (28d0 <system_gclk_gen_enable+0x34>)
    28a8:	6843      	ldr	r3, [r0, #4]
    28aa:	400b      	ands	r3, r1
    28ac:	421a      	tst	r2, r3
    28ae:	d1fb      	bne.n	28a8 <system_gclk_gen_enable+0xc>
    28b0:	4b08      	ldr	r3, [pc, #32]	; (28d4 <system_gclk_gen_enable+0x38>)
    28b2:	4798      	blx	r3
    28b4:	00a4      	lsls	r4, r4, #2
    28b6:	4b05      	ldr	r3, [pc, #20]	; (28cc <system_gclk_gen_enable+0x30>)
    28b8:	469c      	mov	ip, r3
    28ba:	4464      	add	r4, ip
    28bc:	6a22      	ldr	r2, [r4, #32]
    28be:	2380      	movs	r3, #128	; 0x80
    28c0:	005b      	lsls	r3, r3, #1
    28c2:	4313      	orrs	r3, r2
    28c4:	6223      	str	r3, [r4, #32]
    28c6:	4b04      	ldr	r3, [pc, #16]	; (28d8 <system_gclk_gen_enable+0x3c>)
    28c8:	4798      	blx	r3
    28ca:	bd10      	pop	{r4, pc}
    28cc:	40001c00 	.word	0x40001c00
    28d0:	000007fc 	.word	0x000007fc
    28d4:	000025d9 	.word	0x000025d9
    28d8:	00002619 	.word	0x00002619

000028dc <system_gclk_gen_get_hz>:
    28dc:	b5f8      	push	{r3, r4, r5, r6, r7, lr}
    28de:	0004      	movs	r4, r0
    28e0:	2204      	movs	r2, #4
    28e2:	4082      	lsls	r2, r0
    28e4:	4812      	ldr	r0, [pc, #72]	; (2930 <system_gclk_gen_get_hz+0x54>)
    28e6:	4913      	ldr	r1, [pc, #76]	; (2934 <system_gclk_gen_get_hz+0x58>)
    28e8:	6843      	ldr	r3, [r0, #4]
    28ea:	400b      	ands	r3, r1
    28ec:	421a      	tst	r2, r3
    28ee:	d1fb      	bne.n	28e8 <system_gclk_gen_get_hz+0xc>
    28f0:	4b11      	ldr	r3, [pc, #68]	; (2938 <system_gclk_gen_get_hz+0x5c>)
    28f2:	4798      	blx	r3
    28f4:	4f0e      	ldr	r7, [pc, #56]	; (2930 <system_gclk_gen_get_hz+0x54>)
    28f6:	3408      	adds	r4, #8
    28f8:	00a4      	lsls	r4, r4, #2
    28fa:	59e0      	ldr	r0, [r4, r7]
    28fc:	0740      	lsls	r0, r0, #29
    28fe:	0f40      	lsrs	r0, r0, #29
    2900:	4b0e      	ldr	r3, [pc, #56]	; (293c <system_gclk_gen_get_hz+0x60>)
    2902:	4798      	blx	r3
    2904:	0006      	movs	r6, r0
    2906:	59e5      	ldr	r5, [r4, r7]
    2908:	04ed      	lsls	r5, r5, #19
    290a:	0fed      	lsrs	r5, r5, #31
    290c:	59e4      	ldr	r4, [r4, r7]
    290e:	0c24      	lsrs	r4, r4, #16
    2910:	4b0b      	ldr	r3, [pc, #44]	; (2940 <system_gclk_gen_get_hz+0x64>)
    2912:	4798      	blx	r3
    2914:	2d00      	cmp	r5, #0
    2916:	d107      	bne.n	2928 <system_gclk_gen_get_hz+0x4c>
    2918:	2c01      	cmp	r4, #1
    291a:	d907      	bls.n	292c <system_gclk_gen_get_hz+0x50>
    291c:	0021      	movs	r1, r4
    291e:	0030      	movs	r0, r6
    2920:	4b08      	ldr	r3, [pc, #32]	; (2944 <system_gclk_gen_get_hz+0x68>)
    2922:	4798      	blx	r3
    2924:	0006      	movs	r6, r0
    2926:	e001      	b.n	292c <system_gclk_gen_get_hz+0x50>
    2928:	3401      	adds	r4, #1
    292a:	40e6      	lsrs	r6, r4
    292c:	0030      	movs	r0, r6
    292e:	bdf8      	pop	{r3, r4, r5, r6, r7, pc}
    2930:	40001c00 	.word	0x40001c00
    2934:	000007fc 	.word	0x000007fc
    2938:	000025d9 	.word	0x000025d9
    293c:	00002649 	.word	0x00002649
    2940:	00002619 	.word	0x00002619
    2944:	000035c5 	.word	0x000035c5

00002948 <system_gclk_chan_enable>:
    2948:	b510      	push	{r4, lr}
    294a:	0004      	movs	r4, r0
    294c:	4b09      	ldr	r3, [pc, #36]	; (2974 <system_gclk_chan_enable+0x2c>)
    294e:	4798      	blx	r3
    2950:	00a0      	lsls	r0, r4, #2
    2952:	4b09      	ldr	r3, [pc, #36]	; (2978 <system_gclk_chan_enable+0x30>)
    2954:	469c      	mov	ip, r3
    2956:	4460      	add	r0, ip
    2958:	2280      	movs	r2, #128	; 0x80
    295a:	5883      	ldr	r3, [r0, r2]
    295c:	2140      	movs	r1, #64	; 0x40
    295e:	430b      	orrs	r3, r1
    2960:	5083      	str	r3, [r0, r2]
    2962:	3140      	adds	r1, #64	; 0x40
    2964:	3a40      	subs	r2, #64	; 0x40
    2966:	5843      	ldr	r3, [r0, r1]
    2968:	421a      	tst	r2, r3
    296a:	d0fc      	beq.n	2966 <system_gclk_chan_enable+0x1e>
    296c:	4b03      	ldr	r3, [pc, #12]	; (297c <system_gclk_chan_enable+0x34>)
    296e:	4798      	blx	r3
    2970:	bd10      	pop	{r4, pc}
    2972:	46c0      	nop			; (mov r8, r8)
    2974:	000025d9 	.word	0x000025d9
    2978:	40001c00 	.word	0x40001c00
    297c:	00002619 	.word	0x00002619

00002980 <system_gclk_chan_disable>:
    2980:	b510      	push	{r4, lr}
    2982:	0004      	movs	r4, r0
    2984:	4b09      	ldr	r3, [pc, #36]	; (29ac <system_gclk_chan_disable+0x2c>)
    2986:	4798      	blx	r3
    2988:	00a0      	lsls	r0, r4, #2
    298a:	4b09      	ldr	r3, [pc, #36]	; (29b0 <system_gclk_chan_disable+0x30>)
    298c:	469c      	mov	ip, r3
    298e:	4460      	add	r0, ip
    2990:	2280      	movs	r2, #128	; 0x80
    2992:	5883      	ldr	r3, [r0, r2]
    2994:	2140      	movs	r1, #64	; 0x40
    2996:	438b      	bics	r3, r1
    2998:	5083      	str	r3, [r0, r2]
    299a:	3140      	adds	r1, #64	; 0x40
    299c:	3a40      	subs	r2, #64	; 0x40
    299e:	5843      	ldr	r3, [r0, r1]
    29a0:	421a      	tst	r2, r3
    29a2:	d1fc      	bne.n	299e <system_gclk_chan_disable+0x1e>
    29a4:	4b03      	ldr	r3, [pc, #12]	; (29b4 <system_gclk_chan_disable+0x34>)
    29a6:	4798      	blx	r3
    29a8:	bd10      	pop	{r4, pc}
    29aa:	46c0      	nop			; (mov r8, r8)
    29ac:	000025d9 	.word	0x000025d9
    29b0:	40001c00 	.word	0x40001c00
    29b4:	00002619 	.word	0x00002619

000029b8 <system_gclk_chan_set_config>:
    29b8:	b570      	push	{r4, r5, r6, lr}
    29ba:	0004      	movs	r4, r0
    29bc:	000d      	movs	r5, r1
    29be:	4b05      	ldr	r3, [pc, #20]	; (29d4 <system_gclk_chan_set_config+0x1c>)
    29c0:	4798      	blx	r3
    29c2:	782a      	ldrb	r2, [r5, #0]
    29c4:	230f      	movs	r3, #15
    29c6:	4013      	ands	r3, r2
    29c8:	3420      	adds	r4, #32
    29ca:	00a4      	lsls	r4, r4, #2
    29cc:	4a02      	ldr	r2, [pc, #8]	; (29d8 <system_gclk_chan_set_config+0x20>)
    29ce:	50a3      	str	r3, [r4, r2]
    29d0:	bd70      	pop	{r4, r5, r6, pc}
    29d2:	46c0      	nop			; (mov r8, r8)
    29d4:	00002981 	.word	0x00002981
    29d8:	40001c00 	.word	0x40001c00

000029dc <system_gclk_chan_get_hz>:
    29dc:	b510      	push	{r4, lr}
    29de:	0004      	movs	r4, r0
    29e0:	4b06      	ldr	r3, [pc, #24]	; (29fc <system_gclk_chan_get_hz+0x20>)
    29e2:	4798      	blx	r3
    29e4:	3420      	adds	r4, #32
    29e6:	00a4      	lsls	r4, r4, #2
    29e8:	4b05      	ldr	r3, [pc, #20]	; (2a00 <system_gclk_chan_get_hz+0x24>)
    29ea:	58e4      	ldr	r4, [r4, r3]
    29ec:	0724      	lsls	r4, r4, #28
    29ee:	0f24      	lsrs	r4, r4, #28
    29f0:	4b04      	ldr	r3, [pc, #16]	; (2a04 <system_gclk_chan_get_hz+0x28>)
    29f2:	4798      	blx	r3
    29f4:	0020      	movs	r0, r4
    29f6:	4b04      	ldr	r3, [pc, #16]	; (2a08 <system_gclk_chan_get_hz+0x2c>)
    29f8:	4798      	blx	r3
    29fa:	bd10      	pop	{r4, pc}
    29fc:	000025d9 	.word	0x000025d9
    2a00:	40001c00 	.word	0x40001c00
    2a04:	00002619 	.word	0x00002619
    2a08:	000028dd 	.word	0x000028dd

00002a0c <_system_pinmux_config>:
    2a0c:	b530      	push	{r4, r5, lr}
    2a0e:	78d3      	ldrb	r3, [r2, #3]
    2a10:	2b00      	cmp	r3, #0
    2a12:	d135      	bne.n	2a80 <_system_pinmux_config+0x74>
    2a14:	7813      	ldrb	r3, [r2, #0]
    2a16:	2b80      	cmp	r3, #128	; 0x80
    2a18:	d029      	beq.n	2a6e <_system_pinmux_config+0x62>
    2a1a:	061b      	lsls	r3, r3, #24
    2a1c:	2480      	movs	r4, #128	; 0x80
    2a1e:	0264      	lsls	r4, r4, #9
    2a20:	4323      	orrs	r3, r4
    2a22:	7854      	ldrb	r4, [r2, #1]
    2a24:	2502      	movs	r5, #2
    2a26:	43ac      	bics	r4, r5
    2a28:	d106      	bne.n	2a38 <_system_pinmux_config+0x2c>
    2a2a:	7894      	ldrb	r4, [r2, #2]
    2a2c:	2c00      	cmp	r4, #0
    2a2e:	d120      	bne.n	2a72 <_system_pinmux_config+0x66>
    2a30:	2480      	movs	r4, #128	; 0x80
    2a32:	02a4      	lsls	r4, r4, #10
    2a34:	4323      	orrs	r3, r4
    2a36:	6041      	str	r1, [r0, #4]
    2a38:	7854      	ldrb	r4, [r2, #1]
    2a3a:	3c01      	subs	r4, #1
    2a3c:	2c01      	cmp	r4, #1
    2a3e:	d91c      	bls.n	2a7a <_system_pinmux_config+0x6e>
    2a40:	040d      	lsls	r5, r1, #16
    2a42:	0c2d      	lsrs	r5, r5, #16
    2a44:	24a0      	movs	r4, #160	; 0xa0
    2a46:	05e4      	lsls	r4, r4, #23
    2a48:	432c      	orrs	r4, r5
    2a4a:	431c      	orrs	r4, r3
    2a4c:	6284      	str	r4, [r0, #40]	; 0x28
    2a4e:	0c0d      	lsrs	r5, r1, #16
    2a50:	24d0      	movs	r4, #208	; 0xd0
    2a52:	0624      	lsls	r4, r4, #24
    2a54:	432c      	orrs	r4, r5
    2a56:	431c      	orrs	r4, r3
    2a58:	6284      	str	r4, [r0, #40]	; 0x28
    2a5a:	78d4      	ldrb	r4, [r2, #3]
    2a5c:	2c00      	cmp	r4, #0
    2a5e:	d122      	bne.n	2aa6 <_system_pinmux_config+0x9a>
    2a60:	035b      	lsls	r3, r3, #13
    2a62:	d51c      	bpl.n	2a9e <_system_pinmux_config+0x92>
    2a64:	7893      	ldrb	r3, [r2, #2]
    2a66:	2b01      	cmp	r3, #1
    2a68:	d01e      	beq.n	2aa8 <_system_pinmux_config+0x9c>
    2a6a:	6141      	str	r1, [r0, #20]
    2a6c:	e017      	b.n	2a9e <_system_pinmux_config+0x92>
    2a6e:	2300      	movs	r3, #0
    2a70:	e7d7      	b.n	2a22 <_system_pinmux_config+0x16>
    2a72:	24c0      	movs	r4, #192	; 0xc0
    2a74:	02e4      	lsls	r4, r4, #11
    2a76:	4323      	orrs	r3, r4
    2a78:	e7dd      	b.n	2a36 <_system_pinmux_config+0x2a>
    2a7a:	4c0d      	ldr	r4, [pc, #52]	; (2ab0 <_system_pinmux_config+0xa4>)
    2a7c:	4023      	ands	r3, r4
    2a7e:	e7df      	b.n	2a40 <_system_pinmux_config+0x34>
    2a80:	6041      	str	r1, [r0, #4]
    2a82:	040c      	lsls	r4, r1, #16
    2a84:	0c24      	lsrs	r4, r4, #16
    2a86:	23a0      	movs	r3, #160	; 0xa0
    2a88:	05db      	lsls	r3, r3, #23
    2a8a:	4323      	orrs	r3, r4
    2a8c:	6283      	str	r3, [r0, #40]	; 0x28
    2a8e:	0c0c      	lsrs	r4, r1, #16
    2a90:	23d0      	movs	r3, #208	; 0xd0
    2a92:	061b      	lsls	r3, r3, #24
    2a94:	4323      	orrs	r3, r4
    2a96:	6283      	str	r3, [r0, #40]	; 0x28
    2a98:	78d3      	ldrb	r3, [r2, #3]
    2a9a:	2b00      	cmp	r3, #0
    2a9c:	d103      	bne.n	2aa6 <_system_pinmux_config+0x9a>
    2a9e:	7853      	ldrb	r3, [r2, #1]
    2aa0:	3b01      	subs	r3, #1
    2aa2:	2b01      	cmp	r3, #1
    2aa4:	d902      	bls.n	2aac <_system_pinmux_config+0xa0>
    2aa6:	bd30      	pop	{r4, r5, pc}
    2aa8:	6181      	str	r1, [r0, #24]
    2aaa:	e7f8      	b.n	2a9e <_system_pinmux_config+0x92>
    2aac:	6081      	str	r1, [r0, #8]
    2aae:	e7fa      	b.n	2aa6 <_system_pinmux_config+0x9a>
    2ab0:	fffbffff 	.word	0xfffbffff

00002ab4 <system_pinmux_pin_set_config>:
    2ab4:	b510      	push	{r4, lr}
    2ab6:	000a      	movs	r2, r1
    2ab8:	09c1      	lsrs	r1, r0, #7
    2aba:	2300      	movs	r3, #0
    2abc:	2900      	cmp	r1, #0
    2abe:	d105      	bne.n	2acc <system_pinmux_pin_set_config+0x18>
    2ac0:	0943      	lsrs	r3, r0, #5
    2ac2:	01db      	lsls	r3, r3, #7
    2ac4:	2182      	movs	r1, #130	; 0x82
    2ac6:	05c9      	lsls	r1, r1, #23
    2ac8:	468c      	mov	ip, r1
    2aca:	4463      	add	r3, ip
    2acc:	241f      	movs	r4, #31
    2ace:	4020      	ands	r0, r4
    2ad0:	2101      	movs	r1, #1
    2ad2:	4081      	lsls	r1, r0
    2ad4:	0018      	movs	r0, r3
    2ad6:	4b01      	ldr	r3, [pc, #4]	; (2adc <system_pinmux_pin_set_config+0x28>)
    2ad8:	4798      	blx	r3
    2ada:	bd10      	pop	{r4, pc}
    2adc:	00002a0d 	.word	0x00002a0d

00002ae0 <_system_dummy_init>:
    2ae0:	4770      	bx	lr
	...

00002ae4 <system_init>:
    2ae4:	b510      	push	{r4, lr}
    2ae6:	4b05      	ldr	r3, [pc, #20]	; (2afc <system_init+0x18>)
    2ae8:	4798      	blx	r3
    2aea:	4b05      	ldr	r3, [pc, #20]	; (2b00 <system_init+0x1c>)
    2aec:	4798      	blx	r3
    2aee:	4b05      	ldr	r3, [pc, #20]	; (2b04 <system_init+0x20>)
    2af0:	4798      	blx	r3
    2af2:	4b05      	ldr	r3, [pc, #20]	; (2b08 <system_init+0x24>)
    2af4:	4798      	blx	r3
    2af6:	4b05      	ldr	r3, [pc, #20]	; (2b0c <system_init+0x28>)
    2af8:	4798      	blx	r3
    2afa:	bd10      	pop	{r4, pc}
    2afc:	000026a5 	.word	0x000026a5
    2b00:	000025d5 	.word	0x000025d5
    2b04:	00002ae1 	.word	0x00002ae1
    2b08:	000007cd 	.word	0x000007cd
    2b0c:	00002ae1 	.word	0x00002ae1

00002b10 <Dummy_Handler>:
    2b10:	e7fe      	b.n	2b10 <Dummy_Handler>
	...

00002b14 <Reset_Handler>:
    2b14:	b510      	push	{r4, lr}
    2b16:	4a17      	ldr	r2, [pc, #92]	; (2b74 <Reset_Handler+0x60>)
    2b18:	4b17      	ldr	r3, [pc, #92]	; (2b78 <Reset_Handler+0x64>)
    2b1a:	429a      	cmp	r2, r3
    2b1c:	d011      	beq.n	2b42 <Reset_Handler+0x2e>
    2b1e:	001a      	movs	r2, r3
    2b20:	4b16      	ldr	r3, [pc, #88]	; (2b7c <Reset_Handler+0x68>)
    2b22:	429a      	cmp	r2, r3
    2b24:	d20d      	bcs.n	2b42 <Reset_Handler+0x2e>
    2b26:	4a16      	ldr	r2, [pc, #88]	; (2b80 <Reset_Handler+0x6c>)
    2b28:	3303      	adds	r3, #3
    2b2a:	1a9b      	subs	r3, r3, r2
    2b2c:	089b      	lsrs	r3, r3, #2
    2b2e:	3301      	adds	r3, #1
    2b30:	009b      	lsls	r3, r3, #2
    2b32:	2200      	movs	r2, #0
    2b34:	4810      	ldr	r0, [pc, #64]	; (2b78 <Reset_Handler+0x64>)
    2b36:	490f      	ldr	r1, [pc, #60]	; (2b74 <Reset_Handler+0x60>)
    2b38:	588c      	ldr	r4, [r1, r2]
    2b3a:	5084      	str	r4, [r0, r2]
    2b3c:	3204      	adds	r2, #4
    2b3e:	429a      	cmp	r2, r3
    2b40:	d1fa      	bne.n	2b38 <Reset_Handler+0x24>
    2b42:	4a10      	ldr	r2, [pc, #64]	; (2b84 <Reset_Handler+0x70>)
    2b44:	4b10      	ldr	r3, [pc, #64]	; (2b88 <Reset_Handler+0x74>)
    2b46:	429a      	cmp	r2, r3
    2b48:	d20a      	bcs.n	2b60 <Reset_Handler+0x4c>
    2b4a:	43d3      	mvns	r3, r2
    2b4c:	490e      	ldr	r1, [pc, #56]	; (2b88 <Reset_Handler+0x74>)
    2b4e:	185b      	adds	r3, r3, r1
    2b50:	2103      	movs	r1, #3
    2b52:	438b      	bics	r3, r1
    2b54:	3304      	adds	r3, #4
    2b56:	189b      	adds	r3, r3, r2
    2b58:	2100      	movs	r1, #0
    2b5a:	c202      	stmia	r2!, {r1}
    2b5c:	4293      	cmp	r3, r2
    2b5e:	d1fc      	bne.n	2b5a <Reset_Handler+0x46>
    2b60:	4a0a      	ldr	r2, [pc, #40]	; (2b8c <Reset_Handler+0x78>)
    2b62:	21ff      	movs	r1, #255	; 0xff
    2b64:	4b0a      	ldr	r3, [pc, #40]	; (2b90 <Reset_Handler+0x7c>)
    2b66:	438b      	bics	r3, r1
    2b68:	6093      	str	r3, [r2, #8]
    2b6a:	4b0a      	ldr	r3, [pc, #40]	; (2b94 <Reset_Handler+0x80>)
    2b6c:	4798      	blx	r3
    2b6e:	4b0a      	ldr	r3, [pc, #40]	; (2b98 <Reset_Handler+0x84>)
    2b70:	4798      	blx	r3
    2b72:	e7fe      	b.n	2b72 <Reset_Handler+0x5e>
    2b74:	00005bd0 	.word	0x00005bd0
    2b78:	20000000 	.word	0x20000000
    2b7c:	20000080 	.word	0x20000080
    2b80:	20000004 	.word	0x20000004
    2b84:	20000080 	.word	0x20000080
    2b88:	20001e38 	.word	0x20001e38
    2b8c:	e000ed00 	.word	0xe000ed00
    2b90:	00000000 	.word	0x00000000
    2b94:	00005021 	.word	0x00005021
    2b98:	00002d91 	.word	0x00002d91

00002b9c <_sbrk>:
    2b9c:	0003      	movs	r3, r0
    2b9e:	4a06      	ldr	r2, [pc, #24]	; (2bb8 <_sbrk+0x1c>)
    2ba0:	6812      	ldr	r2, [r2, #0]
    2ba2:	2a00      	cmp	r2, #0
    2ba4:	d004      	beq.n	2bb0 <_sbrk+0x14>
    2ba6:	4a04      	ldr	r2, [pc, #16]	; (2bb8 <_sbrk+0x1c>)
    2ba8:	6810      	ldr	r0, [r2, #0]
    2baa:	18c3      	adds	r3, r0, r3
    2bac:	6013      	str	r3, [r2, #0]
    2bae:	4770      	bx	lr
    2bb0:	4902      	ldr	r1, [pc, #8]	; (2bbc <_sbrk+0x20>)
    2bb2:	4a01      	ldr	r2, [pc, #4]	; (2bb8 <_sbrk+0x1c>)
    2bb4:	6011      	str	r1, [r2, #0]
    2bb6:	e7f6      	b.n	2ba6 <_sbrk+0xa>
    2bb8:	200000e0 	.word	0x200000e0
    2bbc:	20003e38 	.word	0x20003e38

00002bc0 <NMI_Handler>:

struct dac_module dac_instance;
void IO_init(void);

void NMI_Handler(void) {
    BREAKPOINT;
    2bc0:	46c0      	nop			; (mov r8, r8)
}
    2bc2:	4770      	bx	lr

00002bc4 <HardFault_Handler>:
void HardFault_Handler(void) {
    BREAKPOINT;
    2bc4:	46c0      	nop			; (mov r8, r8)
}
    2bc6:	4770      	bx	lr

00002bc8 <SVC_Handler>:
void SVC_Handler(void) {
    BREAKPOINT;
    2bc8:	46c0      	nop			; (mov r8, r8)
}
    2bca:	4770      	bx	lr

00002bcc <PendSV_Handler>:
void PendSV_Handler(void) {
    BREAKPOINT;
    2bcc:	46c0      	nop			; (mov r8, r8)
}
    2bce:	4770      	bx	lr

00002bd0 <SysTick_Handler>:
void SysTick_Handler(void) {
    BREAKPOINT;
    2bd0:	46c0      	nop			; (mov r8, r8)
}
    2bd2:	4770      	bx	lr

00002bd4 <select_device_mode>:
        }
    }
}

MODE select_device_mode(uint8_t mode) {
    switch(device_mode) {
    2bd4:	4b05      	ldr	r3, [pc, #20]	; (2bec <select_device_mode+0x18>)
    2bd6:	7818      	ldrb	r0, [r3, #0]
    2bd8:	2801      	cmp	r0, #1
    2bda:	d004      	beq.n	2be6 <select_device_mode+0x12>
        case 0:
            return DMX;
    2bdc:	3802      	subs	r0, #2
    2bde:	4243      	negs	r3, r0
    2be0:	4158      	adcs	r0, r3
    2be2:	3001      	adds	r0, #1
        case 2:
            return BOTH;
        default:
            return DMX;
    }
}
    2be4:	4770      	bx	lr
            return TRIGGER;
    2be6:	2000      	movs	r0, #0
    2be8:	e7fc      	b.n	2be4 <select_device_mode+0x10>
    2bea:	46c0      	nop			; (mov r8, r8)
    2bec:	20001e18 	.word	0x20001e18

00002bf0 <IO_init>:

void IO_init(void) {
    2bf0:	b5f0      	push	{r4, r5, r6, r7, lr}
    2bf2:	b085      	sub	sp, #20
	config->direction  = PORT_PIN_DIR_INPUT;
    2bf4:	2700      	movs	r7, #0
    2bf6:	466b      	mov	r3, sp
    2bf8:	731f      	strb	r7, [r3, #12]
	config->powersave  = false;
    2bfa:	739f      	strb	r7, [r3, #14]
    //configure all ports!
    struct port_config input_pin_no_pullup;
    port_get_config_defaults(&input_pin_no_pullup);
    input_pin_no_pullup.direction = PORT_PIN_DIR_INPUT;
    input_pin_no_pullup.input_pull = PORT_PIN_PULL_NONE;
    2bfc:	735f      	strb	r7, [r3, #13]
	config->direction  = PORT_PIN_DIR_INPUT;
    2bfe:	721f      	strb	r7, [r3, #8]
	config->input_pull = PORT_PIN_PULL_UP;
    2c00:	2601      	movs	r6, #1
    2c02:	725e      	strb	r6, [r3, #9]
	config->powersave  = false;
    2c04:	729f      	strb	r7, [r3, #10]
	config->input_pull = PORT_PIN_PULL_UP;
    2c06:	ad01      	add	r5, sp, #4
    2c08:	706e      	strb	r6, [r5, #1]
	config->powersave  = false;
    2c0a:	70af      	strb	r7, [r5, #2]
    input_pin_pullup.direction = PORT_PIN_DIR_INPUT;
    input_pin_pullup.input_pull = PORT_PIN_PULL_UP;

    struct port_config output_pin;
    port_get_config_defaults(&output_pin);
    output_pin.direction = PORT_PIN_DIR_OUTPUT;
    2c0c:	702e      	strb	r6, [r5, #0]
    struct port_config output_pin_w_readback;
    port_get_config_defaults(&output_pin_w_readback);
    output_pin_w_readback.direction = PORT_PIN_DIR_OUTPUT_WTH_READBACK;
    /* DEFINE PINS WITH PULLUPS */
    port_pin_set_config(PIN_SW1, &input_pin_pullup);
    2c0e:	a902      	add	r1, sp, #8
    2c10:	200c      	movs	r0, #12
    2c12:	4c2c      	ldr	r4, [pc, #176]	; (2cc4 <IO_init+0xd4>)
    2c14:	47a0      	blx	r4
    port_pin_set_config(PIN_SW2, &input_pin_pullup);
    2c16:	a902      	add	r1, sp, #8
    2c18:	200d      	movs	r0, #13
    2c1a:	47a0      	blx	r4

    /* DEFINE PINS WITHOUT PULLUPS */
    port_pin_set_config(PIN_ENC_B, &input_pin_no_pullup);
    2c1c:	a903      	add	r1, sp, #12
    2c1e:	2036      	movs	r0, #54	; 0x36
    2c20:	47a0      	blx	r4
    port_pin_set_config(PIN_ENC_A, &input_pin_no_pullup);
    2c22:	a903      	add	r1, sp, #12
    2c24:	2037      	movs	r0, #55	; 0x37
    2c26:	47a0      	blx	r4

    /* DEFINE OUTPUT PINS */
    port_pin_set_config(PIN_EEPROM_WP, &output_pin);
    2c28:	0029      	movs	r1, r5
    2c2a:	2018      	movs	r0, #24
    2c2c:	47a0      	blx	r4
    port_pin_set_config(PIN_LED_POWER, &output_pin);
    2c2e:	0029      	movs	r1, r5
    2c30:	201c      	movs	r0, #28
    2c32:	47a0      	blx	r4
    port_pin_set_config(PIN_LCD_D0, &output_pin);
    2c34:	0029      	movs	r1, r5
    2c36:	2026      	movs	r0, #38	; 0x26
    2c38:	47a0      	blx	r4
    port_pin_set_config(PIN_LCD_D1, &output_pin);
    2c3a:	0029      	movs	r1, r5
    2c3c:	2025      	movs	r0, #37	; 0x25
    2c3e:	47a0      	blx	r4
    port_pin_set_config(PIN_LCD_D2, &output_pin);
    2c40:	0029      	movs	r1, r5
    2c42:	2024      	movs	r0, #36	; 0x24
    2c44:	47a0      	blx	r4
    port_pin_set_config(PIN_LCD_D3, &output_pin);
    2c46:	0029      	movs	r1, r5
    2c48:	2023      	movs	r0, #35	; 0x23
    2c4a:	47a0      	blx	r4
    port_pin_set_config(PIN_LCD_D4, &output_pin);
    2c4c:	0029      	movs	r1, r5
    2c4e:	2022      	movs	r0, #34	; 0x22
    2c50:	47a0      	blx	r4
    port_pin_set_config(PIN_LCD_D5, &output_pin);
    2c52:	0029      	movs	r1, r5
    2c54:	2021      	movs	r0, #33	; 0x21
    2c56:	47a0      	blx	r4
    port_pin_set_config(PIN_LCD_D6, &output_pin);
    2c58:	0029      	movs	r1, r5
    2c5a:	2020      	movs	r0, #32
    2c5c:	47a0      	blx	r4
    port_pin_set_config(PIN_LCD_D7, &output_pin);
    2c5e:	0029      	movs	r1, r5
    2c60:	203f      	movs	r0, #63	; 0x3f
    2c62:	47a0      	blx	r4
    port_pin_set_config(PIN_LCD_EN, &output_pin);
    2c64:	0029      	movs	r1, r5
    2c66:	2027      	movs	r0, #39	; 0x27
    2c68:	47a0      	blx	r4
    port_pin_set_config(PIN_LCD_RW, &output_pin);
    2c6a:	0029      	movs	r1, r5
    2c6c:	2028      	movs	r0, #40	; 0x28
    2c6e:	47a0      	blx	r4
    port_pin_set_config(PIN_LCD_RS, &output_pin);
    2c70:	0029      	movs	r1, r5
    2c72:	2029      	movs	r0, #41	; 0x29
    2c74:	47a0      	blx	r4
    port_pin_set_config(PIN_LCD_BL, &output_pin);
    2c76:	0029      	movs	r1, r5
    2c78:	202b      	movs	r0, #43	; 0x2b
    2c7a:	47a0      	blx	r4
	/* Sanity check arguments */
	Assert(config);

	/* Default configuration values */
	config->mux_position = SYSTEM_PINMUX_GPIO;
	config->direction    = SYSTEM_PINMUX_PIN_DIR_INPUT;
    2c7c:	466b      	mov	r3, sp
    2c7e:	705f      	strb	r7, [r3, #1]
	config->input_pull   = SYSTEM_PINMUX_PIN_PULL_UP;
    2c80:	709e      	strb	r6, [r3, #2]
	config->powersave    = false;
    2c82:	70df      	strb	r7, [r3, #3]

    struct system_pinmux_config mux_config;
    system_pinmux_get_config_defaults(&mux_config);
    mux_config.mux_position = MUX_ADC0;
    2c84:	701e      	strb	r6, [r3, #0]
    mux_config.direction = SYSTEM_PINMUX_PIN_DIR_INPUT;
    system_pinmux_pin_set_config(PIN_ADC0, &mux_config);
    2c86:	4669      	mov	r1, sp
    2c88:	2004      	movs	r0, #4
    2c8a:	4c0f      	ldr	r4, [pc, #60]	; (2cc8 <IO_init+0xd8>)
    2c8c:	47a0      	blx	r4

    mux_config.mux_position = MUX_ADC1;
    2c8e:	466b      	mov	r3, sp
    2c90:	701e      	strb	r6, [r3, #0]
    system_pinmux_pin_set_config(PIN_ADC1, &mux_config);
    2c92:	4669      	mov	r1, sp
    2c94:	2005      	movs	r0, #5
    2c96:	47a0      	blx	r4
    mux_config.mux_position = MUX_ADC2;
    2c98:	466b      	mov	r3, sp
    2c9a:	701e      	strb	r6, [r3, #0]
    system_pinmux_pin_set_config(PIN_ADC2, &mux_config);
    2c9c:	4669      	mov	r1, sp
    2c9e:	2006      	movs	r0, #6
    2ca0:	47a0      	blx	r4
    mux_config.mux_position = MUX_ADC3;
    2ca2:	466b      	mov	r3, sp
    2ca4:	701e      	strb	r6, [r3, #0]
    system_pinmux_pin_set_config(PIN_ADC3, &mux_config);
    2ca6:	4669      	mov	r1, sp
    2ca8:	2007      	movs	r0, #7
    2caa:	47a0      	blx	r4
    mux_config.mux_position = MUX_ADC4;
    2cac:	466b      	mov	r3, sp
    2cae:	701e      	strb	r6, [r3, #0]
    system_pinmux_pin_set_config(PIN_ADC4, &mux_config);
    2cb0:	4669      	mov	r1, sp
    2cb2:	2003      	movs	r0, #3
    2cb4:	47a0      	blx	r4

    mux_config.mux_position = MUX_LCD_VO;
    2cb6:	466b      	mov	r3, sp
    2cb8:	701e      	strb	r6, [r3, #0]
    system_pinmux_pin_set_config(PIN_LCD_VO, &mux_config);
    2cba:	4669      	mov	r1, sp
    2cbc:	2002      	movs	r0, #2
    2cbe:	47a0      	blx	r4
}
    2cc0:	b005      	add	sp, #20
    2cc2:	bdf0      	pop	{r4, r5, r6, r7, pc}
    2cc4:	00001ba5 	.word	0x00001ba5
    2cc8:	00002ab5 	.word	0x00002ab5

00002ccc <configure_dac>:

void configure_dac(void) {
    2ccc:	b500      	push	{lr}
    2cce:	b083      	sub	sp, #12
    struct dac_config config_dac;
    dac_get_config_defaults(&config_dac);
    2cd0:	4668      	mov	r0, sp
    2cd2:	4b05      	ldr	r3, [pc, #20]	; (2ce8 <configure_dac+0x1c>)
    2cd4:	4798      	blx	r3
    config_dac.reference = DAC_REFERENCE_AVCC;
    2cd6:	2340      	movs	r3, #64	; 0x40
    2cd8:	466a      	mov	r2, sp
    2cda:	7013      	strb	r3, [r2, #0]
    dac_init(&dac_instance, DAC, &config_dac);
    2cdc:	4903      	ldr	r1, [pc, #12]	; (2cec <configure_dac+0x20>)
    2cde:	4804      	ldr	r0, [pc, #16]	; (2cf0 <configure_dac+0x24>)
    2ce0:	4b04      	ldr	r3, [pc, #16]	; (2cf4 <configure_dac+0x28>)
    2ce2:	4798      	blx	r3
}
    2ce4:	b003      	add	sp, #12
    2ce6:	bd00      	pop	{pc}
    2ce8:	00000859 	.word	0x00000859
    2cec:	42005400 	.word	0x42005400
    2cf0:	20001dac 	.word	0x20001dac
    2cf4:	0000086d 	.word	0x0000086d

00002cf8 <configure_dac_channel>:

void configure_dac_channel(void) {
    2cf8:	b510      	push	{r4, lr}
    2cfa:	b082      	sub	sp, #8
    struct dac_chan_config config_dac_chan;
    dac_chan_get_config_defaults(&config_dac_chan);
    2cfc:	a801      	add	r0, sp, #4
    2cfe:	4b07      	ldr	r3, [pc, #28]	; (2d1c <configure_dac_channel+0x24>)
    2d00:	4798      	blx	r3

    dac_chan_set_config(&dac_instance, DAC_CHANNEL_0, &config_dac_chan);
    2d02:	4c07      	ldr	r4, [pc, #28]	; (2d20 <configure_dac_channel+0x28>)
    2d04:	aa01      	add	r2, sp, #4
    2d06:	2100      	movs	r1, #0
    2d08:	0020      	movs	r0, r4
    2d0a:	4b06      	ldr	r3, [pc, #24]	; (2d24 <configure_dac_channel+0x2c>)
    2d0c:	4798      	blx	r3

    dac_chan_enable(&dac_instance, DAC_CHANNEL_0);
    2d0e:	2100      	movs	r1, #0
    2d10:	0020      	movs	r0, r4
    2d12:	4b05      	ldr	r3, [pc, #20]	; (2d28 <configure_dac_channel+0x30>)
    2d14:	4798      	blx	r3
}
    2d16:	b002      	add	sp, #8
    2d18:	bd10      	pop	{r4, pc}
    2d1a:	46c0      	nop			; (mov r8, r8)
    2d1c:	0000097d 	.word	0x0000097d
    2d20:	20001dac 	.word	0x20001dac
    2d24:	0000097f 	.word	0x0000097f
    2d28:	00000981 	.word	0x00000981

00002d2c <button_handler>:

void button_handler(TIPKA t, STATE *s) {
    2d2c:	b570      	push	{r4, r5, r6, lr}
    2d2e:	000c      	movs	r4, r1
    key_pressed = 1;
    2d30:	2201      	movs	r2, #1
    2d32:	4b13      	ldr	r3, [pc, #76]	; (2d80 <button_handler+0x54>)
    2d34:	701a      	strb	r2, [r3, #0]
    switch(t) {
    2d36:	2801      	cmp	r0, #1
    2d38:	d021      	beq.n	2d7e <button_handler+0x52>
    2d3a:	2802      	cmp	r0, #2
    2d3c:	d11c      	bne.n	2d78 <button_handler+0x4c>
        case BUTTON_1:
            break;
        case BUTTON_2:
            if(get_p_to_item(selected_menu)->type == TYPE_MENU) {
    2d3e:	4b11      	ldr	r3, [pc, #68]	; (2d84 <button_handler+0x58>)
    2d40:	6818      	ldr	r0, [r3, #0]
    2d42:	4b11      	ldr	r3, [pc, #68]	; (2d88 <button_handler+0x5c>)
    2d44:	4798      	blx	r3
    2d46:	7803      	ldrb	r3, [r0, #0]
    2d48:	2b04      	cmp	r3, #4
    2d4a:	d007      	beq.n	2d5c <button_handler+0x30>
                menu_swap(&selected_menu, (MENU *)(get_p_to_item(selected_menu)->variable));
                *s = SCROLL;
            }
            else
                if(*s == EDIT)
    2d4c:	7823      	ldrb	r3, [r4, #0]
    2d4e:	2b01      	cmp	r3, #1
    2d50:	d00f      	beq.n	2d72 <button_handler+0x46>
                    *s = SCROLL;
                else
                    if(*s == SCROLL)
    2d52:	2b00      	cmp	r3, #0
    2d54:	d113      	bne.n	2d7e <button_handler+0x52>
                        *s = EDIT;
    2d56:	3301      	adds	r3, #1
    2d58:	7023      	strb	r3, [r4, #0]
    2d5a:	e010      	b.n	2d7e <button_handler+0x52>
                menu_swap(&selected_menu, (MENU *)(get_p_to_item(selected_menu)->variable));
    2d5c:	4d09      	ldr	r5, [pc, #36]	; (2d84 <button_handler+0x58>)
    2d5e:	6828      	ldr	r0, [r5, #0]
    2d60:	4b09      	ldr	r3, [pc, #36]	; (2d88 <button_handler+0x5c>)
    2d62:	4798      	blx	r3
    2d64:	6901      	ldr	r1, [r0, #16]
    2d66:	0028      	movs	r0, r5
    2d68:	4b08      	ldr	r3, [pc, #32]	; (2d8c <button_handler+0x60>)
    2d6a:	4798      	blx	r3
                *s = SCROLL;
    2d6c:	2300      	movs	r3, #0
    2d6e:	7023      	strb	r3, [r4, #0]
    2d70:	e005      	b.n	2d7e <button_handler+0x52>
                    *s = SCROLL;
    2d72:	2300      	movs	r3, #0
    2d74:	7023      	strb	r3, [r4, #0]
    2d76:	e002      	b.n	2d7e <button_handler+0x52>
            break;
        default:
            key_pressed = 0;
    2d78:	2200      	movs	r2, #0
    2d7a:	4b01      	ldr	r3, [pc, #4]	; (2d80 <button_handler+0x54>)
    2d7c:	701a      	strb	r2, [r3, #0]
            break;
    }
    return;
    2d7e:	bd70      	pop	{r4, r5, r6, pc}
    2d80:	20000015 	.word	0x20000015
    2d84:	20000018 	.word	0x20000018
    2d88:	00001c75 	.word	0x00001c75
    2d8c:	000021d9 	.word	0x000021d9

00002d90 <main>:
int main (void) {
    2d90:	b5f0      	push	{r4, r5, r6, r7, lr}
    2d92:	46de      	mov	lr, fp
    2d94:	4657      	mov	r7, sl
    2d96:	464e      	mov	r6, r9
    2d98:	4645      	mov	r5, r8
    2d9a:	b5e0      	push	{r5, r6, r7, lr}
    2d9c:	4cf9      	ldr	r4, [pc, #996]	; (3184 <main+0x3f4>)
    2d9e:	44a5      	add	sp, r4
    system_init();
    2da0:	4bf9      	ldr	r3, [pc, #996]	; (3188 <main+0x3f8>)
    2da2:	4798      	blx	r3
    IO_init();
    2da4:	4bf9      	ldr	r3, [pc, #996]	; (318c <main+0x3fc>)
    2da6:	4798      	blx	r3
    lcd_begin();
    2da8:	4bf9      	ldr	r3, [pc, #996]	; (3190 <main+0x400>)
    2daa:	4798      	blx	r3
    lcd_noCursor();
    2dac:	4bf9      	ldr	r3, [pc, #996]	; (3194 <main+0x404>)
    2dae:	4798      	blx	r3
    configure_dac();
    2db0:	4bf9      	ldr	r3, [pc, #996]	; (3198 <main+0x408>)
    2db2:	4798      	blx	r3
    configure_dac_channel();
    2db4:	4bf9      	ldr	r3, [pc, #996]	; (319c <main+0x40c>)
    2db6:	4798      	blx	r3
    configure_USB();
    2db8:	4bf9      	ldr	r3, [pc, #996]	; (31a0 <main+0x410>)
    2dba:	4798      	blx	r3
    delay_init();
    2dbc:	4bf9      	ldr	r3, [pc, #996]	; (31a4 <main+0x414>)
    2dbe:	4798      	blx	r3
    configure_extint_channel();
    2dc0:	4bf9      	ldr	r3, [pc, #996]	; (31a8 <main+0x418>)
    2dc2:	4798      	blx	r3
    dac_enable(&dac_instance);
    2dc4:	48f9      	ldr	r0, [pc, #996]	; (31ac <main+0x41c>)
    2dc6:	4bfa      	ldr	r3, [pc, #1000]	; (31b0 <main+0x420>)
    2dc8:	4798      	blx	r3
    Enable_global_interrupt();
    2dca:	2501      	movs	r5, #1
    2dcc:	4bf9      	ldr	r3, [pc, #996]	; (31b4 <main+0x424>)
    2dce:	701d      	strb	r5, [r3, #0]
  \details Ensures the apparent order of the explicit memory operations before
           and after the instruction, without ensuring their completion.
 */
__STATIC_FORCEINLINE void __DMB(void)
{
  __ASM volatile ("dmb 0xF":::"memory");
    2dd0:	f3bf 8f5f 	dmb	sy
  __ASM volatile ("cpsie i" : : : "memory");
    2dd4:	b662      	cpsie	i
    ADSR adsr_channel0 = {.p_to_var = dmx_values + 0};
    2dd6:	2234      	movs	r2, #52	; 0x34
    2dd8:	2100      	movs	r1, #0
    2dda:	a87a      	add	r0, sp, #488	; 0x1e8
    2ddc:	4cf6      	ldr	r4, [pc, #984]	; (31b8 <main+0x428>)
    2dde:	47a0      	blx	r4
    2de0:	ab87      	add	r3, sp, #540	; 0x21c
    2de2:	937a      	str	r3, [sp, #488]	; 0x1e8
    ADSR adsr_channel1 = {.p_to_var = dmx_values + 1};
    2de4:	2234      	movs	r2, #52	; 0x34
    2de6:	2100      	movs	r1, #0
    2de8:	a86d      	add	r0, sp, #436	; 0x1b4
    2dea:	47a0      	blx	r4
    2dec:	4bf3      	ldr	r3, [pc, #972]	; (31bc <main+0x42c>)
    2dee:	aa04      	add	r2, sp, #16
    2df0:	4694      	mov	ip, r2
    2df2:	4463      	add	r3, ip
    2df4:	936d      	str	r3, [sp, #436]	; 0x1b4
    ADSR adsr_channel2 = {.p_to_var = dmx_values + 2};
    2df6:	2234      	movs	r2, #52	; 0x34
    2df8:	2100      	movs	r1, #0
    2dfa:	a860      	add	r0, sp, #384	; 0x180
    2dfc:	47a0      	blx	r4
    2dfe:	4bf0      	ldr	r3, [pc, #960]	; (31c0 <main+0x430>)
    2e00:	aa04      	add	r2, sp, #16
    2e02:	4694      	mov	ip, r2
    2e04:	4463      	add	r3, ip
    2e06:	9360      	str	r3, [sp, #384]	; 0x180
    ADSR adsr_channel3 = {.p_to_var = dmx_values + 3};
    2e08:	2234      	movs	r2, #52	; 0x34
    2e0a:	2100      	movs	r1, #0
    2e0c:	a853      	add	r0, sp, #332	; 0x14c
    2e0e:	47a0      	blx	r4
    2e10:	4bec      	ldr	r3, [pc, #944]	; (31c4 <main+0x434>)
    2e12:	aa04      	add	r2, sp, #16
    2e14:	4694      	mov	ip, r2
    2e16:	4463      	add	r3, ip
    2e18:	9353      	str	r3, [sp, #332]	; 0x14c
    ADSR adsr_channel4 = {.p_to_var = dmx_values + 4};
    2e1a:	2234      	movs	r2, #52	; 0x34
    2e1c:	2100      	movs	r1, #0
    2e1e:	a846      	add	r0, sp, #280	; 0x118
    2e20:	47a0      	blx	r4
    2e22:	ab88      	add	r3, sp, #544	; 0x220
    2e24:	9346      	str	r3, [sp, #280]	; 0x118
    configure_tcc0();
    2e26:	4be8      	ldr	r3, [pc, #928]	; (31c8 <main+0x438>)
    2e28:	4798      	blx	r3
    configure_tcc0_callbacks(&adsr_channel0, &adsr_channel1, &adsr_channel2, &adsr_channel3, &adsr_channel4);
    2e2a:	ab46      	add	r3, sp, #280	; 0x118
    2e2c:	9300      	str	r3, [sp, #0]
    2e2e:	ab53      	add	r3, sp, #332	; 0x14c
    2e30:	aa60      	add	r2, sp, #384	; 0x180
    2e32:	a96d      	add	r1, sp, #436	; 0x1b4
    2e34:	a87a      	add	r0, sp, #488	; 0x1e8
    2e36:	4ce5      	ldr	r4, [pc, #916]	; (31cc <main+0x43c>)
    2e38:	47a0      	blx	r4
    uint8_t device_mode_num = 1;
    2e3a:	2308      	movs	r3, #8
    2e3c:	33ff      	adds	r3, #255	; 0xff
    2e3e:	aa04      	add	r2, sp, #16
    2e40:	4694      	mov	ip, r2
    2e42:	4463      	add	r3, ip
    2e44:	701d      	strb	r5, [r3, #0]
    2e46:	ab35      	add	r3, sp, #212	; 0xd4
    2e48:	af45      	add	r7, sp, #276	; 0x114
    2e4a:	001d      	movs	r5, r3
        p_to_dmx_group_menus[i] = (MENU *)malloc(sizeof(MENU));
    2e4c:	4ee0      	ldr	r6, [pc, #896]	; (31d0 <main+0x440>)
    2e4e:	001c      	movs	r4, r3
    2e50:	209a      	movs	r0, #154	; 0x9a
    2e52:	0080      	lsls	r0, r0, #2
    2e54:	47b0      	blx	r6
    2e56:	c501      	stmia	r5!, {r0}
    for(uint8_t i = 0; i < 16; i++) {
    2e58:	42bd      	cmp	r5, r7
    2e5a:	d1f9      	bne.n	2e50 <main+0xc0>
    2e5c:	46a0      	mov	r8, r4
    channel *p_to_channels[5] = {&dmx_ch1, &dmx_ch2, &dmx_ch3, &dmx_ch4, &dmx_ch5};
    2e5e:	a830      	add	r0, sp, #192	; 0xc0
    2e60:	4bdc      	ldr	r3, [pc, #880]	; (31d4 <main+0x444>)
    2e62:	0002      	movs	r2, r0
    2e64:	0019      	movs	r1, r3
    2e66:	c961      	ldmia	r1!, {r0, r5, r6}
    2e68:	c261      	stmia	r2!, {r0, r5, r6}
    2e6a:	c921      	ldmia	r1!, {r0, r5}
    2e6c:	c221      	stmia	r2!, {r0, r5}
    volatile MENU *p_to_menus[5] = {&channel1_menu, &channel2_menu, &channel3_menu, &channel4_menu, &channel5_menu};
    2e6e:	a92b      	add	r1, sp, #172	; 0xac
    2e70:	3314      	adds	r3, #20
    2e72:	000a      	movs	r2, r1
    2e74:	cb23      	ldmia	r3!, {r0, r1, r5}
    2e76:	c223      	stmia	r2!, {r0, r1, r5}
    2e78:	cb03      	ldmia	r3!, {r0, r1}
    2e7a:	c203      	stmia	r2!, {r0, r1}
    uint8_t brightness  = 0, contrast = 0;
    2e7c:	2300      	movs	r3, #0
    2e7e:	229b      	movs	r2, #155	; 0x9b
    2e80:	a904      	add	r1, sp, #16
    2e82:	468c      	mov	ip, r1
    2e84:	4462      	add	r2, ip
    2e86:	7013      	strb	r3, [r2, #0]
    2e88:	229a      	movs	r2, #154	; 0x9a
    2e8a:	4462      	add	r2, ip
    2e8c:	7013      	strb	r3, [r2, #0]
    menu_create_item(&tmp_item, "SETTINGS", TYPE_MENU, "", (void *)&settings_menu, 0, 0);
    2e8e:	2600      	movs	r6, #0
    2e90:	9602      	str	r6, [sp, #8]
    2e92:	9601      	str	r6, [sp, #4]
    2e94:	4bd0      	ldr	r3, [pc, #832]	; (31d8 <main+0x448>)
    2e96:	9300      	str	r3, [sp, #0]
    2e98:	4bd0      	ldr	r3, [pc, #832]	; (31dc <main+0x44c>)
    2e9a:	2204      	movs	r2, #4
    2e9c:	49d0      	ldr	r1, [pc, #832]	; (31e0 <main+0x450>)
    2e9e:	a821      	add	r0, sp, #132	; 0x84
    2ea0:	4fd0      	ldr	r7, [pc, #832]	; (31e4 <main+0x454>)
    2ea2:	47b8      	blx	r7
    menu_add_item(&main_menu, tmp_item);
    2ea4:	ab24      	add	r3, sp, #144	; 0x90
    2ea6:	466a      	mov	r2, sp
    2ea8:	cb23      	ldmia	r3!, {r0, r1, r5}
    2eaa:	c223      	stmia	r2!, {r0, r1, r5}
    2eac:	cb23      	ldmia	r3!, {r0, r1, r5}
    2eae:	c223      	stmia	r2!, {r0, r1, r5}
    2eb0:	9921      	ldr	r1, [sp, #132]	; 0x84
    2eb2:	9a22      	ldr	r2, [sp, #136]	; 0x88
    2eb4:	9b23      	ldr	r3, [sp, #140]	; 0x8c
    2eb6:	48cc      	ldr	r0, [pc, #816]	; (31e8 <main+0x458>)
    2eb8:	4dcc      	ldr	r5, [pc, #816]	; (31ec <main+0x45c>)
    2eba:	47a8      	blx	r5
    menu_create_item(&tmp_item, "CHANNEL 1", TYPE_MENU, "", (void *)p_to_menus[0], 0, 0);
    2ebc:	9602      	str	r6, [sp, #8]
    2ebe:	9601      	str	r6, [sp, #4]
    2ec0:	4bcb      	ldr	r3, [pc, #812]	; (31f0 <main+0x460>)
    2ec2:	9300      	str	r3, [sp, #0]
    2ec4:	4bc5      	ldr	r3, [pc, #788]	; (31dc <main+0x44c>)
    2ec6:	2204      	movs	r2, #4
    2ec8:	49ca      	ldr	r1, [pc, #808]	; (31f4 <main+0x464>)
    2eca:	a821      	add	r0, sp, #132	; 0x84
    2ecc:	47b8      	blx	r7
    menu_add_item(&main_menu, tmp_item);
    2ece:	ab24      	add	r3, sp, #144	; 0x90
    2ed0:	466a      	mov	r2, sp
    2ed2:	cb13      	ldmia	r3!, {r0, r1, r4}
    2ed4:	c213      	stmia	r2!, {r0, r1, r4}
    2ed6:	cb13      	ldmia	r3!, {r0, r1, r4}
    2ed8:	c213      	stmia	r2!, {r0, r1, r4}
    2eda:	9921      	ldr	r1, [sp, #132]	; 0x84
    2edc:	9a22      	ldr	r2, [sp, #136]	; 0x88
    2ede:	9b23      	ldr	r3, [sp, #140]	; 0x8c
    2ee0:	48c1      	ldr	r0, [pc, #772]	; (31e8 <main+0x458>)
    2ee2:	47a8      	blx	r5
    menu_create_item(&tmp_item, "CHANNEL 2", TYPE_MENU, "", (void *)p_to_menus[1], 0, 0);
    2ee4:	9602      	str	r6, [sp, #8]
    2ee6:	9601      	str	r6, [sp, #4]
    2ee8:	4bc3      	ldr	r3, [pc, #780]	; (31f8 <main+0x468>)
    2eea:	9300      	str	r3, [sp, #0]
    2eec:	4bbb      	ldr	r3, [pc, #748]	; (31dc <main+0x44c>)
    2eee:	2204      	movs	r2, #4
    2ef0:	49c2      	ldr	r1, [pc, #776]	; (31fc <main+0x46c>)
    2ef2:	a821      	add	r0, sp, #132	; 0x84
    2ef4:	47b8      	blx	r7
    menu_add_item(&main_menu, tmp_item);
    2ef6:	ab24      	add	r3, sp, #144	; 0x90
    2ef8:	466a      	mov	r2, sp
    2efa:	cb13      	ldmia	r3!, {r0, r1, r4}
    2efc:	c213      	stmia	r2!, {r0, r1, r4}
    2efe:	cb13      	ldmia	r3!, {r0, r1, r4}
    2f00:	c213      	stmia	r2!, {r0, r1, r4}
    2f02:	9921      	ldr	r1, [sp, #132]	; 0x84
    2f04:	9a22      	ldr	r2, [sp, #136]	; 0x88
    2f06:	9b23      	ldr	r3, [sp, #140]	; 0x8c
    2f08:	48b7      	ldr	r0, [pc, #732]	; (31e8 <main+0x458>)
    2f0a:	47a8      	blx	r5
    menu_create_item(&tmp_item, "CHANNEL 3", TYPE_MENU, "", (void *)p_to_menus[2], 0, 0);
    2f0c:	9602      	str	r6, [sp, #8]
    2f0e:	9601      	str	r6, [sp, #4]
    2f10:	4bbb      	ldr	r3, [pc, #748]	; (3200 <main+0x470>)
    2f12:	9300      	str	r3, [sp, #0]
    2f14:	4bb1      	ldr	r3, [pc, #708]	; (31dc <main+0x44c>)
    2f16:	2204      	movs	r2, #4
    2f18:	49ba      	ldr	r1, [pc, #744]	; (3204 <main+0x474>)
    2f1a:	a821      	add	r0, sp, #132	; 0x84
    2f1c:	47b8      	blx	r7
    menu_add_item(&main_menu, tmp_item);
    2f1e:	ab24      	add	r3, sp, #144	; 0x90
    2f20:	466a      	mov	r2, sp
    2f22:	cb13      	ldmia	r3!, {r0, r1, r4}
    2f24:	c213      	stmia	r2!, {r0, r1, r4}
    2f26:	cb13      	ldmia	r3!, {r0, r1, r4}
    2f28:	c213      	stmia	r2!, {r0, r1, r4}
    2f2a:	9921      	ldr	r1, [sp, #132]	; 0x84
    2f2c:	9a22      	ldr	r2, [sp, #136]	; 0x88
    2f2e:	9b23      	ldr	r3, [sp, #140]	; 0x8c
    2f30:	48ad      	ldr	r0, [pc, #692]	; (31e8 <main+0x458>)
    2f32:	47a8      	blx	r5
    menu_create_item(&tmp_item, "CHANNEL 4", TYPE_MENU, "", (void *)p_to_menus[3], 0, 0);
    2f34:	9602      	str	r6, [sp, #8]
    2f36:	9601      	str	r6, [sp, #4]
    2f38:	4bb3      	ldr	r3, [pc, #716]	; (3208 <main+0x478>)
    2f3a:	9300      	str	r3, [sp, #0]
    2f3c:	4ba7      	ldr	r3, [pc, #668]	; (31dc <main+0x44c>)
    2f3e:	2204      	movs	r2, #4
    2f40:	49b2      	ldr	r1, [pc, #712]	; (320c <main+0x47c>)
    2f42:	a821      	add	r0, sp, #132	; 0x84
    2f44:	47b8      	blx	r7
    menu_add_item(&main_menu, tmp_item);
    2f46:	ab24      	add	r3, sp, #144	; 0x90
    2f48:	466a      	mov	r2, sp
    2f4a:	cb13      	ldmia	r3!, {r0, r1, r4}
    2f4c:	c213      	stmia	r2!, {r0, r1, r4}
    2f4e:	cb13      	ldmia	r3!, {r0, r1, r4}
    2f50:	c213      	stmia	r2!, {r0, r1, r4}
    2f52:	9921      	ldr	r1, [sp, #132]	; 0x84
    2f54:	9a22      	ldr	r2, [sp, #136]	; 0x88
    2f56:	9b23      	ldr	r3, [sp, #140]	; 0x8c
    2f58:	48a3      	ldr	r0, [pc, #652]	; (31e8 <main+0x458>)
    2f5a:	47a8      	blx	r5
    menu_create_item(&tmp_item, "CHANNEL 5", TYPE_MENU, "", (void *)p_to_menus[4], 0, 0);
    2f5c:	9602      	str	r6, [sp, #8]
    2f5e:	9601      	str	r6, [sp, #4]
    2f60:	4bab      	ldr	r3, [pc, #684]	; (3210 <main+0x480>)
    2f62:	9300      	str	r3, [sp, #0]
    2f64:	4b9d      	ldr	r3, [pc, #628]	; (31dc <main+0x44c>)
    2f66:	2204      	movs	r2, #4
    2f68:	49aa      	ldr	r1, [pc, #680]	; (3214 <main+0x484>)
    2f6a:	a821      	add	r0, sp, #132	; 0x84
    2f6c:	47b8      	blx	r7
    menu_add_item(&main_menu, tmp_item);
    2f6e:	ab24      	add	r3, sp, #144	; 0x90
    2f70:	466a      	mov	r2, sp
    2f72:	cb13      	ldmia	r3!, {r0, r1, r4}
    2f74:	c213      	stmia	r2!, {r0, r1, r4}
    2f76:	cb13      	ldmia	r3!, {r0, r1, r4}
    2f78:	c213      	stmia	r2!, {r0, r1, r4}
    2f7a:	9921      	ldr	r1, [sp, #132]	; 0x84
    2f7c:	9a22      	ldr	r2, [sp, #136]	; 0x88
    2f7e:	9b23      	ldr	r3, [sp, #140]	; 0x8c
    2f80:	4899      	ldr	r0, [pc, #612]	; (31e8 <main+0x458>)
    2f82:	47a8      	blx	r5
    menu_create_item(&tmp_item, "CONTRAST",  TYPE_UINT8, "", (void *)&contrast, 0, 16);
    2f84:	2383      	movs	r3, #131	; 0x83
    2f86:	05db      	lsls	r3, r3, #23
    2f88:	9302      	str	r3, [sp, #8]
    2f8a:	9601      	str	r6, [sp, #4]
    2f8c:	239a      	movs	r3, #154	; 0x9a
    2f8e:	aa04      	add	r2, sp, #16
    2f90:	4694      	mov	ip, r2
    2f92:	4463      	add	r3, ip
    2f94:	9300      	str	r3, [sp, #0]
    2f96:	4b91      	ldr	r3, [pc, #580]	; (31dc <main+0x44c>)
    2f98:	2200      	movs	r2, #0
    2f9a:	499f      	ldr	r1, [pc, #636]	; (3218 <main+0x488>)
    2f9c:	a821      	add	r0, sp, #132	; 0x84
    2f9e:	47b8      	blx	r7
    menu_add_item(&settings_menu, tmp_item);
    2fa0:	ab24      	add	r3, sp, #144	; 0x90
    2fa2:	466a      	mov	r2, sp
    2fa4:	cb13      	ldmia	r3!, {r0, r1, r4}
    2fa6:	c213      	stmia	r2!, {r0, r1, r4}
    2fa8:	cb13      	ldmia	r3!, {r0, r1, r4}
    2faa:	c213      	stmia	r2!, {r0, r1, r4}
    2fac:	9921      	ldr	r1, [sp, #132]	; 0x84
    2fae:	9a22      	ldr	r2, [sp, #136]	; 0x88
    2fb0:	9b23      	ldr	r3, [sp, #140]	; 0x8c
    2fb2:	4889      	ldr	r0, [pc, #548]	; (31d8 <main+0x448>)
    2fb4:	47a8      	blx	r5
    menu_create_item(&tmp_item, "BRIGHTNES",  TYPE_UINT8, "", (void *)&brightness, 0, 10);
    2fb6:	4b99      	ldr	r3, [pc, #612]	; (321c <main+0x48c>)
    2fb8:	9302      	str	r3, [sp, #8]
    2fba:	9601      	str	r6, [sp, #4]
    2fbc:	239b      	movs	r3, #155	; 0x9b
    2fbe:	aa04      	add	r2, sp, #16
    2fc0:	4694      	mov	ip, r2
    2fc2:	4463      	add	r3, ip
    2fc4:	9300      	str	r3, [sp, #0]
    2fc6:	4b85      	ldr	r3, [pc, #532]	; (31dc <main+0x44c>)
    2fc8:	2200      	movs	r2, #0
    2fca:	4995      	ldr	r1, [pc, #596]	; (3220 <main+0x490>)
    2fcc:	a821      	add	r0, sp, #132	; 0x84
    2fce:	47b8      	blx	r7
    menu_add_item(&settings_menu, tmp_item);
    2fd0:	ab24      	add	r3, sp, #144	; 0x90
    2fd2:	466a      	mov	r2, sp
    2fd4:	cb13      	ldmia	r3!, {r0, r1, r4}
    2fd6:	c213      	stmia	r2!, {r0, r1, r4}
    2fd8:	cb13      	ldmia	r3!, {r0, r1, r4}
    2fda:	c213      	stmia	r2!, {r0, r1, r4}
    2fdc:	9921      	ldr	r1, [sp, #132]	; 0x84
    2fde:	9a22      	ldr	r2, [sp, #136]	; 0x88
    2fe0:	9b23      	ldr	r3, [sp, #140]	; 0x8c
    2fe2:	487d      	ldr	r0, [pc, #500]	; (31d8 <main+0x448>)
    2fe4:	47a8      	blx	r5
    menu_create_item(&tmp_item, "MODE",  TYPE_UINT8, "", (void *)&device_mode_num, 0, 3);
    2fe6:	4b8f      	ldr	r3, [pc, #572]	; (3224 <main+0x494>)
    2fe8:	9302      	str	r3, [sp, #8]
    2fea:	9601      	str	r6, [sp, #4]
    2fec:	2308      	movs	r3, #8
    2fee:	33ff      	adds	r3, #255	; 0xff
    2ff0:	aa04      	add	r2, sp, #16
    2ff2:	4694      	mov	ip, r2
    2ff4:	4463      	add	r3, ip
    2ff6:	9300      	str	r3, [sp, #0]
    2ff8:	4b78      	ldr	r3, [pc, #480]	; (31dc <main+0x44c>)
    2ffa:	2200      	movs	r2, #0
    2ffc:	498a      	ldr	r1, [pc, #552]	; (3228 <main+0x498>)
    2ffe:	a821      	add	r0, sp, #132	; 0x84
    3000:	47b8      	blx	r7
    menu_add_item(&settings_menu, tmp_item);
    3002:	ab24      	add	r3, sp, #144	; 0x90
    3004:	466a      	mov	r2, sp
    3006:	cb13      	ldmia	r3!, {r0, r1, r4}
    3008:	c213      	stmia	r2!, {r0, r1, r4}
    300a:	cb13      	ldmia	r3!, {r0, r1, r4}
    300c:	c213      	stmia	r2!, {r0, r1, r4}
    300e:	9921      	ldr	r1, [sp, #132]	; 0x84
    3010:	9a22      	ldr	r2, [sp, #136]	; 0x88
    3012:	9b23      	ldr	r3, [sp, #140]	; 0x8c
    3014:	4870      	ldr	r0, [pc, #448]	; (31d8 <main+0x448>)
    3016:	47a8      	blx	r5
    menu_create_item(&tmp_item, "BACK", TYPE_MENU, "", (void *)&main_menu, 0, 0);
    3018:	9602      	str	r6, [sp, #8]
    301a:	9601      	str	r6, [sp, #4]
    301c:	4b72      	ldr	r3, [pc, #456]	; (31e8 <main+0x458>)
    301e:	9300      	str	r3, [sp, #0]
    3020:	4b6e      	ldr	r3, [pc, #440]	; (31dc <main+0x44c>)
    3022:	2204      	movs	r2, #4
    3024:	4981      	ldr	r1, [pc, #516]	; (322c <main+0x49c>)
    3026:	a821      	add	r0, sp, #132	; 0x84
    3028:	47b8      	blx	r7
    menu_add_item(&settings_menu, tmp_item);
    302a:	ab24      	add	r3, sp, #144	; 0x90
    302c:	466a      	mov	r2, sp
    302e:	cb13      	ldmia	r3!, {r0, r1, r4}
    3030:	c213      	stmia	r2!, {r0, r1, r4}
    3032:	cb13      	ldmia	r3!, {r0, r1, r4}
    3034:	c213      	stmia	r2!, {r0, r1, r4}
    3036:	9921      	ldr	r1, [sp, #132]	; 0x84
    3038:	9a22      	ldr	r2, [sp, #136]	; 0x88
    303a:	9b23      	ldr	r3, [sp, #140]	; 0x8c
    303c:	4866      	ldr	r0, [pc, #408]	; (31d8 <main+0x448>)
    303e:	47a8      	blx	r5
    3040:	2310      	movs	r3, #16
    3042:	469b      	mov	fp, r3
    3044:	2300      	movs	r3, #0
    3046:	4699      	mov	r9, r3
    3048:	2700      	movs	r7, #0
    304a:	4643      	mov	r3, r8
    304c:	9307      	str	r3, [sp, #28]
    304e:	465e      	mov	r6, fp
    3050:	0035      	movs	r5, r6
    3052:	3d10      	subs	r5, #16
            menu_create_item(&tmp_item, menu_item_name,  TYPE_UINT8, "", dmx_values + i * 16 + j, -1, 256);
    3054:	4b61      	ldr	r3, [pc, #388]	; (31dc <main+0x44c>)
    3056:	4698      	mov	r8, r3
    3058:	9b07      	ldr	r3, [sp, #28]
    305a:	469b      	mov	fp, r3
    305c:	9709      	str	r7, [sp, #36]	; 0x24
            sprintf(menu_item_name, "DMX%d", i * MENU_MAX_ITEMS + j);
    305e:	002a      	movs	r2, r5
    3060:	4973      	ldr	r1, [pc, #460]	; (3230 <main+0x4a0>)
    3062:	a80c      	add	r0, sp, #48	; 0x30
    3064:	4b73      	ldr	r3, [pc, #460]	; (3234 <main+0x4a4>)
    3066:	4798      	blx	r3
            menu_create_item(&tmp_item, menu_item_name,  TYPE_UINT8, "", dmx_values + i * 16 + j, -1, 256);
    3068:	2387      	movs	r3, #135	; 0x87
    306a:	05db      	lsls	r3, r3, #23
    306c:	9302      	str	r3, [sp, #8]
    306e:	4b72      	ldr	r3, [pc, #456]	; (3238 <main+0x4a8>)
    3070:	9301      	str	r3, [sp, #4]
    3072:	464b      	mov	r3, r9
    3074:	18eb      	adds	r3, r5, r3
    3076:	aa87      	add	r2, sp, #540	; 0x21c
    3078:	4694      	mov	ip, r2
    307a:	4463      	add	r3, ip
    307c:	9300      	str	r3, [sp, #0]
    307e:	4643      	mov	r3, r8
    3080:	2200      	movs	r2, #0
    3082:	a90c      	add	r1, sp, #48	; 0x30
    3084:	a821      	add	r0, sp, #132	; 0x84
    3086:	4f57      	ldr	r7, [pc, #348]	; (31e4 <main+0x454>)
    3088:	47b8      	blx	r7
            menu_add_item(p_to_dmx_group_menus[i], tmp_item);
    308a:	465b      	mov	r3, fp
    308c:	681b      	ldr	r3, [r3, #0]
    308e:	0018      	movs	r0, r3
    3090:	9308      	str	r3, [sp, #32]
    3092:	ab24      	add	r3, sp, #144	; 0x90
    3094:	466a      	mov	r2, sp
    3096:	cb92      	ldmia	r3!, {r1, r4, r7}
    3098:	c292      	stmia	r2!, {r1, r4, r7}
    309a:	cb92      	ldmia	r3!, {r1, r4, r7}
    309c:	c292      	stmia	r2!, {r1, r4, r7}
    309e:	9921      	ldr	r1, [sp, #132]	; 0x84
    30a0:	9a22      	ldr	r2, [sp, #136]	; 0x88
    30a2:	9b23      	ldr	r3, [sp, #140]	; 0x8c
    30a4:	4f51      	ldr	r7, [pc, #324]	; (31ec <main+0x45c>)
    30a6:	47b8      	blx	r7
    30a8:	3501      	adds	r5, #1
        for(uint16_t j = 0; j < MENU_MAX_ITEMS - 1 ; j++) {
    30aa:	42b5      	cmp	r5, r6
    30ac:	d1d7      	bne.n	305e <main+0x2ce>
    30ae:	465b      	mov	r3, fp
    30b0:	9307      	str	r3, [sp, #28]
    30b2:	9f09      	ldr	r7, [sp, #36]	; 0x24
        menu_create_item(&tmp_item, "BACK", TYPE_MENU, "", (void *)&static_channels_menu, 0, 0);
    30b4:	2500      	movs	r5, #0
    30b6:	9502      	str	r5, [sp, #8]
    30b8:	9501      	str	r5, [sp, #4]
    30ba:	4b60      	ldr	r3, [pc, #384]	; (323c <main+0x4ac>)
    30bc:	9300      	str	r3, [sp, #0]
    30be:	4b47      	ldr	r3, [pc, #284]	; (31dc <main+0x44c>)
    30c0:	2204      	movs	r2, #4
    30c2:	495a      	ldr	r1, [pc, #360]	; (322c <main+0x49c>)
    30c4:	a821      	add	r0, sp, #132	; 0x84
    30c6:	4c47      	ldr	r4, [pc, #284]	; (31e4 <main+0x454>)
    30c8:	46a2      	mov	sl, r4
    30ca:	47a0      	blx	r4
        menu_add_item(p_to_dmx_group_menus[i], tmp_item);
    30cc:	ab24      	add	r3, sp, #144	; 0x90
    30ce:	466a      	mov	r2, sp
    30d0:	cb13      	ldmia	r3!, {r0, r1, r4}
    30d2:	c213      	stmia	r2!, {r0, r1, r4}
    30d4:	cb13      	ldmia	r3!, {r0, r1, r4}
    30d6:	c213      	stmia	r2!, {r0, r1, r4}
    30d8:	9921      	ldr	r1, [sp, #132]	; 0x84
    30da:	9a22      	ldr	r2, [sp, #136]	; 0x88
    30dc:	9b23      	ldr	r3, [sp, #140]	; 0x8c
    30de:	9808      	ldr	r0, [sp, #32]
    30e0:	4c42      	ldr	r4, [pc, #264]	; (31ec <main+0x45c>)
    30e2:	46a0      	mov	r8, r4
    30e4:	47a0      	blx	r4
        sprintf(menu_item_name, "DMX%d-%d", i * 16, i * 16 + 15);
    30e6:	003b      	movs	r3, r7
    30e8:	330f      	adds	r3, #15
    30ea:	003a      	movs	r2, r7
    30ec:	4954      	ldr	r1, [pc, #336]	; (3240 <main+0x4b0>)
    30ee:	a80c      	add	r0, sp, #48	; 0x30
    30f0:	4c50      	ldr	r4, [pc, #320]	; (3234 <main+0x4a4>)
    30f2:	47a0      	blx	r4
        menu_create_item(&tmp_item, menu_item_name, TYPE_MENU, "", (void *)p_to_dmx_group_menus[i], 0, 0);
    30f4:	9502      	str	r5, [sp, #8]
    30f6:	9501      	str	r5, [sp, #4]
    30f8:	9b08      	ldr	r3, [sp, #32]
    30fa:	9300      	str	r3, [sp, #0]
    30fc:	4b37      	ldr	r3, [pc, #220]	; (31dc <main+0x44c>)
    30fe:	2204      	movs	r2, #4
    3100:	a90c      	add	r1, sp, #48	; 0x30
    3102:	a821      	add	r0, sp, #132	; 0x84
    3104:	47d0      	blx	sl
        menu_add_item(&static_channels_menu, tmp_item);
    3106:	ab24      	add	r3, sp, #144	; 0x90
    3108:	466a      	mov	r2, sp
    310a:	cb13      	ldmia	r3!, {r0, r1, r4}
    310c:	c213      	stmia	r2!, {r0, r1, r4}
    310e:	cb13      	ldmia	r3!, {r0, r1, r4}
    3110:	c213      	stmia	r2!, {r0, r1, r4}
    3112:	9921      	ldr	r1, [sp, #132]	; 0x84
    3114:	9a22      	ldr	r2, [sp, #136]	; 0x88
    3116:	9b23      	ldr	r3, [sp, #140]	; 0x8c
    3118:	4848      	ldr	r0, [pc, #288]	; (323c <main+0x4ac>)
    311a:	47c0      	blx	r8
    311c:	9b07      	ldr	r3, [sp, #28]
    311e:	3304      	adds	r3, #4
    3120:	9307      	str	r3, [sp, #28]
    3122:	3710      	adds	r7, #16
    3124:	2301      	movs	r3, #1
    3126:	425b      	negs	r3, r3
    3128:	469c      	mov	ip, r3
    312a:	44e1      	add	r9, ip
    312c:	3611      	adds	r6, #17
    for(uint16_t i = 0; i < (MAX_DMX_CHANNELS / 16); i++) {
    312e:	3302      	adds	r3, #2
    3130:	33ff      	adds	r3, #255	; 0xff
    3132:	429f      	cmp	r7, r3
    3134:	d18c      	bne.n	3050 <main+0x2c0>
    menu_create_item(&tmp_item, "STATIC_CH", TYPE_MENU, "", (void *)&static_channels_menu, 0, 0);
    3136:	2400      	movs	r4, #0
    3138:	9402      	str	r4, [sp, #8]
    313a:	9401      	str	r4, [sp, #4]
    313c:	4f3f      	ldr	r7, [pc, #252]	; (323c <main+0x4ac>)
    313e:	9700      	str	r7, [sp, #0]
    3140:	4b26      	ldr	r3, [pc, #152]	; (31dc <main+0x44c>)
    3142:	2204      	movs	r2, #4
    3144:	493f      	ldr	r1, [pc, #252]	; (3244 <main+0x4b4>)
    3146:	a821      	add	r0, sp, #132	; 0x84
    3148:	4d26      	ldr	r5, [pc, #152]	; (31e4 <main+0x454>)
    314a:	47a8      	blx	r5
    menu_add_item(&main_menu, tmp_item);
    314c:	4b26      	ldr	r3, [pc, #152]	; (31e8 <main+0x458>)
    314e:	4699      	mov	r9, r3
    3150:	ab24      	add	r3, sp, #144	; 0x90
    3152:	466a      	mov	r2, sp
    3154:	cb43      	ldmia	r3!, {r0, r1, r6}
    3156:	c243      	stmia	r2!, {r0, r1, r6}
    3158:	cb43      	ldmia	r3!, {r0, r1, r6}
    315a:	c243      	stmia	r2!, {r0, r1, r6}
    315c:	9921      	ldr	r1, [sp, #132]	; 0x84
    315e:	9a22      	ldr	r2, [sp, #136]	; 0x88
    3160:	9b23      	ldr	r3, [sp, #140]	; 0x8c
    3162:	4648      	mov	r0, r9
    3164:	4e21      	ldr	r6, [pc, #132]	; (31ec <main+0x45c>)
    3166:	47b0      	blx	r6
    menu_create_item(&tmp_item, "BACK", TYPE_MENU, "", (void *)&main_menu, 0, 0);
    3168:	9402      	str	r4, [sp, #8]
    316a:	9401      	str	r4, [sp, #4]
    316c:	464b      	mov	r3, r9
    316e:	9300      	str	r3, [sp, #0]
    3170:	4b1a      	ldr	r3, [pc, #104]	; (31dc <main+0x44c>)
    3172:	2204      	movs	r2, #4
    3174:	492d      	ldr	r1, [pc, #180]	; (322c <main+0x49c>)
    3176:	a821      	add	r0, sp, #132	; 0x84
    3178:	47a8      	blx	r5
    menu_add_item(&static_channels_menu, tmp_item);
    317a:	ab24      	add	r3, sp, #144	; 0x90
    317c:	466a      	mov	r2, sp
    317e:	cb13      	ldmia	r3!, {r0, r1, r4}
    3180:	c213      	stmia	r2!, {r0, r1, r4}
    3182:	e061      	b.n	3248 <main+0x4b8>
    3184:	fffffbec 	.word	0xfffffbec
    3188:	00002ae5 	.word	0x00002ae5
    318c:	00002bf1 	.word	0x00002bf1
    3190:	0000034d 	.word	0x0000034d
    3194:	000004bd 	.word	0x000004bd
    3198:	00002ccd 	.word	0x00002ccd
    319c:	00002cf9 	.word	0x00002cf9
    31a0:	00002289 	.word	0x00002289
    31a4:	00000635 	.word	0x00000635
    31a8:	000005f5 	.word	0x000005f5
    31ac:	20001dac 	.word	0x20001dac
    31b0:	00000935 	.word	0x00000935
    31b4:	20000014 	.word	0x20000014
    31b8:	0000508f 	.word	0x0000508f
    31bc:	0000020d 	.word	0x0000020d
    31c0:	0000020e 	.word	0x0000020e
    31c4:	0000020f 	.word	0x0000020f
    31c8:	000024f1 	.word	0x000024f1
    31cc:	00002541 	.word	0x00002541
    31d0:	00005069 	.word	0x00005069
    31d4:	00005a20 	.word	0x00005a20
    31d8:	20000f54 	.word	0x20000f54
    31dc:	000059c0 	.word	0x000059c0
    31e0:	00005a48 	.word	0x00005a48
    31e4:	00001f6d 	.word	0x00001f6d
    31e8:	20000cec 	.word	0x20000cec
    31ec:	00001bc9 	.word	0x00001bc9
    31f0:	200000e4 	.word	0x200000e4
    31f4:	00005a54 	.word	0x00005a54
    31f8:	2000034c 	.word	0x2000034c
    31fc:	00005a60 	.word	0x00005a60
    3200:	200005b4 	.word	0x200005b4
    3204:	00005a6c 	.word	0x00005a6c
    3208:	2000081c 	.word	0x2000081c
    320c:	00005a78 	.word	0x00005a78
    3210:	20000a84 	.word	0x20000a84
    3214:	00005a84 	.word	0x00005a84
    3218:	00005a90 	.word	0x00005a90
    321c:	41200000 	.word	0x41200000
    3220:	00005a9c 	.word	0x00005a9c
    3224:	40400000 	.word	0x40400000
    3228:	00005aa8 	.word	0x00005aa8
    322c:	00005ab0 	.word	0x00005ab0
    3230:	00005ab8 	.word	0x00005ab8
    3234:	00005215 	.word	0x00005215
    3238:	bf800000 	.word	0xbf800000
    323c:	200011c0 	.word	0x200011c0
    3240:	00005ac0 	.word	0x00005ac0
    3244:	00005acc 	.word	0x00005acc
    3248:	cb13      	ldmia	r3!, {r0, r1, r4}
    324a:	c213      	stmia	r2!, {r0, r1, r4}
    324c:	9921      	ldr	r1, [sp, #132]	; 0x84
    324e:	9a22      	ldr	r2, [sp, #136]	; 0x88
    3250:	9b23      	ldr	r3, [sp, #140]	; 0x8c
    3252:	0038      	movs	r0, r7
    3254:	47b0      	blx	r6
    3256:	2600      	movs	r6, #0
        menu_create_item(&tmp_item, "DMX CH   ",  TYPE_UINT32, "    ", (void *)&p_to_channels[i]->ch, 0, 255);
    3258:	46b0      	mov	r8, r6
    325a:	ab30      	add	r3, sp, #192	; 0xc0
    325c:	4642      	mov	r2, r8
    325e:	58d3      	ldr	r3, [r2, r3]
    3260:	469a      	mov	sl, r3
    3262:	4fb6      	ldr	r7, [pc, #728]	; (353c <main+0x7ac>)
    3264:	9702      	str	r7, [sp, #8]
    3266:	2400      	movs	r4, #0
    3268:	9401      	str	r4, [sp, #4]
    326a:	9300      	str	r3, [sp, #0]
    326c:	4bb4      	ldr	r3, [pc, #720]	; (3540 <main+0x7b0>)
    326e:	2202      	movs	r2, #2
    3270:	49b4      	ldr	r1, [pc, #720]	; (3544 <main+0x7b4>)
    3272:	a821      	add	r0, sp, #132	; 0x84
    3274:	4eb4      	ldr	r6, [pc, #720]	; (3548 <main+0x7b8>)
    3276:	46b1      	mov	r9, r6
    3278:	47b0      	blx	r6
        menu_add_item(p_to_menus[i], tmp_item);
    327a:	ab2b      	add	r3, sp, #172	; 0xac
    327c:	4642      	mov	r2, r8
    327e:	58d3      	ldr	r3, [r2, r3]
    3280:	0018      	movs	r0, r3
    3282:	ab24      	add	r3, sp, #144	; 0x90
    3284:	466a      	mov	r2, sp
    3286:	cb62      	ldmia	r3!, {r1, r5, r6}
    3288:	c262      	stmia	r2!, {r1, r5, r6}
    328a:	cb62      	ldmia	r3!, {r1, r5, r6}
    328c:	c262      	stmia	r2!, {r1, r5, r6}
    328e:	9921      	ldr	r1, [sp, #132]	; 0x84
    3290:	9a22      	ldr	r2, [sp, #136]	; 0x88
    3292:	9b23      	ldr	r3, [sp, #140]	; 0x8c
    3294:	9007      	str	r0, [sp, #28]
    3296:	4ead      	ldr	r6, [pc, #692]	; (354c <main+0x7bc>)
    3298:	47b0      	blx	r6
        menu_create_item(&tmp_item, "LEVEL    ",  TYPE_FLOAT, "    ", (void *)&p_to_channels[i]->level, 0, 255);
    329a:	9702      	str	r7, [sp, #8]
    329c:	9401      	str	r4, [sp, #4]
    329e:	4653      	mov	r3, sl
    32a0:	3314      	adds	r3, #20
    32a2:	9300      	str	r3, [sp, #0]
    32a4:	4ba6      	ldr	r3, [pc, #664]	; (3540 <main+0x7b0>)
    32a6:	2203      	movs	r2, #3
    32a8:	49a9      	ldr	r1, [pc, #676]	; (3550 <main+0x7c0>)
    32aa:	a821      	add	r0, sp, #132	; 0x84
    32ac:	47c8      	blx	r9
        menu_add_item(p_to_menus[i], tmp_item);
    32ae:	ab24      	add	r3, sp, #144	; 0x90
    32b0:	466a      	mov	r2, sp
    32b2:	cb23      	ldmia	r3!, {r0, r1, r5}
    32b4:	c223      	stmia	r2!, {r0, r1, r5}
    32b6:	cb23      	ldmia	r3!, {r0, r1, r5}
    32b8:	c223      	stmia	r2!, {r0, r1, r5}
    32ba:	9921      	ldr	r1, [sp, #132]	; 0x84
    32bc:	9a22      	ldr	r2, [sp, #136]	; 0x88
    32be:	9b23      	ldr	r3, [sp, #140]	; 0x8c
    32c0:	9807      	ldr	r0, [sp, #28]
    32c2:	47b0      	blx	r6
        menu_create_item(&tmp_item, "ATTACK   ",  TYPE_UINT32, "  ms", (void *)&p_to_channels[i]->A, 0, 0);
    32c4:	4fa3      	ldr	r7, [pc, #652]	; (3554 <main+0x7c4>)
    32c6:	9402      	str	r4, [sp, #8]
    32c8:	9401      	str	r4, [sp, #4]
    32ca:	4652      	mov	r2, sl
    32cc:	1d13      	adds	r3, r2, #4
    32ce:	9300      	str	r3, [sp, #0]
    32d0:	003b      	movs	r3, r7
    32d2:	2202      	movs	r2, #2
    32d4:	49a0      	ldr	r1, [pc, #640]	; (3558 <main+0x7c8>)
    32d6:	a821      	add	r0, sp, #132	; 0x84
    32d8:	47c8      	blx	r9
        menu_add_item(p_to_menus[i], tmp_item);
    32da:	ab24      	add	r3, sp, #144	; 0x90
    32dc:	466a      	mov	r2, sp
    32de:	cb23      	ldmia	r3!, {r0, r1, r5}
    32e0:	c223      	stmia	r2!, {r0, r1, r5}
    32e2:	cb23      	ldmia	r3!, {r0, r1, r5}
    32e4:	c223      	stmia	r2!, {r0, r1, r5}
    32e6:	9921      	ldr	r1, [sp, #132]	; 0x84
    32e8:	9a22      	ldr	r2, [sp, #136]	; 0x88
    32ea:	9b23      	ldr	r3, [sp, #140]	; 0x8c
    32ec:	9807      	ldr	r0, [sp, #28]
    32ee:	47b0      	blx	r6
        menu_create_item(&tmp_item, "DECAY    ",  TYPE_UINT32, "  ms", (void *)&p_to_channels[i]->D, 0, 0);
    32f0:	9402      	str	r4, [sp, #8]
    32f2:	9401      	str	r4, [sp, #4]
    32f4:	4653      	mov	r3, sl
    32f6:	3308      	adds	r3, #8
    32f8:	9300      	str	r3, [sp, #0]
    32fa:	003b      	movs	r3, r7
    32fc:	2202      	movs	r2, #2
    32fe:	4997      	ldr	r1, [pc, #604]	; (355c <main+0x7cc>)
    3300:	a821      	add	r0, sp, #132	; 0x84
    3302:	47c8      	blx	r9
        menu_add_item(p_to_menus[i], tmp_item);
    3304:	ab24      	add	r3, sp, #144	; 0x90
    3306:	466a      	mov	r2, sp
    3308:	cb23      	ldmia	r3!, {r0, r1, r5}
    330a:	c223      	stmia	r2!, {r0, r1, r5}
    330c:	cb23      	ldmia	r3!, {r0, r1, r5}
    330e:	c223      	stmia	r2!, {r0, r1, r5}
    3310:	9921      	ldr	r1, [sp, #132]	; 0x84
    3312:	9a22      	ldr	r2, [sp, #136]	; 0x88
    3314:	9b23      	ldr	r3, [sp, #140]	; 0x8c
    3316:	9807      	ldr	r0, [sp, #28]
    3318:	47b0      	blx	r6
        menu_create_item(&tmp_item, "SUSTAIN  ",  TYPE_UINT32, "    ", (void *)&p_to_channels[i]->S, 0, 0);
    331a:	9402      	str	r4, [sp, #8]
    331c:	9401      	str	r4, [sp, #4]
    331e:	4653      	mov	r3, sl
    3320:	330c      	adds	r3, #12
    3322:	9300      	str	r3, [sp, #0]
    3324:	4b86      	ldr	r3, [pc, #536]	; (3540 <main+0x7b0>)
    3326:	2202      	movs	r2, #2
    3328:	498d      	ldr	r1, [pc, #564]	; (3560 <main+0x7d0>)
    332a:	a821      	add	r0, sp, #132	; 0x84
    332c:	47c8      	blx	r9
        menu_add_item(p_to_menus[i], tmp_item);
    332e:	ab24      	add	r3, sp, #144	; 0x90
    3330:	466a      	mov	r2, sp
    3332:	cb23      	ldmia	r3!, {r0, r1, r5}
    3334:	c223      	stmia	r2!, {r0, r1, r5}
    3336:	cb23      	ldmia	r3!, {r0, r1, r5}
    3338:	c223      	stmia	r2!, {r0, r1, r5}
    333a:	9921      	ldr	r1, [sp, #132]	; 0x84
    333c:	9a22      	ldr	r2, [sp, #136]	; 0x88
    333e:	9b23      	ldr	r3, [sp, #140]	; 0x8c
    3340:	9807      	ldr	r0, [sp, #28]
    3342:	47b0      	blx	r6
        menu_create_item(&tmp_item, "RELEASE  ",  TYPE_UINT32, "  ms", (void *)&p_to_channels[i]->R, 0, 0);
    3344:	9402      	str	r4, [sp, #8]
    3346:	9401      	str	r4, [sp, #4]
    3348:	4653      	mov	r3, sl
    334a:	3310      	adds	r3, #16
    334c:	9300      	str	r3, [sp, #0]
    334e:	003b      	movs	r3, r7
    3350:	2202      	movs	r2, #2
    3352:	4984      	ldr	r1, [pc, #528]	; (3564 <main+0x7d4>)
    3354:	a821      	add	r0, sp, #132	; 0x84
    3356:	47c8      	blx	r9
        menu_add_item(p_to_menus[i], tmp_item);
    3358:	ab24      	add	r3, sp, #144	; 0x90
    335a:	466a      	mov	r2, sp
    335c:	cb23      	ldmia	r3!, {r0, r1, r5}
    335e:	c223      	stmia	r2!, {r0, r1, r5}
    3360:	cb23      	ldmia	r3!, {r0, r1, r5}
    3362:	c223      	stmia	r2!, {r0, r1, r5}
    3364:	9921      	ldr	r1, [sp, #132]	; 0x84
    3366:	9a22      	ldr	r2, [sp, #136]	; 0x88
    3368:	9b23      	ldr	r3, [sp, #140]	; 0x8c
    336a:	9f07      	ldr	r7, [sp, #28]
    336c:	0038      	movs	r0, r7
    336e:	47b0      	blx	r6
        menu_create_item(&tmp_item, "BACK     ", TYPE_MENU, "    ", (void *)&main_menu, 0, 0);
    3370:	9402      	str	r4, [sp, #8]
    3372:	9401      	str	r4, [sp, #4]
    3374:	4b7c      	ldr	r3, [pc, #496]	; (3568 <main+0x7d8>)
    3376:	9300      	str	r3, [sp, #0]
    3378:	4b71      	ldr	r3, [pc, #452]	; (3540 <main+0x7b0>)
    337a:	2204      	movs	r2, #4
    337c:	497b      	ldr	r1, [pc, #492]	; (356c <main+0x7dc>)
    337e:	a821      	add	r0, sp, #132	; 0x84
    3380:	47c8      	blx	r9
        menu_add_item(p_to_menus[i], tmp_item);
    3382:	ab24      	add	r3, sp, #144	; 0x90
    3384:	466a      	mov	r2, sp
    3386:	cb13      	ldmia	r3!, {r0, r1, r4}
    3388:	c213      	stmia	r2!, {r0, r1, r4}
    338a:	cb13      	ldmia	r3!, {r0, r1, r4}
    338c:	c213      	stmia	r2!, {r0, r1, r4}
    338e:	9921      	ldr	r1, [sp, #132]	; 0x84
    3390:	9a22      	ldr	r2, [sp, #136]	; 0x88
    3392:	9b23      	ldr	r3, [sp, #140]	; 0x8c
    3394:	0038      	movs	r0, r7
    3396:	47b0      	blx	r6
    3398:	2304      	movs	r3, #4
    339a:	469c      	mov	ip, r3
    339c:	44e0      	add	r8, ip
    for(uint8_t i = 0; i < 5; i++) {
    339e:	4643      	mov	r3, r8
    33a0:	2b14      	cmp	r3, #20
    33a2:	d000      	beq.n	33a6 <main+0x616>
    33a4:	e759      	b.n	325a <main+0x4ca>
    33a6:	ab87      	add	r3, sp, #540	; 0x21c
    33a8:	a9ff      	add	r1, sp, #1020	; 0x3fc
    33aa:	3114      	adds	r1, #20
        dmx_values[i] = 0;
    33ac:	2200      	movs	r2, #0
    33ae:	701a      	strb	r2, [r3, #0]
    33b0:	3301      	adds	r3, #1
    for(uint16_t i = 0; i < sizeof(dmx_values); i++) {
    33b2:	428b      	cmp	r3, r1
    33b4:	d1fb      	bne.n	33ae <main+0x61e>
    device_mode = TRIGGER;
    33b6:	2200      	movs	r2, #0
    33b8:	4b6d      	ldr	r3, [pc, #436]	; (3570 <main+0x7e0>)
    33ba:	701a      	strb	r2, [r3, #0]
    contrast = 9;
    33bc:	3209      	adds	r2, #9
    33be:	239a      	movs	r3, #154	; 0x9a
    33c0:	a904      	add	r1, sp, #16
    33c2:	468c      	mov	ip, r1
    33c4:	4463      	add	r3, ip
    33c6:	701a      	strb	r2, [r3, #0]
    uint32_t send_data_timer = 0, read_button_timer = 0;
    33c8:	2300      	movs	r3, #0
                        increment_menu_position(selected_menu);
    33ca:	496a      	ldr	r1, [pc, #424]	; (3574 <main+0x7e4>)
    33cc:	4688      	mov	r8, r1
    33ce:	469a      	mov	sl, r3
    33d0:	9308      	str	r3, [sp, #32]
    33d2:	e036      	b.n	3442 <main+0x6b2>
                        menu_decrement_item(selected_menu);
    33d4:	4b67      	ldr	r3, [pc, #412]	; (3574 <main+0x7e4>)
    33d6:	6818      	ldr	r0, [r3, #0]
    33d8:	4b67      	ldr	r3, [pc, #412]	; (3578 <main+0x7e8>)
    33da:	4798      	blx	r3
                for(uint8_t i = get_encoder_speed(); i > 0; i--)
    33dc:	3c01      	subs	r4, #1
    33de:	b2e4      	uxtb	r4, r4
    33e0:	2c00      	cmp	r4, #0
    33e2:	d01f      	beq.n	3424 <main+0x694>
                    if(state == SCROLL) {
    33e4:	7833      	ldrb	r3, [r6, #0]
    33e6:	2b00      	cmp	r3, #0
    33e8:	d1f4      	bne.n	33d4 <main+0x644>
                        decrement_menu_position(selected_menu);
    33ea:	465b      	mov	r3, fp
    33ec:	6818      	ldr	r0, [r3, #0]
    33ee:	47a8      	blx	r5
    33f0:	e7f4      	b.n	33dc <main+0x64c>
                for(uint8_t i = get_encoder_speed(); i > 0; i--)
    33f2:	4b62      	ldr	r3, [pc, #392]	; (357c <main+0x7ec>)
    33f4:	4798      	blx	r3
    33f6:	1e04      	subs	r4, r0, #0
    33f8:	d014      	beq.n	3424 <main+0x694>
                    if(state == SCROLL) {
    33fa:	4e61      	ldr	r6, [pc, #388]	; (3580 <main+0x7f0>)
    33fc:	e007      	b.n	340e <main+0x67e>
                        menu_increment_item(selected_menu);
    33fe:	4b5d      	ldr	r3, [pc, #372]	; (3574 <main+0x7e4>)
    3400:	6818      	ldr	r0, [r3, #0]
    3402:	4b60      	ldr	r3, [pc, #384]	; (3584 <main+0x7f4>)
    3404:	4798      	blx	r3
                for(uint8_t i = get_encoder_speed(); i > 0; i--)
    3406:	3c01      	subs	r4, #1
    3408:	b2e4      	uxtb	r4, r4
    340a:	2c00      	cmp	r4, #0
    340c:	d00a      	beq.n	3424 <main+0x694>
                    if(state == SCROLL) {
    340e:	7833      	ldrb	r3, [r6, #0]
    3410:	2b00      	cmp	r3, #0
    3412:	d1f4      	bne.n	33fe <main+0x66e>
                        increment_menu_position(selected_menu);
    3414:	4643      	mov	r3, r8
    3416:	6818      	ldr	r0, [r3, #0]
    3418:	4b5b      	ldr	r3, [pc, #364]	; (3588 <main+0x7f8>)
    341a:	4798      	blx	r3
    341c:	e7f3      	b.n	3406 <main+0x676>
                key_pressed = 0;
    341e:	2200      	movs	r2, #0
    3420:	4b5a      	ldr	r3, [pc, #360]	; (358c <main+0x7fc>)
    3422:	701a      	strb	r2, [r3, #0]
        if(millis() - read_button_timer > 2) {
    3424:	4b5a      	ldr	r3, [pc, #360]	; (3590 <main+0x800>)
    3426:	4798      	blx	r3
    3428:	9b08      	ldr	r3, [sp, #32]
    342a:	1ac0      	subs	r0, r0, r3
    342c:	2802      	cmp	r0, #2
    342e:	d84f      	bhi.n	34d0 <main+0x740>
        if(millis() - send_data_timer > 1000) {
    3430:	4b57      	ldr	r3, [pc, #348]	; (3590 <main+0x800>)
    3432:	4798      	blx	r3
    3434:	4653      	mov	r3, sl
    3436:	1ac0      	subs	r0, r0, r3
    3438:	23fa      	movs	r3, #250	; 0xfa
    343a:	009b      	lsls	r3, r3, #2
    343c:	4298      	cmp	r0, r3
    343e:	d850      	bhi.n	34e2 <main+0x752>
    3440:	9b07      	ldr	r3, [sp, #28]
        if(contrast != prev_contrast) {
    3442:	229a      	movs	r2, #154	; 0x9a
    3444:	a904      	add	r1, sp, #16
    3446:	468c      	mov	ip, r1
    3448:	4462      	add	r2, ip
    344a:	7812      	ldrb	r2, [r2, #0]
    344c:	9207      	str	r2, [sp, #28]
    344e:	4293      	cmp	r3, r2
    3450:	d004      	beq.n	345c <main+0x6cc>
            dac_chan_write(&dac_instance, DAC_CHANNEL_0, (contrast << 5));
    3452:	0152      	lsls	r2, r2, #5
    3454:	2100      	movs	r1, #0
    3456:	484f      	ldr	r0, [pc, #316]	; (3594 <main+0x804>)
    3458:	4b4f      	ldr	r3, [pc, #316]	; (3598 <main+0x808>)
    345a:	4798      	blx	r3
        if(key_pressed) {
    345c:	4b4b      	ldr	r3, [pc, #300]	; (358c <main+0x7fc>)
    345e:	781b      	ldrb	r3, [r3, #0]
    3460:	2b00      	cmp	r3, #0
    3462:	d023      	beq.n	34ac <main+0x71c>
    3464:	ac0c      	add	r4, sp, #48	; 0x30
    3466:	ae21      	add	r6, sp, #132	; 0x84
    3468:	0020      	movs	r0, r4
                    test[i][j] = ' ';
    346a:	2120      	movs	r1, #32
                test[i][20] = 0;
    346c:	2500      	movs	r5, #0
    346e:	0002      	movs	r2, r0
    3470:	3214      	adds	r2, #20
    uint8_t prev_contrast = 0;
    3472:	0003      	movs	r3, r0
                    test[i][j] = ' ';
    3474:	7019      	strb	r1, [r3, #0]
    3476:	3301      	adds	r3, #1
                for(uint8_t j = 0; j < 20; j++)
    3478:	429a      	cmp	r2, r3
    347a:	d1fb      	bne.n	3474 <main+0x6e4>
                test[i][20] = 0;
    347c:	7505      	strb	r5, [r0, #20]
    347e:	3015      	adds	r0, #21
            for(uint8_t i = 0; i < 4; i++) {
    3480:	4286      	cmp	r6, r0
    3482:	d1f4      	bne.n	346e <main+0x6de>
            menu_whole_string(selected_menu, test, state);
    3484:	4b3e      	ldr	r3, [pc, #248]	; (3580 <main+0x7f0>)
    3486:	781a      	ldrb	r2, [r3, #0]
    3488:	4b3a      	ldr	r3, [pc, #232]	; (3574 <main+0x7e4>)
    348a:	6818      	ldr	r0, [r3, #0]
    348c:	a90c      	add	r1, sp, #48	; 0x30
    348e:	4b43      	ldr	r3, [pc, #268]	; (359c <main+0x80c>)
    3490:	4798      	blx	r3
            for(uint8_t i = 0; i < 4; i++) {
    3492:	2500      	movs	r5, #0
                lcd_setCursor(0, i);
    3494:	4f42      	ldr	r7, [pc, #264]	; (35a0 <main+0x810>)
                lcd_printstr(test[i]);
    3496:	4e43      	ldr	r6, [pc, #268]	; (35a4 <main+0x814>)
                lcd_setCursor(0, i);
    3498:	0029      	movs	r1, r5
    349a:	2000      	movs	r0, #0
    349c:	47b8      	blx	r7
                lcd_printstr(test[i]);
    349e:	0020      	movs	r0, r4
    34a0:	47b0      	blx	r6
            for(uint8_t i = 0; i < 4; i++) {
    34a2:	3501      	adds	r5, #1
    34a4:	b2ed      	uxtb	r5, r5
    34a6:	3415      	adds	r4, #21
    34a8:	2d04      	cmp	r5, #4
    34aa:	d1f5      	bne.n	3498 <main+0x708>
        key_pressed = 1;
    34ac:	2201      	movs	r2, #1
    34ae:	4b37      	ldr	r3, [pc, #220]	; (358c <main+0x7fc>)
    34b0:	701a      	strb	r2, [r3, #0]
        switch(get_encoder_status()) {
    34b2:	4b3d      	ldr	r3, [pc, #244]	; (35a8 <main+0x818>)
    34b4:	4798      	blx	r3
    34b6:	2801      	cmp	r0, #1
    34b8:	d09b      	beq.n	33f2 <main+0x662>
    34ba:	2802      	cmp	r0, #2
    34bc:	d1af      	bne.n	341e <main+0x68e>
                for(uint8_t i = get_encoder_speed(); i > 0; i--)
    34be:	4b2f      	ldr	r3, [pc, #188]	; (357c <main+0x7ec>)
    34c0:	4798      	blx	r3
    34c2:	1e04      	subs	r4, r0, #0
    34c4:	d0ae      	beq.n	3424 <main+0x694>
                    if(state == SCROLL) {
    34c6:	4e2e      	ldr	r6, [pc, #184]	; (3580 <main+0x7f0>)
                        decrement_menu_position(selected_menu);
    34c8:	4b2a      	ldr	r3, [pc, #168]	; (3574 <main+0x7e4>)
    34ca:	469b      	mov	fp, r3
    34cc:	4d37      	ldr	r5, [pc, #220]	; (35ac <main+0x81c>)
    34ce:	e789      	b.n	33e4 <main+0x654>
            read_button_timer = millis();
    34d0:	4b2f      	ldr	r3, [pc, #188]	; (3590 <main+0x800>)
    34d2:	4798      	blx	r3
    34d4:	9008      	str	r0, [sp, #32]
            button_handler(button_read(), &state);
    34d6:	4b36      	ldr	r3, [pc, #216]	; (35b0 <main+0x820>)
    34d8:	4798      	blx	r3
    34da:	4929      	ldr	r1, [pc, #164]	; (3580 <main+0x7f0>)
    34dc:	4b35      	ldr	r3, [pc, #212]	; (35b4 <main+0x824>)
    34de:	4798      	blx	r3
    34e0:	e7a6      	b.n	3430 <main+0x6a0>
            send_data_timer = millis();
    34e2:	4b2b      	ldr	r3, [pc, #172]	; (3590 <main+0x800>)
    34e4:	4798      	blx	r3
    34e6:	4682      	mov	sl, r0
            device_mode = select_device_mode(device_mode_num);
    34e8:	2308      	movs	r3, #8
    34ea:	33ff      	adds	r3, #255	; 0xff
    34ec:	aa04      	add	r2, sp, #16
    34ee:	4694      	mov	ip, r2
    34f0:	4463      	add	r3, ip
    34f2:	7818      	ldrb	r0, [r3, #0]
    34f4:	4b30      	ldr	r3, [pc, #192]	; (35b8 <main+0x828>)
    34f6:	4798      	blx	r3
    34f8:	4b1d      	ldr	r3, [pc, #116]	; (3570 <main+0x7e0>)
    34fa:	7018      	strb	r0, [r3, #0]
{
	PortGroup *const port_base = port_get_group_from_gpio_pin(gpio_pin);
	uint32_t pin_mask  = (1UL << (gpio_pin % 32));

	/* Toggle pin output level */
	port_base->OUTTGL.reg = pin_mask;
    34fc:	2280      	movs	r2, #128	; 0x80
    34fe:	0552      	lsls	r2, r2, #21
    3500:	2382      	movs	r3, #130	; 0x82
    3502:	05db      	lsls	r3, r3, #23
    3504:	61da      	str	r2, [r3, #28]
            if(device_mode == TRIGGER || device_mode == BOTH) {
    3506:	2302      	movs	r3, #2
    3508:	4398      	bics	r0, r3
    350a:	d199      	bne.n	3440 <main+0x6b0>
                BREAKPOINT;
    350c:	46c0      	nop			; (mov r8, r8)
                uint8_t usb_values[] = {get_ADSR_value(&adsr_channel0), get_ADSR_value(&adsr_channel1), get_ADSR_value(&adsr_channel2), get_ADSR_value(&adsr_channel3), get_ADSR_value(&adsr_channel4)};
    350e:	a87a      	add	r0, sp, #488	; 0x1e8
    3510:	4b2a      	ldr	r3, [pc, #168]	; (35bc <main+0x82c>)
    3512:	4699      	mov	r9, r3
    3514:	4798      	blx	r3
    3516:	ac0a      	add	r4, sp, #40	; 0x28
    3518:	7020      	strb	r0, [r4, #0]
    351a:	a86d      	add	r0, sp, #436	; 0x1b4
    351c:	47c8      	blx	r9
    351e:	7060      	strb	r0, [r4, #1]
    3520:	a860      	add	r0, sp, #384	; 0x180
    3522:	47c8      	blx	r9
    3524:	70a0      	strb	r0, [r4, #2]
    3526:	a853      	add	r0, sp, #332	; 0x14c
    3528:	47c8      	blx	r9
    352a:	70e0      	strb	r0, [r4, #3]
    352c:	a846      	add	r0, sp, #280	; 0x118
    352e:	47c8      	blx	r9
    3530:	7120      	strb	r0, [r4, #4]
                USB_SendMessage(usb_values, 5);
    3532:	2105      	movs	r1, #5
    3534:	a80a      	add	r0, sp, #40	; 0x28
    3536:	4b22      	ldr	r3, [pc, #136]	; (35c0 <main+0x830>)
    3538:	4798      	blx	r3
    353a:	e781      	b.n	3440 <main+0x6b0>
    353c:	437f0000 	.word	0x437f0000
    3540:	000059bc 	.word	0x000059bc
    3544:	00005ad8 	.word	0x00005ad8
    3548:	00001f6d 	.word	0x00001f6d
    354c:	00001bc9 	.word	0x00001bc9
    3550:	00005ae4 	.word	0x00005ae4
    3554:	00005af0 	.word	0x00005af0
    3558:	00005af8 	.word	0x00005af8
    355c:	00005b04 	.word	0x00005b04
    3560:	00005b10 	.word	0x00005b10
    3564:	00005b1c 	.word	0x00005b1c
    3568:	20000cec 	.word	0x20000cec
    356c:	00005b28 	.word	0x00005b28
    3570:	20001e18 	.word	0x20001e18
    3574:	20000018 	.word	0x20000018
    3578:	000020d9 	.word	0x000020d9
    357c:	000025ad 	.word	0x000025ad
    3580:	200011bc 	.word	0x200011bc
    3584:	00001fd9 	.word	0x00001fd9
    3588:	00001c15 	.word	0x00001c15
    358c:	20000015 	.word	0x20000015
    3590:	000023d5 	.word	0x000023d5
    3594:	20001dac 	.word	0x20001dac
    3598:	00000985 	.word	0x00000985
    359c:	00001ec1 	.word	0x00001ec1
    35a0:	00000481 	.word	0x00000481
    35a4:	000004ed 	.word	0x000004ed
    35a8:	000023e1 	.word	0x000023e1
    35ac:	00001c49 	.word	0x00001c49
    35b0:	000005f9 	.word	0x000005f9
    35b4:	00002d2d 	.word	0x00002d2d
    35b8:	00002bd5 	.word	0x00002bd5
    35bc:	000005f1 	.word	0x000005f1
    35c0:	00002209 	.word	0x00002209

000035c4 <__udivsi3>:
    35c4:	2200      	movs	r2, #0
    35c6:	0843      	lsrs	r3, r0, #1
    35c8:	428b      	cmp	r3, r1
    35ca:	d374      	bcc.n	36b6 <__udivsi3+0xf2>
    35cc:	0903      	lsrs	r3, r0, #4
    35ce:	428b      	cmp	r3, r1
    35d0:	d35f      	bcc.n	3692 <__udivsi3+0xce>
    35d2:	0a03      	lsrs	r3, r0, #8
    35d4:	428b      	cmp	r3, r1
    35d6:	d344      	bcc.n	3662 <__udivsi3+0x9e>
    35d8:	0b03      	lsrs	r3, r0, #12
    35da:	428b      	cmp	r3, r1
    35dc:	d328      	bcc.n	3630 <__udivsi3+0x6c>
    35de:	0c03      	lsrs	r3, r0, #16
    35e0:	428b      	cmp	r3, r1
    35e2:	d30d      	bcc.n	3600 <__udivsi3+0x3c>
    35e4:	22ff      	movs	r2, #255	; 0xff
    35e6:	0209      	lsls	r1, r1, #8
    35e8:	ba12      	rev	r2, r2
    35ea:	0c03      	lsrs	r3, r0, #16
    35ec:	428b      	cmp	r3, r1
    35ee:	d302      	bcc.n	35f6 <__udivsi3+0x32>
    35f0:	1212      	asrs	r2, r2, #8
    35f2:	0209      	lsls	r1, r1, #8
    35f4:	d065      	beq.n	36c2 <__udivsi3+0xfe>
    35f6:	0b03      	lsrs	r3, r0, #12
    35f8:	428b      	cmp	r3, r1
    35fa:	d319      	bcc.n	3630 <__udivsi3+0x6c>
    35fc:	e000      	b.n	3600 <__udivsi3+0x3c>
    35fe:	0a09      	lsrs	r1, r1, #8
    3600:	0bc3      	lsrs	r3, r0, #15
    3602:	428b      	cmp	r3, r1
    3604:	d301      	bcc.n	360a <__udivsi3+0x46>
    3606:	03cb      	lsls	r3, r1, #15
    3608:	1ac0      	subs	r0, r0, r3
    360a:	4152      	adcs	r2, r2
    360c:	0b83      	lsrs	r3, r0, #14
    360e:	428b      	cmp	r3, r1
    3610:	d301      	bcc.n	3616 <__udivsi3+0x52>
    3612:	038b      	lsls	r3, r1, #14
    3614:	1ac0      	subs	r0, r0, r3
    3616:	4152      	adcs	r2, r2
    3618:	0b43      	lsrs	r3, r0, #13
    361a:	428b      	cmp	r3, r1
    361c:	d301      	bcc.n	3622 <__udivsi3+0x5e>
    361e:	034b      	lsls	r3, r1, #13
    3620:	1ac0      	subs	r0, r0, r3
    3622:	4152      	adcs	r2, r2
    3624:	0b03      	lsrs	r3, r0, #12
    3626:	428b      	cmp	r3, r1
    3628:	d301      	bcc.n	362e <__udivsi3+0x6a>
    362a:	030b      	lsls	r3, r1, #12
    362c:	1ac0      	subs	r0, r0, r3
    362e:	4152      	adcs	r2, r2
    3630:	0ac3      	lsrs	r3, r0, #11
    3632:	428b      	cmp	r3, r1
    3634:	d301      	bcc.n	363a <__udivsi3+0x76>
    3636:	02cb      	lsls	r3, r1, #11
    3638:	1ac0      	subs	r0, r0, r3
    363a:	4152      	adcs	r2, r2
    363c:	0a83      	lsrs	r3, r0, #10
    363e:	428b      	cmp	r3, r1
    3640:	d301      	bcc.n	3646 <__udivsi3+0x82>
    3642:	028b      	lsls	r3, r1, #10
    3644:	1ac0      	subs	r0, r0, r3
    3646:	4152      	adcs	r2, r2
    3648:	0a43      	lsrs	r3, r0, #9
    364a:	428b      	cmp	r3, r1
    364c:	d301      	bcc.n	3652 <__udivsi3+0x8e>
    364e:	024b      	lsls	r3, r1, #9
    3650:	1ac0      	subs	r0, r0, r3
    3652:	4152      	adcs	r2, r2
    3654:	0a03      	lsrs	r3, r0, #8
    3656:	428b      	cmp	r3, r1
    3658:	d301      	bcc.n	365e <__udivsi3+0x9a>
    365a:	020b      	lsls	r3, r1, #8
    365c:	1ac0      	subs	r0, r0, r3
    365e:	4152      	adcs	r2, r2
    3660:	d2cd      	bcs.n	35fe <__udivsi3+0x3a>
    3662:	09c3      	lsrs	r3, r0, #7
    3664:	428b      	cmp	r3, r1
    3666:	d301      	bcc.n	366c <__udivsi3+0xa8>
    3668:	01cb      	lsls	r3, r1, #7
    366a:	1ac0      	subs	r0, r0, r3
    366c:	4152      	adcs	r2, r2
    366e:	0983      	lsrs	r3, r0, #6
    3670:	428b      	cmp	r3, r1
    3672:	d301      	bcc.n	3678 <__udivsi3+0xb4>
    3674:	018b      	lsls	r3, r1, #6
    3676:	1ac0      	subs	r0, r0, r3
    3678:	4152      	adcs	r2, r2
    367a:	0943      	lsrs	r3, r0, #5
    367c:	428b      	cmp	r3, r1
    367e:	d301      	bcc.n	3684 <__udivsi3+0xc0>
    3680:	014b      	lsls	r3, r1, #5
    3682:	1ac0      	subs	r0, r0, r3
    3684:	4152      	adcs	r2, r2
    3686:	0903      	lsrs	r3, r0, #4
    3688:	428b      	cmp	r3, r1
    368a:	d301      	bcc.n	3690 <__udivsi3+0xcc>
    368c:	010b      	lsls	r3, r1, #4
    368e:	1ac0      	subs	r0, r0, r3
    3690:	4152      	adcs	r2, r2
    3692:	08c3      	lsrs	r3, r0, #3
    3694:	428b      	cmp	r3, r1
    3696:	d301      	bcc.n	369c <__udivsi3+0xd8>
    3698:	00cb      	lsls	r3, r1, #3
    369a:	1ac0      	subs	r0, r0, r3
    369c:	4152      	adcs	r2, r2
    369e:	0883      	lsrs	r3, r0, #2
    36a0:	428b      	cmp	r3, r1
    36a2:	d301      	bcc.n	36a8 <__udivsi3+0xe4>
    36a4:	008b      	lsls	r3, r1, #2
    36a6:	1ac0      	subs	r0, r0, r3
    36a8:	4152      	adcs	r2, r2
    36aa:	0843      	lsrs	r3, r0, #1
    36ac:	428b      	cmp	r3, r1
    36ae:	d301      	bcc.n	36b4 <__udivsi3+0xf0>
    36b0:	004b      	lsls	r3, r1, #1
    36b2:	1ac0      	subs	r0, r0, r3
    36b4:	4152      	adcs	r2, r2
    36b6:	1a41      	subs	r1, r0, r1
    36b8:	d200      	bcs.n	36bc <__udivsi3+0xf8>
    36ba:	4601      	mov	r1, r0
    36bc:	4152      	adcs	r2, r2
    36be:	4610      	mov	r0, r2
    36c0:	4770      	bx	lr
    36c2:	e7ff      	b.n	36c4 <__udivsi3+0x100>
    36c4:	b501      	push	{r0, lr}
    36c6:	2000      	movs	r0, #0
    36c8:	f000 f806 	bl	36d8 <__aeabi_idiv0>
    36cc:	bd02      	pop	{r1, pc}
    36ce:	46c0      	nop			; (mov r8, r8)

000036d0 <__aeabi_uidivmod>:
    36d0:	2900      	cmp	r1, #0
    36d2:	d0f7      	beq.n	36c4 <__udivsi3+0x100>
    36d4:	e776      	b.n	35c4 <__udivsi3>
    36d6:	4770      	bx	lr

000036d8 <__aeabi_idiv0>:
    36d8:	4770      	bx	lr
    36da:	46c0      	nop			; (mov r8, r8)

000036dc <__aeabi_cfrcmple>:
    36dc:	4684      	mov	ip, r0
    36de:	1c08      	adds	r0, r1, #0
    36e0:	4661      	mov	r1, ip
    36e2:	e7ff      	b.n	36e4 <__aeabi_cfcmpeq>

000036e4 <__aeabi_cfcmpeq>:
    36e4:	b51f      	push	{r0, r1, r2, r3, r4, lr}
    36e6:	f000 f9bb 	bl	3a60 <__lesf2>
    36ea:	2800      	cmp	r0, #0
    36ec:	d401      	bmi.n	36f2 <__aeabi_cfcmpeq+0xe>
    36ee:	2100      	movs	r1, #0
    36f0:	42c8      	cmn	r0, r1
    36f2:	bd1f      	pop	{r0, r1, r2, r3, r4, pc}

000036f4 <__aeabi_fcmpeq>:
    36f4:	b510      	push	{r4, lr}
    36f6:	f000 f94d 	bl	3994 <__eqsf2>
    36fa:	4240      	negs	r0, r0
    36fc:	3001      	adds	r0, #1
    36fe:	bd10      	pop	{r4, pc}

00003700 <__aeabi_fcmplt>:
    3700:	b510      	push	{r4, lr}
    3702:	f000 f9ad 	bl	3a60 <__lesf2>
    3706:	2800      	cmp	r0, #0
    3708:	db01      	blt.n	370e <__aeabi_fcmplt+0xe>
    370a:	2000      	movs	r0, #0
    370c:	bd10      	pop	{r4, pc}
    370e:	2001      	movs	r0, #1
    3710:	bd10      	pop	{r4, pc}
    3712:	46c0      	nop			; (mov r8, r8)

00003714 <__aeabi_fcmple>:
    3714:	b510      	push	{r4, lr}
    3716:	f000 f9a3 	bl	3a60 <__lesf2>
    371a:	2800      	cmp	r0, #0
    371c:	dd01      	ble.n	3722 <__aeabi_fcmple+0xe>
    371e:	2000      	movs	r0, #0
    3720:	bd10      	pop	{r4, pc}
    3722:	2001      	movs	r0, #1
    3724:	bd10      	pop	{r4, pc}
    3726:	46c0      	nop			; (mov r8, r8)

00003728 <__aeabi_fcmpgt>:
    3728:	b510      	push	{r4, lr}
    372a:	f000 f959 	bl	39e0 <__gesf2>
    372e:	2800      	cmp	r0, #0
    3730:	dc01      	bgt.n	3736 <__aeabi_fcmpgt+0xe>
    3732:	2000      	movs	r0, #0
    3734:	bd10      	pop	{r4, pc}
    3736:	2001      	movs	r0, #1
    3738:	bd10      	pop	{r4, pc}
    373a:	46c0      	nop			; (mov r8, r8)

0000373c <__aeabi_fcmpge>:
    373c:	b510      	push	{r4, lr}
    373e:	f000 f94f 	bl	39e0 <__gesf2>
    3742:	2800      	cmp	r0, #0
    3744:	da01      	bge.n	374a <__aeabi_fcmpge+0xe>
    3746:	2000      	movs	r0, #0
    3748:	bd10      	pop	{r4, pc}
    374a:	2001      	movs	r0, #1
    374c:	bd10      	pop	{r4, pc}
    374e:	46c0      	nop			; (mov r8, r8)

00003750 <__aeabi_uldivmod>:
    3750:	2b00      	cmp	r3, #0
    3752:	d111      	bne.n	3778 <__aeabi_uldivmod+0x28>
    3754:	2a00      	cmp	r2, #0
    3756:	d10f      	bne.n	3778 <__aeabi_uldivmod+0x28>
    3758:	2900      	cmp	r1, #0
    375a:	d100      	bne.n	375e <__aeabi_uldivmod+0xe>
    375c:	2800      	cmp	r0, #0
    375e:	d002      	beq.n	3766 <__aeabi_uldivmod+0x16>
    3760:	2100      	movs	r1, #0
    3762:	43c9      	mvns	r1, r1
    3764:	1c08      	adds	r0, r1, #0
    3766:	b407      	push	{r0, r1, r2}
    3768:	4802      	ldr	r0, [pc, #8]	; (3774 <__aeabi_uldivmod+0x24>)
    376a:	a102      	add	r1, pc, #8	; (adr r1, 3774 <__aeabi_uldivmod+0x24>)
    376c:	1840      	adds	r0, r0, r1
    376e:	9002      	str	r0, [sp, #8]
    3770:	bd03      	pop	{r0, r1, pc}
    3772:	46c0      	nop			; (mov r8, r8)
    3774:	ffffff65 	.word	0xffffff65
    3778:	b403      	push	{r0, r1}
    377a:	4668      	mov	r0, sp
    377c:	b501      	push	{r0, lr}
    377e:	9802      	ldr	r0, [sp, #8]
    3780:	f000 f848 	bl	3814 <__udivmoddi4>
    3784:	9b01      	ldr	r3, [sp, #4]
    3786:	469e      	mov	lr, r3
    3788:	b002      	add	sp, #8
    378a:	bc0c      	pop	{r2, r3}
    378c:	4770      	bx	lr
    378e:	46c0      	nop			; (mov r8, r8)

00003790 <__aeabi_lmul>:
    3790:	b5f0      	push	{r4, r5, r6, r7, lr}
    3792:	46ce      	mov	lr, r9
    3794:	4647      	mov	r7, r8
    3796:	0415      	lsls	r5, r2, #16
    3798:	0c2d      	lsrs	r5, r5, #16
    379a:	002e      	movs	r6, r5
    379c:	b580      	push	{r7, lr}
    379e:	0407      	lsls	r7, r0, #16
    37a0:	0c14      	lsrs	r4, r2, #16
    37a2:	0c3f      	lsrs	r7, r7, #16
    37a4:	4699      	mov	r9, r3
    37a6:	0c03      	lsrs	r3, r0, #16
    37a8:	437e      	muls	r6, r7
    37aa:	435d      	muls	r5, r3
    37ac:	4367      	muls	r7, r4
    37ae:	4363      	muls	r3, r4
    37b0:	197f      	adds	r7, r7, r5
    37b2:	0c34      	lsrs	r4, r6, #16
    37b4:	19e4      	adds	r4, r4, r7
    37b6:	469c      	mov	ip, r3
    37b8:	42a5      	cmp	r5, r4
    37ba:	d903      	bls.n	37c4 <__aeabi_lmul+0x34>
    37bc:	2380      	movs	r3, #128	; 0x80
    37be:	025b      	lsls	r3, r3, #9
    37c0:	4698      	mov	r8, r3
    37c2:	44c4      	add	ip, r8
    37c4:	464b      	mov	r3, r9
    37c6:	4351      	muls	r1, r2
    37c8:	4343      	muls	r3, r0
    37ca:	0436      	lsls	r6, r6, #16
    37cc:	0c36      	lsrs	r6, r6, #16
    37ce:	0c25      	lsrs	r5, r4, #16
    37d0:	0424      	lsls	r4, r4, #16
    37d2:	4465      	add	r5, ip
    37d4:	19a4      	adds	r4, r4, r6
    37d6:	1859      	adds	r1, r3, r1
    37d8:	1949      	adds	r1, r1, r5
    37da:	0020      	movs	r0, r4
    37dc:	bc0c      	pop	{r2, r3}
    37de:	4690      	mov	r8, r2
    37e0:	4699      	mov	r9, r3
    37e2:	bdf0      	pop	{r4, r5, r6, r7, pc}

000037e4 <__aeabi_f2uiz>:
    37e4:	219e      	movs	r1, #158	; 0x9e
    37e6:	b510      	push	{r4, lr}
    37e8:	05c9      	lsls	r1, r1, #23
    37ea:	1c04      	adds	r4, r0, #0
    37ec:	f7ff ffa6 	bl	373c <__aeabi_fcmpge>
    37f0:	2800      	cmp	r0, #0
    37f2:	d103      	bne.n	37fc <__aeabi_f2uiz+0x18>
    37f4:	1c20      	adds	r0, r4, #0
    37f6:	f000 fc31 	bl	405c <__aeabi_f2iz>
    37fa:	bd10      	pop	{r4, pc}
    37fc:	219e      	movs	r1, #158	; 0x9e
    37fe:	1c20      	adds	r0, r4, #0
    3800:	05c9      	lsls	r1, r1, #23
    3802:	f000 fa8f 	bl	3d24 <__aeabi_fsub>
    3806:	f000 fc29 	bl	405c <__aeabi_f2iz>
    380a:	2380      	movs	r3, #128	; 0x80
    380c:	061b      	lsls	r3, r3, #24
    380e:	469c      	mov	ip, r3
    3810:	4460      	add	r0, ip
    3812:	e7f2      	b.n	37fa <__aeabi_f2uiz+0x16>

00003814 <__udivmoddi4>:
    3814:	b5f0      	push	{r4, r5, r6, r7, lr}
    3816:	4657      	mov	r7, sl
    3818:	464e      	mov	r6, r9
    381a:	4645      	mov	r5, r8
    381c:	46de      	mov	lr, fp
    381e:	b5e0      	push	{r5, r6, r7, lr}
    3820:	0004      	movs	r4, r0
    3822:	b083      	sub	sp, #12
    3824:	000d      	movs	r5, r1
    3826:	4692      	mov	sl, r2
    3828:	4699      	mov	r9, r3
    382a:	428b      	cmp	r3, r1
    382c:	d82f      	bhi.n	388e <__udivmoddi4+0x7a>
    382e:	d02c      	beq.n	388a <__udivmoddi4+0x76>
    3830:	4649      	mov	r1, r9
    3832:	4650      	mov	r0, sl
    3834:	f001 fbe8 	bl	5008 <__clzdi2>
    3838:	0029      	movs	r1, r5
    383a:	0006      	movs	r6, r0
    383c:	0020      	movs	r0, r4
    383e:	f001 fbe3 	bl	5008 <__clzdi2>
    3842:	1a33      	subs	r3, r6, r0
    3844:	4698      	mov	r8, r3
    3846:	3b20      	subs	r3, #32
    3848:	469b      	mov	fp, r3
    384a:	d500      	bpl.n	384e <__udivmoddi4+0x3a>
    384c:	e074      	b.n	3938 <__udivmoddi4+0x124>
    384e:	4653      	mov	r3, sl
    3850:	465a      	mov	r2, fp
    3852:	4093      	lsls	r3, r2
    3854:	001f      	movs	r7, r3
    3856:	4653      	mov	r3, sl
    3858:	4642      	mov	r2, r8
    385a:	4093      	lsls	r3, r2
    385c:	001e      	movs	r6, r3
    385e:	42af      	cmp	r7, r5
    3860:	d829      	bhi.n	38b6 <__udivmoddi4+0xa2>
    3862:	d026      	beq.n	38b2 <__udivmoddi4+0x9e>
    3864:	465b      	mov	r3, fp
    3866:	1ba4      	subs	r4, r4, r6
    3868:	41bd      	sbcs	r5, r7
    386a:	2b00      	cmp	r3, #0
    386c:	da00      	bge.n	3870 <__udivmoddi4+0x5c>
    386e:	e079      	b.n	3964 <__udivmoddi4+0x150>
    3870:	2200      	movs	r2, #0
    3872:	2300      	movs	r3, #0
    3874:	9200      	str	r2, [sp, #0]
    3876:	9301      	str	r3, [sp, #4]
    3878:	2301      	movs	r3, #1
    387a:	465a      	mov	r2, fp
    387c:	4093      	lsls	r3, r2
    387e:	9301      	str	r3, [sp, #4]
    3880:	2301      	movs	r3, #1
    3882:	4642      	mov	r2, r8
    3884:	4093      	lsls	r3, r2
    3886:	9300      	str	r3, [sp, #0]
    3888:	e019      	b.n	38be <__udivmoddi4+0xaa>
    388a:	4282      	cmp	r2, r0
    388c:	d9d0      	bls.n	3830 <__udivmoddi4+0x1c>
    388e:	2200      	movs	r2, #0
    3890:	2300      	movs	r3, #0
    3892:	9200      	str	r2, [sp, #0]
    3894:	9301      	str	r3, [sp, #4]
    3896:	9b0c      	ldr	r3, [sp, #48]	; 0x30
    3898:	2b00      	cmp	r3, #0
    389a:	d001      	beq.n	38a0 <__udivmoddi4+0x8c>
    389c:	601c      	str	r4, [r3, #0]
    389e:	605d      	str	r5, [r3, #4]
    38a0:	9800      	ldr	r0, [sp, #0]
    38a2:	9901      	ldr	r1, [sp, #4]
    38a4:	b003      	add	sp, #12
    38a6:	bc3c      	pop	{r2, r3, r4, r5}
    38a8:	4690      	mov	r8, r2
    38aa:	4699      	mov	r9, r3
    38ac:	46a2      	mov	sl, r4
    38ae:	46ab      	mov	fp, r5
    38b0:	bdf0      	pop	{r4, r5, r6, r7, pc}
    38b2:	42a3      	cmp	r3, r4
    38b4:	d9d6      	bls.n	3864 <__udivmoddi4+0x50>
    38b6:	2200      	movs	r2, #0
    38b8:	2300      	movs	r3, #0
    38ba:	9200      	str	r2, [sp, #0]
    38bc:	9301      	str	r3, [sp, #4]
    38be:	4643      	mov	r3, r8
    38c0:	2b00      	cmp	r3, #0
    38c2:	d0e8      	beq.n	3896 <__udivmoddi4+0x82>
    38c4:	07fb      	lsls	r3, r7, #31
    38c6:	0872      	lsrs	r2, r6, #1
    38c8:	431a      	orrs	r2, r3
    38ca:	4646      	mov	r6, r8
    38cc:	087b      	lsrs	r3, r7, #1
    38ce:	e00e      	b.n	38ee <__udivmoddi4+0xda>
    38d0:	42ab      	cmp	r3, r5
    38d2:	d101      	bne.n	38d8 <__udivmoddi4+0xc4>
    38d4:	42a2      	cmp	r2, r4
    38d6:	d80c      	bhi.n	38f2 <__udivmoddi4+0xde>
    38d8:	1aa4      	subs	r4, r4, r2
    38da:	419d      	sbcs	r5, r3
    38dc:	2001      	movs	r0, #1
    38de:	1924      	adds	r4, r4, r4
    38e0:	416d      	adcs	r5, r5
    38e2:	2100      	movs	r1, #0
    38e4:	3e01      	subs	r6, #1
    38e6:	1824      	adds	r4, r4, r0
    38e8:	414d      	adcs	r5, r1
    38ea:	2e00      	cmp	r6, #0
    38ec:	d006      	beq.n	38fc <__udivmoddi4+0xe8>
    38ee:	42ab      	cmp	r3, r5
    38f0:	d9ee      	bls.n	38d0 <__udivmoddi4+0xbc>
    38f2:	3e01      	subs	r6, #1
    38f4:	1924      	adds	r4, r4, r4
    38f6:	416d      	adcs	r5, r5
    38f8:	2e00      	cmp	r6, #0
    38fa:	d1f8      	bne.n	38ee <__udivmoddi4+0xda>
    38fc:	465b      	mov	r3, fp
    38fe:	9800      	ldr	r0, [sp, #0]
    3900:	9901      	ldr	r1, [sp, #4]
    3902:	1900      	adds	r0, r0, r4
    3904:	4169      	adcs	r1, r5
    3906:	2b00      	cmp	r3, #0
    3908:	db22      	blt.n	3950 <__udivmoddi4+0x13c>
    390a:	002b      	movs	r3, r5
    390c:	465a      	mov	r2, fp
    390e:	40d3      	lsrs	r3, r2
    3910:	002a      	movs	r2, r5
    3912:	4644      	mov	r4, r8
    3914:	40e2      	lsrs	r2, r4
    3916:	001c      	movs	r4, r3
    3918:	465b      	mov	r3, fp
    391a:	0015      	movs	r5, r2
    391c:	2b00      	cmp	r3, #0
    391e:	db2c      	blt.n	397a <__udivmoddi4+0x166>
    3920:	0026      	movs	r6, r4
    3922:	409e      	lsls	r6, r3
    3924:	0033      	movs	r3, r6
    3926:	0026      	movs	r6, r4
    3928:	4647      	mov	r7, r8
    392a:	40be      	lsls	r6, r7
    392c:	0032      	movs	r2, r6
    392e:	1a80      	subs	r0, r0, r2
    3930:	4199      	sbcs	r1, r3
    3932:	9000      	str	r0, [sp, #0]
    3934:	9101      	str	r1, [sp, #4]
    3936:	e7ae      	b.n	3896 <__udivmoddi4+0x82>
    3938:	4642      	mov	r2, r8
    393a:	2320      	movs	r3, #32
    393c:	1a9b      	subs	r3, r3, r2
    393e:	4652      	mov	r2, sl
    3940:	40da      	lsrs	r2, r3
    3942:	4641      	mov	r1, r8
    3944:	0013      	movs	r3, r2
    3946:	464a      	mov	r2, r9
    3948:	408a      	lsls	r2, r1
    394a:	0017      	movs	r7, r2
    394c:	431f      	orrs	r7, r3
    394e:	e782      	b.n	3856 <__udivmoddi4+0x42>
    3950:	4642      	mov	r2, r8
    3952:	2320      	movs	r3, #32
    3954:	1a9b      	subs	r3, r3, r2
    3956:	002a      	movs	r2, r5
    3958:	4646      	mov	r6, r8
    395a:	409a      	lsls	r2, r3
    395c:	0023      	movs	r3, r4
    395e:	40f3      	lsrs	r3, r6
    3960:	4313      	orrs	r3, r2
    3962:	e7d5      	b.n	3910 <__udivmoddi4+0xfc>
    3964:	4642      	mov	r2, r8
    3966:	2320      	movs	r3, #32
    3968:	2100      	movs	r1, #0
    396a:	1a9b      	subs	r3, r3, r2
    396c:	2200      	movs	r2, #0
    396e:	9100      	str	r1, [sp, #0]
    3970:	9201      	str	r2, [sp, #4]
    3972:	2201      	movs	r2, #1
    3974:	40da      	lsrs	r2, r3
    3976:	9201      	str	r2, [sp, #4]
    3978:	e782      	b.n	3880 <__udivmoddi4+0x6c>
    397a:	4642      	mov	r2, r8
    397c:	2320      	movs	r3, #32
    397e:	0026      	movs	r6, r4
    3980:	1a9b      	subs	r3, r3, r2
    3982:	40de      	lsrs	r6, r3
    3984:	002f      	movs	r7, r5
    3986:	46b4      	mov	ip, r6
    3988:	4097      	lsls	r7, r2
    398a:	4666      	mov	r6, ip
    398c:	003b      	movs	r3, r7
    398e:	4333      	orrs	r3, r6
    3990:	e7c9      	b.n	3926 <__udivmoddi4+0x112>
    3992:	46c0      	nop			; (mov r8, r8)

00003994 <__eqsf2>:
    3994:	b570      	push	{r4, r5, r6, lr}
    3996:	0042      	lsls	r2, r0, #1
    3998:	0245      	lsls	r5, r0, #9
    399a:	024e      	lsls	r6, r1, #9
    399c:	004c      	lsls	r4, r1, #1
    399e:	0fc3      	lsrs	r3, r0, #31
    39a0:	0a6d      	lsrs	r5, r5, #9
    39a2:	0e12      	lsrs	r2, r2, #24
    39a4:	0a76      	lsrs	r6, r6, #9
    39a6:	0e24      	lsrs	r4, r4, #24
    39a8:	0fc9      	lsrs	r1, r1, #31
    39aa:	2001      	movs	r0, #1
    39ac:	2aff      	cmp	r2, #255	; 0xff
    39ae:	d006      	beq.n	39be <__eqsf2+0x2a>
    39b0:	2cff      	cmp	r4, #255	; 0xff
    39b2:	d003      	beq.n	39bc <__eqsf2+0x28>
    39b4:	42a2      	cmp	r2, r4
    39b6:	d101      	bne.n	39bc <__eqsf2+0x28>
    39b8:	42b5      	cmp	r5, r6
    39ba:	d006      	beq.n	39ca <__eqsf2+0x36>
    39bc:	bd70      	pop	{r4, r5, r6, pc}
    39be:	2d00      	cmp	r5, #0
    39c0:	d1fc      	bne.n	39bc <__eqsf2+0x28>
    39c2:	2cff      	cmp	r4, #255	; 0xff
    39c4:	d1fa      	bne.n	39bc <__eqsf2+0x28>
    39c6:	2e00      	cmp	r6, #0
    39c8:	d1f8      	bne.n	39bc <__eqsf2+0x28>
    39ca:	428b      	cmp	r3, r1
    39cc:	d006      	beq.n	39dc <__eqsf2+0x48>
    39ce:	2001      	movs	r0, #1
    39d0:	2a00      	cmp	r2, #0
    39d2:	d1f3      	bne.n	39bc <__eqsf2+0x28>
    39d4:	0028      	movs	r0, r5
    39d6:	1e45      	subs	r5, r0, #1
    39d8:	41a8      	sbcs	r0, r5
    39da:	e7ef      	b.n	39bc <__eqsf2+0x28>
    39dc:	2000      	movs	r0, #0
    39de:	e7ed      	b.n	39bc <__eqsf2+0x28>

000039e0 <__gesf2>:
    39e0:	b5f0      	push	{r4, r5, r6, r7, lr}
    39e2:	0042      	lsls	r2, r0, #1
    39e4:	0245      	lsls	r5, r0, #9
    39e6:	024c      	lsls	r4, r1, #9
    39e8:	0fc3      	lsrs	r3, r0, #31
    39ea:	0048      	lsls	r0, r1, #1
    39ec:	0a6d      	lsrs	r5, r5, #9
    39ee:	0e12      	lsrs	r2, r2, #24
    39f0:	0a64      	lsrs	r4, r4, #9
    39f2:	0e00      	lsrs	r0, r0, #24
    39f4:	0fc9      	lsrs	r1, r1, #31
    39f6:	2aff      	cmp	r2, #255	; 0xff
    39f8:	d01e      	beq.n	3a38 <__gesf2+0x58>
    39fa:	28ff      	cmp	r0, #255	; 0xff
    39fc:	d021      	beq.n	3a42 <__gesf2+0x62>
    39fe:	2a00      	cmp	r2, #0
    3a00:	d10a      	bne.n	3a18 <__gesf2+0x38>
    3a02:	426e      	negs	r6, r5
    3a04:	416e      	adcs	r6, r5
    3a06:	b2f6      	uxtb	r6, r6
    3a08:	2800      	cmp	r0, #0
    3a0a:	d10f      	bne.n	3a2c <__gesf2+0x4c>
    3a0c:	2c00      	cmp	r4, #0
    3a0e:	d10d      	bne.n	3a2c <__gesf2+0x4c>
    3a10:	2000      	movs	r0, #0
    3a12:	2d00      	cmp	r5, #0
    3a14:	d009      	beq.n	3a2a <__gesf2+0x4a>
    3a16:	e005      	b.n	3a24 <__gesf2+0x44>
    3a18:	2800      	cmp	r0, #0
    3a1a:	d101      	bne.n	3a20 <__gesf2+0x40>
    3a1c:	2c00      	cmp	r4, #0
    3a1e:	d001      	beq.n	3a24 <__gesf2+0x44>
    3a20:	428b      	cmp	r3, r1
    3a22:	d011      	beq.n	3a48 <__gesf2+0x68>
    3a24:	2101      	movs	r1, #1
    3a26:	4258      	negs	r0, r3
    3a28:	4308      	orrs	r0, r1
    3a2a:	bdf0      	pop	{r4, r5, r6, r7, pc}
    3a2c:	2e00      	cmp	r6, #0
    3a2e:	d0f7      	beq.n	3a20 <__gesf2+0x40>
    3a30:	2001      	movs	r0, #1
    3a32:	3901      	subs	r1, #1
    3a34:	4308      	orrs	r0, r1
    3a36:	e7f8      	b.n	3a2a <__gesf2+0x4a>
    3a38:	2d00      	cmp	r5, #0
    3a3a:	d0de      	beq.n	39fa <__gesf2+0x1a>
    3a3c:	2002      	movs	r0, #2
    3a3e:	4240      	negs	r0, r0
    3a40:	e7f3      	b.n	3a2a <__gesf2+0x4a>
    3a42:	2c00      	cmp	r4, #0
    3a44:	d0db      	beq.n	39fe <__gesf2+0x1e>
    3a46:	e7f9      	b.n	3a3c <__gesf2+0x5c>
    3a48:	4282      	cmp	r2, r0
    3a4a:	dceb      	bgt.n	3a24 <__gesf2+0x44>
    3a4c:	db04      	blt.n	3a58 <__gesf2+0x78>
    3a4e:	42a5      	cmp	r5, r4
    3a50:	d8e8      	bhi.n	3a24 <__gesf2+0x44>
    3a52:	2000      	movs	r0, #0
    3a54:	42a5      	cmp	r5, r4
    3a56:	d2e8      	bcs.n	3a2a <__gesf2+0x4a>
    3a58:	2101      	movs	r1, #1
    3a5a:	1e58      	subs	r0, r3, #1
    3a5c:	4308      	orrs	r0, r1
    3a5e:	e7e4      	b.n	3a2a <__gesf2+0x4a>

00003a60 <__lesf2>:
    3a60:	b5f0      	push	{r4, r5, r6, r7, lr}
    3a62:	0042      	lsls	r2, r0, #1
    3a64:	024d      	lsls	r5, r1, #9
    3a66:	004c      	lsls	r4, r1, #1
    3a68:	0246      	lsls	r6, r0, #9
    3a6a:	0a76      	lsrs	r6, r6, #9
    3a6c:	0e12      	lsrs	r2, r2, #24
    3a6e:	0fc3      	lsrs	r3, r0, #31
    3a70:	0a6d      	lsrs	r5, r5, #9
    3a72:	0e24      	lsrs	r4, r4, #24
    3a74:	0fc9      	lsrs	r1, r1, #31
    3a76:	2aff      	cmp	r2, #255	; 0xff
    3a78:	d016      	beq.n	3aa8 <__lesf2+0x48>
    3a7a:	2cff      	cmp	r4, #255	; 0xff
    3a7c:	d018      	beq.n	3ab0 <__lesf2+0x50>
    3a7e:	2a00      	cmp	r2, #0
    3a80:	d10a      	bne.n	3a98 <__lesf2+0x38>
    3a82:	4270      	negs	r0, r6
    3a84:	4170      	adcs	r0, r6
    3a86:	b2c0      	uxtb	r0, r0
    3a88:	2c00      	cmp	r4, #0
    3a8a:	d015      	beq.n	3ab8 <__lesf2+0x58>
    3a8c:	2800      	cmp	r0, #0
    3a8e:	d005      	beq.n	3a9c <__lesf2+0x3c>
    3a90:	2001      	movs	r0, #1
    3a92:	3901      	subs	r1, #1
    3a94:	4308      	orrs	r0, r1
    3a96:	bdf0      	pop	{r4, r5, r6, r7, pc}
    3a98:	2c00      	cmp	r4, #0
    3a9a:	d013      	beq.n	3ac4 <__lesf2+0x64>
    3a9c:	4299      	cmp	r1, r3
    3a9e:	d014      	beq.n	3aca <__lesf2+0x6a>
    3aa0:	2001      	movs	r0, #1
    3aa2:	425b      	negs	r3, r3
    3aa4:	4318      	orrs	r0, r3
    3aa6:	e7f6      	b.n	3a96 <__lesf2+0x36>
    3aa8:	2002      	movs	r0, #2
    3aaa:	2e00      	cmp	r6, #0
    3aac:	d1f3      	bne.n	3a96 <__lesf2+0x36>
    3aae:	e7e4      	b.n	3a7a <__lesf2+0x1a>
    3ab0:	2002      	movs	r0, #2
    3ab2:	2d00      	cmp	r5, #0
    3ab4:	d1ef      	bne.n	3a96 <__lesf2+0x36>
    3ab6:	e7e2      	b.n	3a7e <__lesf2+0x1e>
    3ab8:	2d00      	cmp	r5, #0
    3aba:	d1e7      	bne.n	3a8c <__lesf2+0x2c>
    3abc:	2000      	movs	r0, #0
    3abe:	2e00      	cmp	r6, #0
    3ac0:	d0e9      	beq.n	3a96 <__lesf2+0x36>
    3ac2:	e7ed      	b.n	3aa0 <__lesf2+0x40>
    3ac4:	2d00      	cmp	r5, #0
    3ac6:	d1e9      	bne.n	3a9c <__lesf2+0x3c>
    3ac8:	e7ea      	b.n	3aa0 <__lesf2+0x40>
    3aca:	42a2      	cmp	r2, r4
    3acc:	dc06      	bgt.n	3adc <__lesf2+0x7c>
    3ace:	dbdf      	blt.n	3a90 <__lesf2+0x30>
    3ad0:	42ae      	cmp	r6, r5
    3ad2:	d803      	bhi.n	3adc <__lesf2+0x7c>
    3ad4:	2000      	movs	r0, #0
    3ad6:	42ae      	cmp	r6, r5
    3ad8:	d3da      	bcc.n	3a90 <__lesf2+0x30>
    3ada:	e7dc      	b.n	3a96 <__lesf2+0x36>
    3adc:	2001      	movs	r0, #1
    3ade:	4249      	negs	r1, r1
    3ae0:	4308      	orrs	r0, r1
    3ae2:	e7d8      	b.n	3a96 <__lesf2+0x36>

00003ae4 <__aeabi_fmul>:
    3ae4:	b5f8      	push	{r3, r4, r5, r6, r7, lr}
    3ae6:	4657      	mov	r7, sl
    3ae8:	464e      	mov	r6, r9
    3aea:	4645      	mov	r5, r8
    3aec:	46de      	mov	lr, fp
    3aee:	b5e0      	push	{r5, r6, r7, lr}
    3af0:	0247      	lsls	r7, r0, #9
    3af2:	0046      	lsls	r6, r0, #1
    3af4:	4688      	mov	r8, r1
    3af6:	0a7f      	lsrs	r7, r7, #9
    3af8:	0e36      	lsrs	r6, r6, #24
    3afa:	0fc4      	lsrs	r4, r0, #31
    3afc:	2e00      	cmp	r6, #0
    3afe:	d047      	beq.n	3b90 <__aeabi_fmul+0xac>
    3b00:	2eff      	cmp	r6, #255	; 0xff
    3b02:	d024      	beq.n	3b4e <__aeabi_fmul+0x6a>
    3b04:	00fb      	lsls	r3, r7, #3
    3b06:	2780      	movs	r7, #128	; 0x80
    3b08:	04ff      	lsls	r7, r7, #19
    3b0a:	431f      	orrs	r7, r3
    3b0c:	2300      	movs	r3, #0
    3b0e:	4699      	mov	r9, r3
    3b10:	469a      	mov	sl, r3
    3b12:	3e7f      	subs	r6, #127	; 0x7f
    3b14:	4643      	mov	r3, r8
    3b16:	025d      	lsls	r5, r3, #9
    3b18:	0058      	lsls	r0, r3, #1
    3b1a:	0fdb      	lsrs	r3, r3, #31
    3b1c:	0a6d      	lsrs	r5, r5, #9
    3b1e:	0e00      	lsrs	r0, r0, #24
    3b20:	4698      	mov	r8, r3
    3b22:	d043      	beq.n	3bac <__aeabi_fmul+0xc8>
    3b24:	28ff      	cmp	r0, #255	; 0xff
    3b26:	d03b      	beq.n	3ba0 <__aeabi_fmul+0xbc>
    3b28:	00eb      	lsls	r3, r5, #3
    3b2a:	2580      	movs	r5, #128	; 0x80
    3b2c:	2200      	movs	r2, #0
    3b2e:	04ed      	lsls	r5, r5, #19
    3b30:	431d      	orrs	r5, r3
    3b32:	387f      	subs	r0, #127	; 0x7f
    3b34:	1836      	adds	r6, r6, r0
    3b36:	1c73      	adds	r3, r6, #1
    3b38:	4641      	mov	r1, r8
    3b3a:	469b      	mov	fp, r3
    3b3c:	464b      	mov	r3, r9
    3b3e:	4061      	eors	r1, r4
    3b40:	4313      	orrs	r3, r2
    3b42:	2b0f      	cmp	r3, #15
    3b44:	d864      	bhi.n	3c10 <__aeabi_fmul+0x12c>
    3b46:	4875      	ldr	r0, [pc, #468]	; (3d1c <__aeabi_fmul+0x238>)
    3b48:	009b      	lsls	r3, r3, #2
    3b4a:	58c3      	ldr	r3, [r0, r3]
    3b4c:	469f      	mov	pc, r3
    3b4e:	2f00      	cmp	r7, #0
    3b50:	d142      	bne.n	3bd8 <__aeabi_fmul+0xf4>
    3b52:	2308      	movs	r3, #8
    3b54:	4699      	mov	r9, r3
    3b56:	3b06      	subs	r3, #6
    3b58:	26ff      	movs	r6, #255	; 0xff
    3b5a:	469a      	mov	sl, r3
    3b5c:	e7da      	b.n	3b14 <__aeabi_fmul+0x30>
    3b5e:	4641      	mov	r1, r8
    3b60:	2a02      	cmp	r2, #2
    3b62:	d028      	beq.n	3bb6 <__aeabi_fmul+0xd2>
    3b64:	2a03      	cmp	r2, #3
    3b66:	d100      	bne.n	3b6a <__aeabi_fmul+0x86>
    3b68:	e0ce      	b.n	3d08 <__aeabi_fmul+0x224>
    3b6a:	2a01      	cmp	r2, #1
    3b6c:	d000      	beq.n	3b70 <__aeabi_fmul+0x8c>
    3b6e:	e0ac      	b.n	3cca <__aeabi_fmul+0x1e6>
    3b70:	4011      	ands	r1, r2
    3b72:	2000      	movs	r0, #0
    3b74:	2200      	movs	r2, #0
    3b76:	b2cc      	uxtb	r4, r1
    3b78:	0240      	lsls	r0, r0, #9
    3b7a:	05d2      	lsls	r2, r2, #23
    3b7c:	0a40      	lsrs	r0, r0, #9
    3b7e:	07e4      	lsls	r4, r4, #31
    3b80:	4310      	orrs	r0, r2
    3b82:	4320      	orrs	r0, r4
    3b84:	bc3c      	pop	{r2, r3, r4, r5}
    3b86:	4690      	mov	r8, r2
    3b88:	4699      	mov	r9, r3
    3b8a:	46a2      	mov	sl, r4
    3b8c:	46ab      	mov	fp, r5
    3b8e:	bdf8      	pop	{r3, r4, r5, r6, r7, pc}
    3b90:	2f00      	cmp	r7, #0
    3b92:	d115      	bne.n	3bc0 <__aeabi_fmul+0xdc>
    3b94:	2304      	movs	r3, #4
    3b96:	4699      	mov	r9, r3
    3b98:	3b03      	subs	r3, #3
    3b9a:	2600      	movs	r6, #0
    3b9c:	469a      	mov	sl, r3
    3b9e:	e7b9      	b.n	3b14 <__aeabi_fmul+0x30>
    3ba0:	20ff      	movs	r0, #255	; 0xff
    3ba2:	2202      	movs	r2, #2
    3ba4:	2d00      	cmp	r5, #0
    3ba6:	d0c5      	beq.n	3b34 <__aeabi_fmul+0x50>
    3ba8:	2203      	movs	r2, #3
    3baa:	e7c3      	b.n	3b34 <__aeabi_fmul+0x50>
    3bac:	2d00      	cmp	r5, #0
    3bae:	d119      	bne.n	3be4 <__aeabi_fmul+0x100>
    3bb0:	2000      	movs	r0, #0
    3bb2:	2201      	movs	r2, #1
    3bb4:	e7be      	b.n	3b34 <__aeabi_fmul+0x50>
    3bb6:	2401      	movs	r4, #1
    3bb8:	22ff      	movs	r2, #255	; 0xff
    3bba:	400c      	ands	r4, r1
    3bbc:	2000      	movs	r0, #0
    3bbe:	e7db      	b.n	3b78 <__aeabi_fmul+0x94>
    3bc0:	0038      	movs	r0, r7
    3bc2:	f001 fa03 	bl	4fcc <__clzsi2>
    3bc6:	2676      	movs	r6, #118	; 0x76
    3bc8:	1f43      	subs	r3, r0, #5
    3bca:	409f      	lsls	r7, r3
    3bcc:	2300      	movs	r3, #0
    3bce:	4276      	negs	r6, r6
    3bd0:	1a36      	subs	r6, r6, r0
    3bd2:	4699      	mov	r9, r3
    3bd4:	469a      	mov	sl, r3
    3bd6:	e79d      	b.n	3b14 <__aeabi_fmul+0x30>
    3bd8:	230c      	movs	r3, #12
    3bda:	4699      	mov	r9, r3
    3bdc:	3b09      	subs	r3, #9
    3bde:	26ff      	movs	r6, #255	; 0xff
    3be0:	469a      	mov	sl, r3
    3be2:	e797      	b.n	3b14 <__aeabi_fmul+0x30>
    3be4:	0028      	movs	r0, r5
    3be6:	f001 f9f1 	bl	4fcc <__clzsi2>
    3bea:	1f43      	subs	r3, r0, #5
    3bec:	409d      	lsls	r5, r3
    3bee:	2376      	movs	r3, #118	; 0x76
    3bf0:	425b      	negs	r3, r3
    3bf2:	1a18      	subs	r0, r3, r0
    3bf4:	2200      	movs	r2, #0
    3bf6:	e79d      	b.n	3b34 <__aeabi_fmul+0x50>
    3bf8:	2080      	movs	r0, #128	; 0x80
    3bfa:	2400      	movs	r4, #0
    3bfc:	03c0      	lsls	r0, r0, #15
    3bfe:	22ff      	movs	r2, #255	; 0xff
    3c00:	e7ba      	b.n	3b78 <__aeabi_fmul+0x94>
    3c02:	003d      	movs	r5, r7
    3c04:	4652      	mov	r2, sl
    3c06:	e7ab      	b.n	3b60 <__aeabi_fmul+0x7c>
    3c08:	003d      	movs	r5, r7
    3c0a:	0021      	movs	r1, r4
    3c0c:	4652      	mov	r2, sl
    3c0e:	e7a7      	b.n	3b60 <__aeabi_fmul+0x7c>
    3c10:	0c3b      	lsrs	r3, r7, #16
    3c12:	469c      	mov	ip, r3
    3c14:	042a      	lsls	r2, r5, #16
    3c16:	0c12      	lsrs	r2, r2, #16
    3c18:	0c2b      	lsrs	r3, r5, #16
    3c1a:	0014      	movs	r4, r2
    3c1c:	4660      	mov	r0, ip
    3c1e:	4665      	mov	r5, ip
    3c20:	043f      	lsls	r7, r7, #16
    3c22:	0c3f      	lsrs	r7, r7, #16
    3c24:	437c      	muls	r4, r7
    3c26:	4342      	muls	r2, r0
    3c28:	435d      	muls	r5, r3
    3c2a:	437b      	muls	r3, r7
    3c2c:	0c27      	lsrs	r7, r4, #16
    3c2e:	189b      	adds	r3, r3, r2
    3c30:	18ff      	adds	r7, r7, r3
    3c32:	42ba      	cmp	r2, r7
    3c34:	d903      	bls.n	3c3e <__aeabi_fmul+0x15a>
    3c36:	2380      	movs	r3, #128	; 0x80
    3c38:	025b      	lsls	r3, r3, #9
    3c3a:	469c      	mov	ip, r3
    3c3c:	4465      	add	r5, ip
    3c3e:	0424      	lsls	r4, r4, #16
    3c40:	043a      	lsls	r2, r7, #16
    3c42:	0c24      	lsrs	r4, r4, #16
    3c44:	1912      	adds	r2, r2, r4
    3c46:	0193      	lsls	r3, r2, #6
    3c48:	1e5c      	subs	r4, r3, #1
    3c4a:	41a3      	sbcs	r3, r4
    3c4c:	0c3f      	lsrs	r7, r7, #16
    3c4e:	0e92      	lsrs	r2, r2, #26
    3c50:	197d      	adds	r5, r7, r5
    3c52:	431a      	orrs	r2, r3
    3c54:	01ad      	lsls	r5, r5, #6
    3c56:	4315      	orrs	r5, r2
    3c58:	012b      	lsls	r3, r5, #4
    3c5a:	d504      	bpl.n	3c66 <__aeabi_fmul+0x182>
    3c5c:	2301      	movs	r3, #1
    3c5e:	465e      	mov	r6, fp
    3c60:	086a      	lsrs	r2, r5, #1
    3c62:	401d      	ands	r5, r3
    3c64:	4315      	orrs	r5, r2
    3c66:	0032      	movs	r2, r6
    3c68:	327f      	adds	r2, #127	; 0x7f
    3c6a:	2a00      	cmp	r2, #0
    3c6c:	dd25      	ble.n	3cba <__aeabi_fmul+0x1d6>
    3c6e:	076b      	lsls	r3, r5, #29
    3c70:	d004      	beq.n	3c7c <__aeabi_fmul+0x198>
    3c72:	230f      	movs	r3, #15
    3c74:	402b      	ands	r3, r5
    3c76:	2b04      	cmp	r3, #4
    3c78:	d000      	beq.n	3c7c <__aeabi_fmul+0x198>
    3c7a:	3504      	adds	r5, #4
    3c7c:	012b      	lsls	r3, r5, #4
    3c7e:	d503      	bpl.n	3c88 <__aeabi_fmul+0x1a4>
    3c80:	0032      	movs	r2, r6
    3c82:	4b27      	ldr	r3, [pc, #156]	; (3d20 <__aeabi_fmul+0x23c>)
    3c84:	3280      	adds	r2, #128	; 0x80
    3c86:	401d      	ands	r5, r3
    3c88:	2afe      	cmp	r2, #254	; 0xfe
    3c8a:	dc94      	bgt.n	3bb6 <__aeabi_fmul+0xd2>
    3c8c:	2401      	movs	r4, #1
    3c8e:	01a8      	lsls	r0, r5, #6
    3c90:	0a40      	lsrs	r0, r0, #9
    3c92:	b2d2      	uxtb	r2, r2
    3c94:	400c      	ands	r4, r1
    3c96:	e76f      	b.n	3b78 <__aeabi_fmul+0x94>
    3c98:	2080      	movs	r0, #128	; 0x80
    3c9a:	03c0      	lsls	r0, r0, #15
    3c9c:	4207      	tst	r7, r0
    3c9e:	d007      	beq.n	3cb0 <__aeabi_fmul+0x1cc>
    3ca0:	4205      	tst	r5, r0
    3ca2:	d105      	bne.n	3cb0 <__aeabi_fmul+0x1cc>
    3ca4:	4328      	orrs	r0, r5
    3ca6:	0240      	lsls	r0, r0, #9
    3ca8:	0a40      	lsrs	r0, r0, #9
    3caa:	4644      	mov	r4, r8
    3cac:	22ff      	movs	r2, #255	; 0xff
    3cae:	e763      	b.n	3b78 <__aeabi_fmul+0x94>
    3cb0:	4338      	orrs	r0, r7
    3cb2:	0240      	lsls	r0, r0, #9
    3cb4:	0a40      	lsrs	r0, r0, #9
    3cb6:	22ff      	movs	r2, #255	; 0xff
    3cb8:	e75e      	b.n	3b78 <__aeabi_fmul+0x94>
    3cba:	2401      	movs	r4, #1
    3cbc:	1aa3      	subs	r3, r4, r2
    3cbe:	2b1b      	cmp	r3, #27
    3cc0:	dd05      	ble.n	3cce <__aeabi_fmul+0x1ea>
    3cc2:	400c      	ands	r4, r1
    3cc4:	2200      	movs	r2, #0
    3cc6:	2000      	movs	r0, #0
    3cc8:	e756      	b.n	3b78 <__aeabi_fmul+0x94>
    3cca:	465e      	mov	r6, fp
    3ccc:	e7cb      	b.n	3c66 <__aeabi_fmul+0x182>
    3cce:	002a      	movs	r2, r5
    3cd0:	2020      	movs	r0, #32
    3cd2:	40da      	lsrs	r2, r3
    3cd4:	1ac3      	subs	r3, r0, r3
    3cd6:	409d      	lsls	r5, r3
    3cd8:	002b      	movs	r3, r5
    3cda:	1e5d      	subs	r5, r3, #1
    3cdc:	41ab      	sbcs	r3, r5
    3cde:	4313      	orrs	r3, r2
    3ce0:	075a      	lsls	r2, r3, #29
    3ce2:	d004      	beq.n	3cee <__aeabi_fmul+0x20a>
    3ce4:	220f      	movs	r2, #15
    3ce6:	401a      	ands	r2, r3
    3ce8:	2a04      	cmp	r2, #4
    3cea:	d000      	beq.n	3cee <__aeabi_fmul+0x20a>
    3cec:	3304      	adds	r3, #4
    3cee:	015a      	lsls	r2, r3, #5
    3cf0:	d504      	bpl.n	3cfc <__aeabi_fmul+0x218>
    3cf2:	2401      	movs	r4, #1
    3cf4:	2201      	movs	r2, #1
    3cf6:	400c      	ands	r4, r1
    3cf8:	2000      	movs	r0, #0
    3cfa:	e73d      	b.n	3b78 <__aeabi_fmul+0x94>
    3cfc:	2401      	movs	r4, #1
    3cfe:	019b      	lsls	r3, r3, #6
    3d00:	0a58      	lsrs	r0, r3, #9
    3d02:	400c      	ands	r4, r1
    3d04:	2200      	movs	r2, #0
    3d06:	e737      	b.n	3b78 <__aeabi_fmul+0x94>
    3d08:	2080      	movs	r0, #128	; 0x80
    3d0a:	2401      	movs	r4, #1
    3d0c:	03c0      	lsls	r0, r0, #15
    3d0e:	4328      	orrs	r0, r5
    3d10:	0240      	lsls	r0, r0, #9
    3d12:	0a40      	lsrs	r0, r0, #9
    3d14:	400c      	ands	r4, r1
    3d16:	22ff      	movs	r2, #255	; 0xff
    3d18:	e72e      	b.n	3b78 <__aeabi_fmul+0x94>
    3d1a:	46c0      	nop			; (mov r8, r8)
    3d1c:	00005b34 	.word	0x00005b34
    3d20:	f7ffffff 	.word	0xf7ffffff

00003d24 <__aeabi_fsub>:
    3d24:	b5f0      	push	{r4, r5, r6, r7, lr}
    3d26:	464f      	mov	r7, r9
    3d28:	46d6      	mov	lr, sl
    3d2a:	4646      	mov	r6, r8
    3d2c:	0044      	lsls	r4, r0, #1
    3d2e:	b5c0      	push	{r6, r7, lr}
    3d30:	0fc2      	lsrs	r2, r0, #31
    3d32:	0247      	lsls	r7, r0, #9
    3d34:	0248      	lsls	r0, r1, #9
    3d36:	0a40      	lsrs	r0, r0, #9
    3d38:	4684      	mov	ip, r0
    3d3a:	4666      	mov	r6, ip
    3d3c:	0a7b      	lsrs	r3, r7, #9
    3d3e:	0048      	lsls	r0, r1, #1
    3d40:	0fc9      	lsrs	r1, r1, #31
    3d42:	469a      	mov	sl, r3
    3d44:	0e24      	lsrs	r4, r4, #24
    3d46:	0015      	movs	r5, r2
    3d48:	00db      	lsls	r3, r3, #3
    3d4a:	0e00      	lsrs	r0, r0, #24
    3d4c:	4689      	mov	r9, r1
    3d4e:	00f6      	lsls	r6, r6, #3
    3d50:	28ff      	cmp	r0, #255	; 0xff
    3d52:	d100      	bne.n	3d56 <__aeabi_fsub+0x32>
    3d54:	e08f      	b.n	3e76 <__aeabi_fsub+0x152>
    3d56:	2101      	movs	r1, #1
    3d58:	464f      	mov	r7, r9
    3d5a:	404f      	eors	r7, r1
    3d5c:	0039      	movs	r1, r7
    3d5e:	4291      	cmp	r1, r2
    3d60:	d066      	beq.n	3e30 <__aeabi_fsub+0x10c>
    3d62:	1a22      	subs	r2, r4, r0
    3d64:	2a00      	cmp	r2, #0
    3d66:	dc00      	bgt.n	3d6a <__aeabi_fsub+0x46>
    3d68:	e09d      	b.n	3ea6 <__aeabi_fsub+0x182>
    3d6a:	2800      	cmp	r0, #0
    3d6c:	d13d      	bne.n	3dea <__aeabi_fsub+0xc6>
    3d6e:	2e00      	cmp	r6, #0
    3d70:	d100      	bne.n	3d74 <__aeabi_fsub+0x50>
    3d72:	e08b      	b.n	3e8c <__aeabi_fsub+0x168>
    3d74:	1e51      	subs	r1, r2, #1
    3d76:	2900      	cmp	r1, #0
    3d78:	d000      	beq.n	3d7c <__aeabi_fsub+0x58>
    3d7a:	e0b5      	b.n	3ee8 <__aeabi_fsub+0x1c4>
    3d7c:	2401      	movs	r4, #1
    3d7e:	1b9b      	subs	r3, r3, r6
    3d80:	015a      	lsls	r2, r3, #5
    3d82:	d544      	bpl.n	3e0e <__aeabi_fsub+0xea>
    3d84:	019b      	lsls	r3, r3, #6
    3d86:	099f      	lsrs	r7, r3, #6
    3d88:	0038      	movs	r0, r7
    3d8a:	f001 f91f 	bl	4fcc <__clzsi2>
    3d8e:	3805      	subs	r0, #5
    3d90:	4087      	lsls	r7, r0
    3d92:	4284      	cmp	r4, r0
    3d94:	dd00      	ble.n	3d98 <__aeabi_fsub+0x74>
    3d96:	e096      	b.n	3ec6 <__aeabi_fsub+0x1a2>
    3d98:	1b04      	subs	r4, r0, r4
    3d9a:	003a      	movs	r2, r7
    3d9c:	2020      	movs	r0, #32
    3d9e:	3401      	adds	r4, #1
    3da0:	40e2      	lsrs	r2, r4
    3da2:	1b04      	subs	r4, r0, r4
    3da4:	40a7      	lsls	r7, r4
    3da6:	003b      	movs	r3, r7
    3da8:	1e5f      	subs	r7, r3, #1
    3daa:	41bb      	sbcs	r3, r7
    3dac:	2400      	movs	r4, #0
    3dae:	4313      	orrs	r3, r2
    3db0:	075a      	lsls	r2, r3, #29
    3db2:	d004      	beq.n	3dbe <__aeabi_fsub+0x9a>
    3db4:	220f      	movs	r2, #15
    3db6:	401a      	ands	r2, r3
    3db8:	2a04      	cmp	r2, #4
    3dba:	d000      	beq.n	3dbe <__aeabi_fsub+0x9a>
    3dbc:	3304      	adds	r3, #4
    3dbe:	015a      	lsls	r2, r3, #5
    3dc0:	d527      	bpl.n	3e12 <__aeabi_fsub+0xee>
    3dc2:	3401      	adds	r4, #1
    3dc4:	2cff      	cmp	r4, #255	; 0xff
    3dc6:	d100      	bne.n	3dca <__aeabi_fsub+0xa6>
    3dc8:	e079      	b.n	3ebe <__aeabi_fsub+0x19a>
    3dca:	2201      	movs	r2, #1
    3dcc:	019b      	lsls	r3, r3, #6
    3dce:	0a5b      	lsrs	r3, r3, #9
    3dd0:	b2e4      	uxtb	r4, r4
    3dd2:	402a      	ands	r2, r5
    3dd4:	025b      	lsls	r3, r3, #9
    3dd6:	05e4      	lsls	r4, r4, #23
    3dd8:	0a58      	lsrs	r0, r3, #9
    3dda:	07d2      	lsls	r2, r2, #31
    3ddc:	4320      	orrs	r0, r4
    3dde:	4310      	orrs	r0, r2
    3de0:	bc1c      	pop	{r2, r3, r4}
    3de2:	4690      	mov	r8, r2
    3de4:	4699      	mov	r9, r3
    3de6:	46a2      	mov	sl, r4
    3de8:	bdf0      	pop	{r4, r5, r6, r7, pc}
    3dea:	2cff      	cmp	r4, #255	; 0xff
    3dec:	d0e0      	beq.n	3db0 <__aeabi_fsub+0x8c>
    3dee:	2180      	movs	r1, #128	; 0x80
    3df0:	04c9      	lsls	r1, r1, #19
    3df2:	430e      	orrs	r6, r1
    3df4:	2a1b      	cmp	r2, #27
    3df6:	dc7b      	bgt.n	3ef0 <__aeabi_fsub+0x1cc>
    3df8:	0031      	movs	r1, r6
    3dfa:	2020      	movs	r0, #32
    3dfc:	40d1      	lsrs	r1, r2
    3dfe:	1a82      	subs	r2, r0, r2
    3e00:	4096      	lsls	r6, r2
    3e02:	1e72      	subs	r2, r6, #1
    3e04:	4196      	sbcs	r6, r2
    3e06:	430e      	orrs	r6, r1
    3e08:	1b9b      	subs	r3, r3, r6
    3e0a:	015a      	lsls	r2, r3, #5
    3e0c:	d4ba      	bmi.n	3d84 <__aeabi_fsub+0x60>
    3e0e:	075a      	lsls	r2, r3, #29
    3e10:	d1d0      	bne.n	3db4 <__aeabi_fsub+0x90>
    3e12:	2201      	movs	r2, #1
    3e14:	08df      	lsrs	r7, r3, #3
    3e16:	402a      	ands	r2, r5
    3e18:	2cff      	cmp	r4, #255	; 0xff
    3e1a:	d133      	bne.n	3e84 <__aeabi_fsub+0x160>
    3e1c:	2f00      	cmp	r7, #0
    3e1e:	d100      	bne.n	3e22 <__aeabi_fsub+0xfe>
    3e20:	e0a8      	b.n	3f74 <__aeabi_fsub+0x250>
    3e22:	2380      	movs	r3, #128	; 0x80
    3e24:	03db      	lsls	r3, r3, #15
    3e26:	433b      	orrs	r3, r7
    3e28:	025b      	lsls	r3, r3, #9
    3e2a:	0a5b      	lsrs	r3, r3, #9
    3e2c:	24ff      	movs	r4, #255	; 0xff
    3e2e:	e7d1      	b.n	3dd4 <__aeabi_fsub+0xb0>
    3e30:	1a21      	subs	r1, r4, r0
    3e32:	2900      	cmp	r1, #0
    3e34:	dd4c      	ble.n	3ed0 <__aeabi_fsub+0x1ac>
    3e36:	2800      	cmp	r0, #0
    3e38:	d02a      	beq.n	3e90 <__aeabi_fsub+0x16c>
    3e3a:	2cff      	cmp	r4, #255	; 0xff
    3e3c:	d0b8      	beq.n	3db0 <__aeabi_fsub+0x8c>
    3e3e:	2080      	movs	r0, #128	; 0x80
    3e40:	04c0      	lsls	r0, r0, #19
    3e42:	4306      	orrs	r6, r0
    3e44:	291b      	cmp	r1, #27
    3e46:	dd00      	ble.n	3e4a <__aeabi_fsub+0x126>
    3e48:	e0af      	b.n	3faa <__aeabi_fsub+0x286>
    3e4a:	0030      	movs	r0, r6
    3e4c:	2720      	movs	r7, #32
    3e4e:	40c8      	lsrs	r0, r1
    3e50:	1a79      	subs	r1, r7, r1
    3e52:	408e      	lsls	r6, r1
    3e54:	1e71      	subs	r1, r6, #1
    3e56:	418e      	sbcs	r6, r1
    3e58:	4306      	orrs	r6, r0
    3e5a:	199b      	adds	r3, r3, r6
    3e5c:	0159      	lsls	r1, r3, #5
    3e5e:	d5d6      	bpl.n	3e0e <__aeabi_fsub+0xea>
    3e60:	3401      	adds	r4, #1
    3e62:	2cff      	cmp	r4, #255	; 0xff
    3e64:	d100      	bne.n	3e68 <__aeabi_fsub+0x144>
    3e66:	e085      	b.n	3f74 <__aeabi_fsub+0x250>
    3e68:	2201      	movs	r2, #1
    3e6a:	497a      	ldr	r1, [pc, #488]	; (4054 <__aeabi_fsub+0x330>)
    3e6c:	401a      	ands	r2, r3
    3e6e:	085b      	lsrs	r3, r3, #1
    3e70:	400b      	ands	r3, r1
    3e72:	4313      	orrs	r3, r2
    3e74:	e79c      	b.n	3db0 <__aeabi_fsub+0x8c>
    3e76:	2e00      	cmp	r6, #0
    3e78:	d000      	beq.n	3e7c <__aeabi_fsub+0x158>
    3e7a:	e770      	b.n	3d5e <__aeabi_fsub+0x3a>
    3e7c:	e76b      	b.n	3d56 <__aeabi_fsub+0x32>
    3e7e:	1e3b      	subs	r3, r7, #0
    3e80:	d1c5      	bne.n	3e0e <__aeabi_fsub+0xea>
    3e82:	2200      	movs	r2, #0
    3e84:	027b      	lsls	r3, r7, #9
    3e86:	0a5b      	lsrs	r3, r3, #9
    3e88:	b2e4      	uxtb	r4, r4
    3e8a:	e7a3      	b.n	3dd4 <__aeabi_fsub+0xb0>
    3e8c:	0014      	movs	r4, r2
    3e8e:	e78f      	b.n	3db0 <__aeabi_fsub+0x8c>
    3e90:	2e00      	cmp	r6, #0
    3e92:	d04d      	beq.n	3f30 <__aeabi_fsub+0x20c>
    3e94:	1e48      	subs	r0, r1, #1
    3e96:	2800      	cmp	r0, #0
    3e98:	d157      	bne.n	3f4a <__aeabi_fsub+0x226>
    3e9a:	199b      	adds	r3, r3, r6
    3e9c:	2401      	movs	r4, #1
    3e9e:	015a      	lsls	r2, r3, #5
    3ea0:	d5b5      	bpl.n	3e0e <__aeabi_fsub+0xea>
    3ea2:	2402      	movs	r4, #2
    3ea4:	e7e0      	b.n	3e68 <__aeabi_fsub+0x144>
    3ea6:	2a00      	cmp	r2, #0
    3ea8:	d125      	bne.n	3ef6 <__aeabi_fsub+0x1d2>
    3eaa:	1c62      	adds	r2, r4, #1
    3eac:	b2d2      	uxtb	r2, r2
    3eae:	2a01      	cmp	r2, #1
    3eb0:	dd72      	ble.n	3f98 <__aeabi_fsub+0x274>
    3eb2:	1b9f      	subs	r7, r3, r6
    3eb4:	017a      	lsls	r2, r7, #5
    3eb6:	d535      	bpl.n	3f24 <__aeabi_fsub+0x200>
    3eb8:	1af7      	subs	r7, r6, r3
    3eba:	000d      	movs	r5, r1
    3ebc:	e764      	b.n	3d88 <__aeabi_fsub+0x64>
    3ebe:	2201      	movs	r2, #1
    3ec0:	2300      	movs	r3, #0
    3ec2:	402a      	ands	r2, r5
    3ec4:	e786      	b.n	3dd4 <__aeabi_fsub+0xb0>
    3ec6:	003b      	movs	r3, r7
    3ec8:	4a63      	ldr	r2, [pc, #396]	; (4058 <__aeabi_fsub+0x334>)
    3eca:	1a24      	subs	r4, r4, r0
    3ecc:	4013      	ands	r3, r2
    3ece:	e76f      	b.n	3db0 <__aeabi_fsub+0x8c>
    3ed0:	2900      	cmp	r1, #0
    3ed2:	d16c      	bne.n	3fae <__aeabi_fsub+0x28a>
    3ed4:	1c61      	adds	r1, r4, #1
    3ed6:	b2c8      	uxtb	r0, r1
    3ed8:	2801      	cmp	r0, #1
    3eda:	dd4e      	ble.n	3f7a <__aeabi_fsub+0x256>
    3edc:	29ff      	cmp	r1, #255	; 0xff
    3ede:	d049      	beq.n	3f74 <__aeabi_fsub+0x250>
    3ee0:	199b      	adds	r3, r3, r6
    3ee2:	085b      	lsrs	r3, r3, #1
    3ee4:	000c      	movs	r4, r1
    3ee6:	e763      	b.n	3db0 <__aeabi_fsub+0x8c>
    3ee8:	2aff      	cmp	r2, #255	; 0xff
    3eea:	d041      	beq.n	3f70 <__aeabi_fsub+0x24c>
    3eec:	000a      	movs	r2, r1
    3eee:	e781      	b.n	3df4 <__aeabi_fsub+0xd0>
    3ef0:	2601      	movs	r6, #1
    3ef2:	1b9b      	subs	r3, r3, r6
    3ef4:	e789      	b.n	3e0a <__aeabi_fsub+0xe6>
    3ef6:	2c00      	cmp	r4, #0
    3ef8:	d01c      	beq.n	3f34 <__aeabi_fsub+0x210>
    3efa:	28ff      	cmp	r0, #255	; 0xff
    3efc:	d021      	beq.n	3f42 <__aeabi_fsub+0x21e>
    3efe:	2480      	movs	r4, #128	; 0x80
    3f00:	04e4      	lsls	r4, r4, #19
    3f02:	4252      	negs	r2, r2
    3f04:	4323      	orrs	r3, r4
    3f06:	2a1b      	cmp	r2, #27
    3f08:	dd00      	ble.n	3f0c <__aeabi_fsub+0x1e8>
    3f0a:	e096      	b.n	403a <__aeabi_fsub+0x316>
    3f0c:	001c      	movs	r4, r3
    3f0e:	2520      	movs	r5, #32
    3f10:	40d4      	lsrs	r4, r2
    3f12:	1aaa      	subs	r2, r5, r2
    3f14:	4093      	lsls	r3, r2
    3f16:	1e5a      	subs	r2, r3, #1
    3f18:	4193      	sbcs	r3, r2
    3f1a:	4323      	orrs	r3, r4
    3f1c:	1af3      	subs	r3, r6, r3
    3f1e:	0004      	movs	r4, r0
    3f20:	000d      	movs	r5, r1
    3f22:	e72d      	b.n	3d80 <__aeabi_fsub+0x5c>
    3f24:	2f00      	cmp	r7, #0
    3f26:	d000      	beq.n	3f2a <__aeabi_fsub+0x206>
    3f28:	e72e      	b.n	3d88 <__aeabi_fsub+0x64>
    3f2a:	2200      	movs	r2, #0
    3f2c:	2400      	movs	r4, #0
    3f2e:	e7a9      	b.n	3e84 <__aeabi_fsub+0x160>
    3f30:	000c      	movs	r4, r1
    3f32:	e73d      	b.n	3db0 <__aeabi_fsub+0x8c>
    3f34:	2b00      	cmp	r3, #0
    3f36:	d058      	beq.n	3fea <__aeabi_fsub+0x2c6>
    3f38:	43d2      	mvns	r2, r2
    3f3a:	2a00      	cmp	r2, #0
    3f3c:	d0ee      	beq.n	3f1c <__aeabi_fsub+0x1f8>
    3f3e:	28ff      	cmp	r0, #255	; 0xff
    3f40:	d1e1      	bne.n	3f06 <__aeabi_fsub+0x1e2>
    3f42:	0033      	movs	r3, r6
    3f44:	24ff      	movs	r4, #255	; 0xff
    3f46:	000d      	movs	r5, r1
    3f48:	e732      	b.n	3db0 <__aeabi_fsub+0x8c>
    3f4a:	29ff      	cmp	r1, #255	; 0xff
    3f4c:	d010      	beq.n	3f70 <__aeabi_fsub+0x24c>
    3f4e:	0001      	movs	r1, r0
    3f50:	e778      	b.n	3e44 <__aeabi_fsub+0x120>
    3f52:	2b00      	cmp	r3, #0
    3f54:	d06e      	beq.n	4034 <__aeabi_fsub+0x310>
    3f56:	24ff      	movs	r4, #255	; 0xff
    3f58:	2e00      	cmp	r6, #0
    3f5a:	d100      	bne.n	3f5e <__aeabi_fsub+0x23a>
    3f5c:	e728      	b.n	3db0 <__aeabi_fsub+0x8c>
    3f5e:	2280      	movs	r2, #128	; 0x80
    3f60:	4651      	mov	r1, sl
    3f62:	03d2      	lsls	r2, r2, #15
    3f64:	4211      	tst	r1, r2
    3f66:	d003      	beq.n	3f70 <__aeabi_fsub+0x24c>
    3f68:	4661      	mov	r1, ip
    3f6a:	4211      	tst	r1, r2
    3f6c:	d100      	bne.n	3f70 <__aeabi_fsub+0x24c>
    3f6e:	0033      	movs	r3, r6
    3f70:	24ff      	movs	r4, #255	; 0xff
    3f72:	e71d      	b.n	3db0 <__aeabi_fsub+0x8c>
    3f74:	24ff      	movs	r4, #255	; 0xff
    3f76:	2300      	movs	r3, #0
    3f78:	e72c      	b.n	3dd4 <__aeabi_fsub+0xb0>
    3f7a:	2c00      	cmp	r4, #0
    3f7c:	d1e9      	bne.n	3f52 <__aeabi_fsub+0x22e>
    3f7e:	2b00      	cmp	r3, #0
    3f80:	d063      	beq.n	404a <__aeabi_fsub+0x326>
    3f82:	2e00      	cmp	r6, #0
    3f84:	d100      	bne.n	3f88 <__aeabi_fsub+0x264>
    3f86:	e713      	b.n	3db0 <__aeabi_fsub+0x8c>
    3f88:	199b      	adds	r3, r3, r6
    3f8a:	015a      	lsls	r2, r3, #5
    3f8c:	d400      	bmi.n	3f90 <__aeabi_fsub+0x26c>
    3f8e:	e73e      	b.n	3e0e <__aeabi_fsub+0xea>
    3f90:	4a31      	ldr	r2, [pc, #196]	; (4058 <__aeabi_fsub+0x334>)
    3f92:	000c      	movs	r4, r1
    3f94:	4013      	ands	r3, r2
    3f96:	e70b      	b.n	3db0 <__aeabi_fsub+0x8c>
    3f98:	2c00      	cmp	r4, #0
    3f9a:	d11e      	bne.n	3fda <__aeabi_fsub+0x2b6>
    3f9c:	2b00      	cmp	r3, #0
    3f9e:	d12f      	bne.n	4000 <__aeabi_fsub+0x2dc>
    3fa0:	2e00      	cmp	r6, #0
    3fa2:	d04f      	beq.n	4044 <__aeabi_fsub+0x320>
    3fa4:	0033      	movs	r3, r6
    3fa6:	000d      	movs	r5, r1
    3fa8:	e702      	b.n	3db0 <__aeabi_fsub+0x8c>
    3faa:	2601      	movs	r6, #1
    3fac:	e755      	b.n	3e5a <__aeabi_fsub+0x136>
    3fae:	2c00      	cmp	r4, #0
    3fb0:	d11f      	bne.n	3ff2 <__aeabi_fsub+0x2ce>
    3fb2:	2b00      	cmp	r3, #0
    3fb4:	d043      	beq.n	403e <__aeabi_fsub+0x31a>
    3fb6:	43c9      	mvns	r1, r1
    3fb8:	2900      	cmp	r1, #0
    3fba:	d00b      	beq.n	3fd4 <__aeabi_fsub+0x2b0>
    3fbc:	28ff      	cmp	r0, #255	; 0xff
    3fbe:	d039      	beq.n	4034 <__aeabi_fsub+0x310>
    3fc0:	291b      	cmp	r1, #27
    3fc2:	dc44      	bgt.n	404e <__aeabi_fsub+0x32a>
    3fc4:	001c      	movs	r4, r3
    3fc6:	2720      	movs	r7, #32
    3fc8:	40cc      	lsrs	r4, r1
    3fca:	1a79      	subs	r1, r7, r1
    3fcc:	408b      	lsls	r3, r1
    3fce:	1e59      	subs	r1, r3, #1
    3fd0:	418b      	sbcs	r3, r1
    3fd2:	4323      	orrs	r3, r4
    3fd4:	199b      	adds	r3, r3, r6
    3fd6:	0004      	movs	r4, r0
    3fd8:	e740      	b.n	3e5c <__aeabi_fsub+0x138>
    3fda:	2b00      	cmp	r3, #0
    3fdc:	d11a      	bne.n	4014 <__aeabi_fsub+0x2f0>
    3fde:	2e00      	cmp	r6, #0
    3fe0:	d124      	bne.n	402c <__aeabi_fsub+0x308>
    3fe2:	2780      	movs	r7, #128	; 0x80
    3fe4:	2200      	movs	r2, #0
    3fe6:	03ff      	lsls	r7, r7, #15
    3fe8:	e71b      	b.n	3e22 <__aeabi_fsub+0xfe>
    3fea:	0033      	movs	r3, r6
    3fec:	0004      	movs	r4, r0
    3fee:	000d      	movs	r5, r1
    3ff0:	e6de      	b.n	3db0 <__aeabi_fsub+0x8c>
    3ff2:	28ff      	cmp	r0, #255	; 0xff
    3ff4:	d01e      	beq.n	4034 <__aeabi_fsub+0x310>
    3ff6:	2480      	movs	r4, #128	; 0x80
    3ff8:	04e4      	lsls	r4, r4, #19
    3ffa:	4249      	negs	r1, r1
    3ffc:	4323      	orrs	r3, r4
    3ffe:	e7df      	b.n	3fc0 <__aeabi_fsub+0x29c>
    4000:	2e00      	cmp	r6, #0
    4002:	d100      	bne.n	4006 <__aeabi_fsub+0x2e2>
    4004:	e6d4      	b.n	3db0 <__aeabi_fsub+0x8c>
    4006:	1b9f      	subs	r7, r3, r6
    4008:	017a      	lsls	r2, r7, #5
    400a:	d400      	bmi.n	400e <__aeabi_fsub+0x2ea>
    400c:	e737      	b.n	3e7e <__aeabi_fsub+0x15a>
    400e:	1af3      	subs	r3, r6, r3
    4010:	000d      	movs	r5, r1
    4012:	e6cd      	b.n	3db0 <__aeabi_fsub+0x8c>
    4014:	24ff      	movs	r4, #255	; 0xff
    4016:	2e00      	cmp	r6, #0
    4018:	d100      	bne.n	401c <__aeabi_fsub+0x2f8>
    401a:	e6c9      	b.n	3db0 <__aeabi_fsub+0x8c>
    401c:	2280      	movs	r2, #128	; 0x80
    401e:	4650      	mov	r0, sl
    4020:	03d2      	lsls	r2, r2, #15
    4022:	4210      	tst	r0, r2
    4024:	d0a4      	beq.n	3f70 <__aeabi_fsub+0x24c>
    4026:	4660      	mov	r0, ip
    4028:	4210      	tst	r0, r2
    402a:	d1a1      	bne.n	3f70 <__aeabi_fsub+0x24c>
    402c:	0033      	movs	r3, r6
    402e:	000d      	movs	r5, r1
    4030:	24ff      	movs	r4, #255	; 0xff
    4032:	e6bd      	b.n	3db0 <__aeabi_fsub+0x8c>
    4034:	0033      	movs	r3, r6
    4036:	24ff      	movs	r4, #255	; 0xff
    4038:	e6ba      	b.n	3db0 <__aeabi_fsub+0x8c>
    403a:	2301      	movs	r3, #1
    403c:	e76e      	b.n	3f1c <__aeabi_fsub+0x1f8>
    403e:	0033      	movs	r3, r6
    4040:	0004      	movs	r4, r0
    4042:	e6b5      	b.n	3db0 <__aeabi_fsub+0x8c>
    4044:	2700      	movs	r7, #0
    4046:	2200      	movs	r2, #0
    4048:	e71c      	b.n	3e84 <__aeabi_fsub+0x160>
    404a:	0033      	movs	r3, r6
    404c:	e6b0      	b.n	3db0 <__aeabi_fsub+0x8c>
    404e:	2301      	movs	r3, #1
    4050:	e7c0      	b.n	3fd4 <__aeabi_fsub+0x2b0>
    4052:	46c0      	nop			; (mov r8, r8)
    4054:	7dffffff 	.word	0x7dffffff
    4058:	fbffffff 	.word	0xfbffffff

0000405c <__aeabi_f2iz>:
    405c:	0241      	lsls	r1, r0, #9
    405e:	0043      	lsls	r3, r0, #1
    4060:	0fc2      	lsrs	r2, r0, #31
    4062:	0a49      	lsrs	r1, r1, #9
    4064:	0e1b      	lsrs	r3, r3, #24
    4066:	2000      	movs	r0, #0
    4068:	2b7e      	cmp	r3, #126	; 0x7e
    406a:	dd0d      	ble.n	4088 <__aeabi_f2iz+0x2c>
    406c:	2b9d      	cmp	r3, #157	; 0x9d
    406e:	dc0c      	bgt.n	408a <__aeabi_f2iz+0x2e>
    4070:	2080      	movs	r0, #128	; 0x80
    4072:	0400      	lsls	r0, r0, #16
    4074:	4301      	orrs	r1, r0
    4076:	2b95      	cmp	r3, #149	; 0x95
    4078:	dc0a      	bgt.n	4090 <__aeabi_f2iz+0x34>
    407a:	2096      	movs	r0, #150	; 0x96
    407c:	1ac3      	subs	r3, r0, r3
    407e:	40d9      	lsrs	r1, r3
    4080:	4248      	negs	r0, r1
    4082:	2a00      	cmp	r2, #0
    4084:	d100      	bne.n	4088 <__aeabi_f2iz+0x2c>
    4086:	0008      	movs	r0, r1
    4088:	4770      	bx	lr
    408a:	4b03      	ldr	r3, [pc, #12]	; (4098 <__aeabi_f2iz+0x3c>)
    408c:	18d0      	adds	r0, r2, r3
    408e:	e7fb      	b.n	4088 <__aeabi_f2iz+0x2c>
    4090:	3b96      	subs	r3, #150	; 0x96
    4092:	4099      	lsls	r1, r3
    4094:	e7f4      	b.n	4080 <__aeabi_f2iz+0x24>
    4096:	46c0      	nop			; (mov r8, r8)
    4098:	7fffffff 	.word	0x7fffffff

0000409c <__aeabi_i2f>:
    409c:	b570      	push	{r4, r5, r6, lr}
    409e:	2800      	cmp	r0, #0
    40a0:	d030      	beq.n	4104 <__aeabi_i2f+0x68>
    40a2:	17c3      	asrs	r3, r0, #31
    40a4:	18c4      	adds	r4, r0, r3
    40a6:	405c      	eors	r4, r3
    40a8:	0fc5      	lsrs	r5, r0, #31
    40aa:	0020      	movs	r0, r4
    40ac:	f000 ff8e 	bl	4fcc <__clzsi2>
    40b0:	239e      	movs	r3, #158	; 0x9e
    40b2:	1a1b      	subs	r3, r3, r0
    40b4:	2b96      	cmp	r3, #150	; 0x96
    40b6:	dc0d      	bgt.n	40d4 <__aeabi_i2f+0x38>
    40b8:	2296      	movs	r2, #150	; 0x96
    40ba:	1ad2      	subs	r2, r2, r3
    40bc:	4094      	lsls	r4, r2
    40be:	002a      	movs	r2, r5
    40c0:	0264      	lsls	r4, r4, #9
    40c2:	0a64      	lsrs	r4, r4, #9
    40c4:	b2db      	uxtb	r3, r3
    40c6:	0264      	lsls	r4, r4, #9
    40c8:	05db      	lsls	r3, r3, #23
    40ca:	0a60      	lsrs	r0, r4, #9
    40cc:	07d2      	lsls	r2, r2, #31
    40ce:	4318      	orrs	r0, r3
    40d0:	4310      	orrs	r0, r2
    40d2:	bd70      	pop	{r4, r5, r6, pc}
    40d4:	2b99      	cmp	r3, #153	; 0x99
    40d6:	dc19      	bgt.n	410c <__aeabi_i2f+0x70>
    40d8:	2299      	movs	r2, #153	; 0x99
    40da:	1ad2      	subs	r2, r2, r3
    40dc:	2a00      	cmp	r2, #0
    40de:	dd29      	ble.n	4134 <__aeabi_i2f+0x98>
    40e0:	4094      	lsls	r4, r2
    40e2:	0022      	movs	r2, r4
    40e4:	4c14      	ldr	r4, [pc, #80]	; (4138 <__aeabi_i2f+0x9c>)
    40e6:	4014      	ands	r4, r2
    40e8:	0751      	lsls	r1, r2, #29
    40ea:	d004      	beq.n	40f6 <__aeabi_i2f+0x5a>
    40ec:	210f      	movs	r1, #15
    40ee:	400a      	ands	r2, r1
    40f0:	2a04      	cmp	r2, #4
    40f2:	d000      	beq.n	40f6 <__aeabi_i2f+0x5a>
    40f4:	3404      	adds	r4, #4
    40f6:	0162      	lsls	r2, r4, #5
    40f8:	d413      	bmi.n	4122 <__aeabi_i2f+0x86>
    40fa:	01a4      	lsls	r4, r4, #6
    40fc:	0a64      	lsrs	r4, r4, #9
    40fe:	b2db      	uxtb	r3, r3
    4100:	002a      	movs	r2, r5
    4102:	e7e0      	b.n	40c6 <__aeabi_i2f+0x2a>
    4104:	2200      	movs	r2, #0
    4106:	2300      	movs	r3, #0
    4108:	2400      	movs	r4, #0
    410a:	e7dc      	b.n	40c6 <__aeabi_i2f+0x2a>
    410c:	2205      	movs	r2, #5
    410e:	0021      	movs	r1, r4
    4110:	1a12      	subs	r2, r2, r0
    4112:	40d1      	lsrs	r1, r2
    4114:	22b9      	movs	r2, #185	; 0xb9
    4116:	1ad2      	subs	r2, r2, r3
    4118:	4094      	lsls	r4, r2
    411a:	1e62      	subs	r2, r4, #1
    411c:	4194      	sbcs	r4, r2
    411e:	430c      	orrs	r4, r1
    4120:	e7da      	b.n	40d8 <__aeabi_i2f+0x3c>
    4122:	4b05      	ldr	r3, [pc, #20]	; (4138 <__aeabi_i2f+0x9c>)
    4124:	002a      	movs	r2, r5
    4126:	401c      	ands	r4, r3
    4128:	239f      	movs	r3, #159	; 0x9f
    412a:	01a4      	lsls	r4, r4, #6
    412c:	1a1b      	subs	r3, r3, r0
    412e:	0a64      	lsrs	r4, r4, #9
    4130:	b2db      	uxtb	r3, r3
    4132:	e7c8      	b.n	40c6 <__aeabi_i2f+0x2a>
    4134:	0022      	movs	r2, r4
    4136:	e7d5      	b.n	40e4 <__aeabi_i2f+0x48>
    4138:	fbffffff 	.word	0xfbffffff

0000413c <__aeabi_ui2f>:
    413c:	b510      	push	{r4, lr}
    413e:	1e04      	subs	r4, r0, #0
    4140:	d027      	beq.n	4192 <__aeabi_ui2f+0x56>
    4142:	f000 ff43 	bl	4fcc <__clzsi2>
    4146:	239e      	movs	r3, #158	; 0x9e
    4148:	1a1b      	subs	r3, r3, r0
    414a:	2b96      	cmp	r3, #150	; 0x96
    414c:	dc0a      	bgt.n	4164 <__aeabi_ui2f+0x28>
    414e:	2296      	movs	r2, #150	; 0x96
    4150:	1ad2      	subs	r2, r2, r3
    4152:	4094      	lsls	r4, r2
    4154:	0264      	lsls	r4, r4, #9
    4156:	0a64      	lsrs	r4, r4, #9
    4158:	b2db      	uxtb	r3, r3
    415a:	0264      	lsls	r4, r4, #9
    415c:	05db      	lsls	r3, r3, #23
    415e:	0a60      	lsrs	r0, r4, #9
    4160:	4318      	orrs	r0, r3
    4162:	bd10      	pop	{r4, pc}
    4164:	2b99      	cmp	r3, #153	; 0x99
    4166:	dc17      	bgt.n	4198 <__aeabi_ui2f+0x5c>
    4168:	2299      	movs	r2, #153	; 0x99
    416a:	1ad2      	subs	r2, r2, r3
    416c:	2a00      	cmp	r2, #0
    416e:	dd27      	ble.n	41c0 <__aeabi_ui2f+0x84>
    4170:	4094      	lsls	r4, r2
    4172:	0022      	movs	r2, r4
    4174:	4c13      	ldr	r4, [pc, #76]	; (41c4 <__aeabi_ui2f+0x88>)
    4176:	4014      	ands	r4, r2
    4178:	0751      	lsls	r1, r2, #29
    417a:	d004      	beq.n	4186 <__aeabi_ui2f+0x4a>
    417c:	210f      	movs	r1, #15
    417e:	400a      	ands	r2, r1
    4180:	2a04      	cmp	r2, #4
    4182:	d000      	beq.n	4186 <__aeabi_ui2f+0x4a>
    4184:	3404      	adds	r4, #4
    4186:	0162      	lsls	r2, r4, #5
    4188:	d412      	bmi.n	41b0 <__aeabi_ui2f+0x74>
    418a:	01a4      	lsls	r4, r4, #6
    418c:	0a64      	lsrs	r4, r4, #9
    418e:	b2db      	uxtb	r3, r3
    4190:	e7e3      	b.n	415a <__aeabi_ui2f+0x1e>
    4192:	2300      	movs	r3, #0
    4194:	2400      	movs	r4, #0
    4196:	e7e0      	b.n	415a <__aeabi_ui2f+0x1e>
    4198:	22b9      	movs	r2, #185	; 0xb9
    419a:	0021      	movs	r1, r4
    419c:	1ad2      	subs	r2, r2, r3
    419e:	4091      	lsls	r1, r2
    41a0:	000a      	movs	r2, r1
    41a2:	1e51      	subs	r1, r2, #1
    41a4:	418a      	sbcs	r2, r1
    41a6:	2105      	movs	r1, #5
    41a8:	1a09      	subs	r1, r1, r0
    41aa:	40cc      	lsrs	r4, r1
    41ac:	4314      	orrs	r4, r2
    41ae:	e7db      	b.n	4168 <__aeabi_ui2f+0x2c>
    41b0:	4b04      	ldr	r3, [pc, #16]	; (41c4 <__aeabi_ui2f+0x88>)
    41b2:	401c      	ands	r4, r3
    41b4:	239f      	movs	r3, #159	; 0x9f
    41b6:	01a4      	lsls	r4, r4, #6
    41b8:	1a1b      	subs	r3, r3, r0
    41ba:	0a64      	lsrs	r4, r4, #9
    41bc:	b2db      	uxtb	r3, r3
    41be:	e7cc      	b.n	415a <__aeabi_ui2f+0x1e>
    41c0:	0022      	movs	r2, r4
    41c2:	e7d7      	b.n	4174 <__aeabi_ui2f+0x38>
    41c4:	fbffffff 	.word	0xfbffffff

000041c8 <__aeabi_dadd>:
    41c8:	b5f8      	push	{r3, r4, r5, r6, r7, lr}
    41ca:	4645      	mov	r5, r8
    41cc:	46de      	mov	lr, fp
    41ce:	4657      	mov	r7, sl
    41d0:	464e      	mov	r6, r9
    41d2:	030c      	lsls	r4, r1, #12
    41d4:	b5e0      	push	{r5, r6, r7, lr}
    41d6:	004e      	lsls	r6, r1, #1
    41d8:	0fc9      	lsrs	r1, r1, #31
    41da:	4688      	mov	r8, r1
    41dc:	000d      	movs	r5, r1
    41de:	0a61      	lsrs	r1, r4, #9
    41e0:	0f44      	lsrs	r4, r0, #29
    41e2:	430c      	orrs	r4, r1
    41e4:	00c7      	lsls	r7, r0, #3
    41e6:	0319      	lsls	r1, r3, #12
    41e8:	0058      	lsls	r0, r3, #1
    41ea:	0fdb      	lsrs	r3, r3, #31
    41ec:	469b      	mov	fp, r3
    41ee:	0a4b      	lsrs	r3, r1, #9
    41f0:	0f51      	lsrs	r1, r2, #29
    41f2:	430b      	orrs	r3, r1
    41f4:	0d76      	lsrs	r6, r6, #21
    41f6:	0d40      	lsrs	r0, r0, #21
    41f8:	0019      	movs	r1, r3
    41fa:	00d2      	lsls	r2, r2, #3
    41fc:	45d8      	cmp	r8, fp
    41fe:	d100      	bne.n	4202 <__aeabi_dadd+0x3a>
    4200:	e0ae      	b.n	4360 <__aeabi_dadd+0x198>
    4202:	1a35      	subs	r5, r6, r0
    4204:	2d00      	cmp	r5, #0
    4206:	dc00      	bgt.n	420a <__aeabi_dadd+0x42>
    4208:	e0f6      	b.n	43f8 <__aeabi_dadd+0x230>
    420a:	2800      	cmp	r0, #0
    420c:	d10f      	bne.n	422e <__aeabi_dadd+0x66>
    420e:	4313      	orrs	r3, r2
    4210:	d100      	bne.n	4214 <__aeabi_dadd+0x4c>
    4212:	e0db      	b.n	43cc <__aeabi_dadd+0x204>
    4214:	1e6b      	subs	r3, r5, #1
    4216:	2b00      	cmp	r3, #0
    4218:	d000      	beq.n	421c <__aeabi_dadd+0x54>
    421a:	e137      	b.n	448c <__aeabi_dadd+0x2c4>
    421c:	1aba      	subs	r2, r7, r2
    421e:	4297      	cmp	r7, r2
    4220:	41bf      	sbcs	r7, r7
    4222:	1a64      	subs	r4, r4, r1
    4224:	427f      	negs	r7, r7
    4226:	1be4      	subs	r4, r4, r7
    4228:	2601      	movs	r6, #1
    422a:	0017      	movs	r7, r2
    422c:	e024      	b.n	4278 <__aeabi_dadd+0xb0>
    422e:	4bc6      	ldr	r3, [pc, #792]	; (4548 <__aeabi_dadd+0x380>)
    4230:	429e      	cmp	r6, r3
    4232:	d04d      	beq.n	42d0 <__aeabi_dadd+0x108>
    4234:	2380      	movs	r3, #128	; 0x80
    4236:	041b      	lsls	r3, r3, #16
    4238:	4319      	orrs	r1, r3
    423a:	2d38      	cmp	r5, #56	; 0x38
    423c:	dd00      	ble.n	4240 <__aeabi_dadd+0x78>
    423e:	e107      	b.n	4450 <__aeabi_dadd+0x288>
    4240:	2d1f      	cmp	r5, #31
    4242:	dd00      	ble.n	4246 <__aeabi_dadd+0x7e>
    4244:	e138      	b.n	44b8 <__aeabi_dadd+0x2f0>
    4246:	2020      	movs	r0, #32
    4248:	1b43      	subs	r3, r0, r5
    424a:	469a      	mov	sl, r3
    424c:	000b      	movs	r3, r1
    424e:	4650      	mov	r0, sl
    4250:	4083      	lsls	r3, r0
    4252:	4699      	mov	r9, r3
    4254:	0013      	movs	r3, r2
    4256:	4648      	mov	r0, r9
    4258:	40eb      	lsrs	r3, r5
    425a:	4318      	orrs	r0, r3
    425c:	0003      	movs	r3, r0
    425e:	4650      	mov	r0, sl
    4260:	4082      	lsls	r2, r0
    4262:	1e50      	subs	r0, r2, #1
    4264:	4182      	sbcs	r2, r0
    4266:	40e9      	lsrs	r1, r5
    4268:	431a      	orrs	r2, r3
    426a:	1aba      	subs	r2, r7, r2
    426c:	1a61      	subs	r1, r4, r1
    426e:	4297      	cmp	r7, r2
    4270:	41a4      	sbcs	r4, r4
    4272:	0017      	movs	r7, r2
    4274:	4264      	negs	r4, r4
    4276:	1b0c      	subs	r4, r1, r4
    4278:	0223      	lsls	r3, r4, #8
    427a:	d562      	bpl.n	4342 <__aeabi_dadd+0x17a>
    427c:	0264      	lsls	r4, r4, #9
    427e:	0a65      	lsrs	r5, r4, #9
    4280:	2d00      	cmp	r5, #0
    4282:	d100      	bne.n	4286 <__aeabi_dadd+0xbe>
    4284:	e0df      	b.n	4446 <__aeabi_dadd+0x27e>
    4286:	0028      	movs	r0, r5
    4288:	f000 fea0 	bl	4fcc <__clzsi2>
    428c:	0003      	movs	r3, r0
    428e:	3b08      	subs	r3, #8
    4290:	2b1f      	cmp	r3, #31
    4292:	dd00      	ble.n	4296 <__aeabi_dadd+0xce>
    4294:	e0d2      	b.n	443c <__aeabi_dadd+0x274>
    4296:	2220      	movs	r2, #32
    4298:	003c      	movs	r4, r7
    429a:	1ad2      	subs	r2, r2, r3
    429c:	409d      	lsls	r5, r3
    429e:	40d4      	lsrs	r4, r2
    42a0:	409f      	lsls	r7, r3
    42a2:	4325      	orrs	r5, r4
    42a4:	429e      	cmp	r6, r3
    42a6:	dd00      	ble.n	42aa <__aeabi_dadd+0xe2>
    42a8:	e0c4      	b.n	4434 <__aeabi_dadd+0x26c>
    42aa:	1b9e      	subs	r6, r3, r6
    42ac:	1c73      	adds	r3, r6, #1
    42ae:	2b1f      	cmp	r3, #31
    42b0:	dd00      	ble.n	42b4 <__aeabi_dadd+0xec>
    42b2:	e0f1      	b.n	4498 <__aeabi_dadd+0x2d0>
    42b4:	2220      	movs	r2, #32
    42b6:	0038      	movs	r0, r7
    42b8:	0029      	movs	r1, r5
    42ba:	1ad2      	subs	r2, r2, r3
    42bc:	40d8      	lsrs	r0, r3
    42be:	4091      	lsls	r1, r2
    42c0:	4097      	lsls	r7, r2
    42c2:	002c      	movs	r4, r5
    42c4:	4301      	orrs	r1, r0
    42c6:	1e78      	subs	r0, r7, #1
    42c8:	4187      	sbcs	r7, r0
    42ca:	40dc      	lsrs	r4, r3
    42cc:	2600      	movs	r6, #0
    42ce:	430f      	orrs	r7, r1
    42d0:	077b      	lsls	r3, r7, #29
    42d2:	d009      	beq.n	42e8 <__aeabi_dadd+0x120>
    42d4:	230f      	movs	r3, #15
    42d6:	403b      	ands	r3, r7
    42d8:	2b04      	cmp	r3, #4
    42da:	d005      	beq.n	42e8 <__aeabi_dadd+0x120>
    42dc:	1d3b      	adds	r3, r7, #4
    42de:	42bb      	cmp	r3, r7
    42e0:	41bf      	sbcs	r7, r7
    42e2:	427f      	negs	r7, r7
    42e4:	19e4      	adds	r4, r4, r7
    42e6:	001f      	movs	r7, r3
    42e8:	0223      	lsls	r3, r4, #8
    42ea:	d52c      	bpl.n	4346 <__aeabi_dadd+0x17e>
    42ec:	4b96      	ldr	r3, [pc, #600]	; (4548 <__aeabi_dadd+0x380>)
    42ee:	3601      	adds	r6, #1
    42f0:	429e      	cmp	r6, r3
    42f2:	d100      	bne.n	42f6 <__aeabi_dadd+0x12e>
    42f4:	e09a      	b.n	442c <__aeabi_dadd+0x264>
    42f6:	4645      	mov	r5, r8
    42f8:	4b94      	ldr	r3, [pc, #592]	; (454c <__aeabi_dadd+0x384>)
    42fa:	08ff      	lsrs	r7, r7, #3
    42fc:	401c      	ands	r4, r3
    42fe:	0760      	lsls	r0, r4, #29
    4300:	0576      	lsls	r6, r6, #21
    4302:	0264      	lsls	r4, r4, #9
    4304:	4307      	orrs	r7, r0
    4306:	0b24      	lsrs	r4, r4, #12
    4308:	0d76      	lsrs	r6, r6, #21
    430a:	2100      	movs	r1, #0
    430c:	0324      	lsls	r4, r4, #12
    430e:	0b23      	lsrs	r3, r4, #12
    4310:	0d0c      	lsrs	r4, r1, #20
    4312:	4a8f      	ldr	r2, [pc, #572]	; (4550 <__aeabi_dadd+0x388>)
    4314:	0524      	lsls	r4, r4, #20
    4316:	431c      	orrs	r4, r3
    4318:	4014      	ands	r4, r2
    431a:	0533      	lsls	r3, r6, #20
    431c:	4323      	orrs	r3, r4
    431e:	005b      	lsls	r3, r3, #1
    4320:	07ed      	lsls	r5, r5, #31
    4322:	085b      	lsrs	r3, r3, #1
    4324:	432b      	orrs	r3, r5
    4326:	0038      	movs	r0, r7
    4328:	0019      	movs	r1, r3
    432a:	bc3c      	pop	{r2, r3, r4, r5}
    432c:	4690      	mov	r8, r2
    432e:	4699      	mov	r9, r3
    4330:	46a2      	mov	sl, r4
    4332:	46ab      	mov	fp, r5
    4334:	bdf8      	pop	{r3, r4, r5, r6, r7, pc}
    4336:	4664      	mov	r4, ip
    4338:	4304      	orrs	r4, r0
    433a:	d100      	bne.n	433e <__aeabi_dadd+0x176>
    433c:	e211      	b.n	4762 <__aeabi_dadd+0x59a>
    433e:	0004      	movs	r4, r0
    4340:	4667      	mov	r7, ip
    4342:	077b      	lsls	r3, r7, #29
    4344:	d1c6      	bne.n	42d4 <__aeabi_dadd+0x10c>
    4346:	4645      	mov	r5, r8
    4348:	0760      	lsls	r0, r4, #29
    434a:	08ff      	lsrs	r7, r7, #3
    434c:	4307      	orrs	r7, r0
    434e:	08e4      	lsrs	r4, r4, #3
    4350:	4b7d      	ldr	r3, [pc, #500]	; (4548 <__aeabi_dadd+0x380>)
    4352:	429e      	cmp	r6, r3
    4354:	d030      	beq.n	43b8 <__aeabi_dadd+0x1f0>
    4356:	0324      	lsls	r4, r4, #12
    4358:	0576      	lsls	r6, r6, #21
    435a:	0b24      	lsrs	r4, r4, #12
    435c:	0d76      	lsrs	r6, r6, #21
    435e:	e7d4      	b.n	430a <__aeabi_dadd+0x142>
    4360:	1a33      	subs	r3, r6, r0
    4362:	469a      	mov	sl, r3
    4364:	2b00      	cmp	r3, #0
    4366:	dd78      	ble.n	445a <__aeabi_dadd+0x292>
    4368:	2800      	cmp	r0, #0
    436a:	d031      	beq.n	43d0 <__aeabi_dadd+0x208>
    436c:	4876      	ldr	r0, [pc, #472]	; (4548 <__aeabi_dadd+0x380>)
    436e:	4286      	cmp	r6, r0
    4370:	d0ae      	beq.n	42d0 <__aeabi_dadd+0x108>
    4372:	2080      	movs	r0, #128	; 0x80
    4374:	0400      	lsls	r0, r0, #16
    4376:	4301      	orrs	r1, r0
    4378:	4653      	mov	r3, sl
    437a:	2b38      	cmp	r3, #56	; 0x38
    437c:	dc00      	bgt.n	4380 <__aeabi_dadd+0x1b8>
    437e:	e0e9      	b.n	4554 <__aeabi_dadd+0x38c>
    4380:	430a      	orrs	r2, r1
    4382:	1e51      	subs	r1, r2, #1
    4384:	418a      	sbcs	r2, r1
    4386:	2100      	movs	r1, #0
    4388:	19d2      	adds	r2, r2, r7
    438a:	42ba      	cmp	r2, r7
    438c:	41bf      	sbcs	r7, r7
    438e:	1909      	adds	r1, r1, r4
    4390:	427c      	negs	r4, r7
    4392:	0017      	movs	r7, r2
    4394:	190c      	adds	r4, r1, r4
    4396:	0223      	lsls	r3, r4, #8
    4398:	d5d3      	bpl.n	4342 <__aeabi_dadd+0x17a>
    439a:	4b6b      	ldr	r3, [pc, #428]	; (4548 <__aeabi_dadd+0x380>)
    439c:	3601      	adds	r6, #1
    439e:	429e      	cmp	r6, r3
    43a0:	d100      	bne.n	43a4 <__aeabi_dadd+0x1dc>
    43a2:	e13a      	b.n	461a <__aeabi_dadd+0x452>
    43a4:	2001      	movs	r0, #1
    43a6:	4b69      	ldr	r3, [pc, #420]	; (454c <__aeabi_dadd+0x384>)
    43a8:	401c      	ands	r4, r3
    43aa:	087b      	lsrs	r3, r7, #1
    43ac:	4007      	ands	r7, r0
    43ae:	431f      	orrs	r7, r3
    43b0:	07e0      	lsls	r0, r4, #31
    43b2:	4307      	orrs	r7, r0
    43b4:	0864      	lsrs	r4, r4, #1
    43b6:	e78b      	b.n	42d0 <__aeabi_dadd+0x108>
    43b8:	0023      	movs	r3, r4
    43ba:	433b      	orrs	r3, r7
    43bc:	d100      	bne.n	43c0 <__aeabi_dadd+0x1f8>
    43be:	e1cb      	b.n	4758 <__aeabi_dadd+0x590>
    43c0:	2280      	movs	r2, #128	; 0x80
    43c2:	0312      	lsls	r2, r2, #12
    43c4:	4314      	orrs	r4, r2
    43c6:	0324      	lsls	r4, r4, #12
    43c8:	0b24      	lsrs	r4, r4, #12
    43ca:	e79e      	b.n	430a <__aeabi_dadd+0x142>
    43cc:	002e      	movs	r6, r5
    43ce:	e77f      	b.n	42d0 <__aeabi_dadd+0x108>
    43d0:	0008      	movs	r0, r1
    43d2:	4310      	orrs	r0, r2
    43d4:	d100      	bne.n	43d8 <__aeabi_dadd+0x210>
    43d6:	e0b4      	b.n	4542 <__aeabi_dadd+0x37a>
    43d8:	1e58      	subs	r0, r3, #1
    43da:	2800      	cmp	r0, #0
    43dc:	d000      	beq.n	43e0 <__aeabi_dadd+0x218>
    43de:	e0de      	b.n	459e <__aeabi_dadd+0x3d6>
    43e0:	18ba      	adds	r2, r7, r2
    43e2:	42ba      	cmp	r2, r7
    43e4:	419b      	sbcs	r3, r3
    43e6:	1864      	adds	r4, r4, r1
    43e8:	425b      	negs	r3, r3
    43ea:	18e4      	adds	r4, r4, r3
    43ec:	0017      	movs	r7, r2
    43ee:	2601      	movs	r6, #1
    43f0:	0223      	lsls	r3, r4, #8
    43f2:	d5a6      	bpl.n	4342 <__aeabi_dadd+0x17a>
    43f4:	2602      	movs	r6, #2
    43f6:	e7d5      	b.n	43a4 <__aeabi_dadd+0x1dc>
    43f8:	2d00      	cmp	r5, #0
    43fa:	d16e      	bne.n	44da <__aeabi_dadd+0x312>
    43fc:	1c70      	adds	r0, r6, #1
    43fe:	0540      	lsls	r0, r0, #21
    4400:	0d40      	lsrs	r0, r0, #21
    4402:	2801      	cmp	r0, #1
    4404:	dc00      	bgt.n	4408 <__aeabi_dadd+0x240>
    4406:	e0f9      	b.n	45fc <__aeabi_dadd+0x434>
    4408:	1ab8      	subs	r0, r7, r2
    440a:	4684      	mov	ip, r0
    440c:	4287      	cmp	r7, r0
    440e:	4180      	sbcs	r0, r0
    4410:	1ae5      	subs	r5, r4, r3
    4412:	4240      	negs	r0, r0
    4414:	1a2d      	subs	r5, r5, r0
    4416:	0228      	lsls	r0, r5, #8
    4418:	d400      	bmi.n	441c <__aeabi_dadd+0x254>
    441a:	e089      	b.n	4530 <__aeabi_dadd+0x368>
    441c:	1bd7      	subs	r7, r2, r7
    441e:	42ba      	cmp	r2, r7
    4420:	4192      	sbcs	r2, r2
    4422:	1b1c      	subs	r4, r3, r4
    4424:	4252      	negs	r2, r2
    4426:	1aa5      	subs	r5, r4, r2
    4428:	46d8      	mov	r8, fp
    442a:	e729      	b.n	4280 <__aeabi_dadd+0xb8>
    442c:	4645      	mov	r5, r8
    442e:	2400      	movs	r4, #0
    4430:	2700      	movs	r7, #0
    4432:	e76a      	b.n	430a <__aeabi_dadd+0x142>
    4434:	4c45      	ldr	r4, [pc, #276]	; (454c <__aeabi_dadd+0x384>)
    4436:	1af6      	subs	r6, r6, r3
    4438:	402c      	ands	r4, r5
    443a:	e749      	b.n	42d0 <__aeabi_dadd+0x108>
    443c:	003d      	movs	r5, r7
    443e:	3828      	subs	r0, #40	; 0x28
    4440:	4085      	lsls	r5, r0
    4442:	2700      	movs	r7, #0
    4444:	e72e      	b.n	42a4 <__aeabi_dadd+0xdc>
    4446:	0038      	movs	r0, r7
    4448:	f000 fdc0 	bl	4fcc <__clzsi2>
    444c:	3020      	adds	r0, #32
    444e:	e71d      	b.n	428c <__aeabi_dadd+0xc4>
    4450:	430a      	orrs	r2, r1
    4452:	1e51      	subs	r1, r2, #1
    4454:	418a      	sbcs	r2, r1
    4456:	2100      	movs	r1, #0
    4458:	e707      	b.n	426a <__aeabi_dadd+0xa2>
    445a:	2b00      	cmp	r3, #0
    445c:	d000      	beq.n	4460 <__aeabi_dadd+0x298>
    445e:	e0f3      	b.n	4648 <__aeabi_dadd+0x480>
    4460:	1c70      	adds	r0, r6, #1
    4462:	0543      	lsls	r3, r0, #21
    4464:	0d5b      	lsrs	r3, r3, #21
    4466:	2b01      	cmp	r3, #1
    4468:	dc00      	bgt.n	446c <__aeabi_dadd+0x2a4>
    446a:	e0ad      	b.n	45c8 <__aeabi_dadd+0x400>
    446c:	4b36      	ldr	r3, [pc, #216]	; (4548 <__aeabi_dadd+0x380>)
    446e:	4298      	cmp	r0, r3
    4470:	d100      	bne.n	4474 <__aeabi_dadd+0x2ac>
    4472:	e0d1      	b.n	4618 <__aeabi_dadd+0x450>
    4474:	18ba      	adds	r2, r7, r2
    4476:	42ba      	cmp	r2, r7
    4478:	41bf      	sbcs	r7, r7
    447a:	1864      	adds	r4, r4, r1
    447c:	427f      	negs	r7, r7
    447e:	19e4      	adds	r4, r4, r7
    4480:	07e7      	lsls	r7, r4, #31
    4482:	0852      	lsrs	r2, r2, #1
    4484:	4317      	orrs	r7, r2
    4486:	0864      	lsrs	r4, r4, #1
    4488:	0006      	movs	r6, r0
    448a:	e721      	b.n	42d0 <__aeabi_dadd+0x108>
    448c:	482e      	ldr	r0, [pc, #184]	; (4548 <__aeabi_dadd+0x380>)
    448e:	4285      	cmp	r5, r0
    4490:	d100      	bne.n	4494 <__aeabi_dadd+0x2cc>
    4492:	e093      	b.n	45bc <__aeabi_dadd+0x3f4>
    4494:	001d      	movs	r5, r3
    4496:	e6d0      	b.n	423a <__aeabi_dadd+0x72>
    4498:	0029      	movs	r1, r5
    449a:	3e1f      	subs	r6, #31
    449c:	40f1      	lsrs	r1, r6
    449e:	2b20      	cmp	r3, #32
    44a0:	d100      	bne.n	44a4 <__aeabi_dadd+0x2dc>
    44a2:	e08d      	b.n	45c0 <__aeabi_dadd+0x3f8>
    44a4:	2240      	movs	r2, #64	; 0x40
    44a6:	1ad3      	subs	r3, r2, r3
    44a8:	409d      	lsls	r5, r3
    44aa:	432f      	orrs	r7, r5
    44ac:	1e7d      	subs	r5, r7, #1
    44ae:	41af      	sbcs	r7, r5
    44b0:	2400      	movs	r4, #0
    44b2:	430f      	orrs	r7, r1
    44b4:	2600      	movs	r6, #0
    44b6:	e744      	b.n	4342 <__aeabi_dadd+0x17a>
    44b8:	002b      	movs	r3, r5
    44ba:	0008      	movs	r0, r1
    44bc:	3b20      	subs	r3, #32
    44be:	40d8      	lsrs	r0, r3
    44c0:	0003      	movs	r3, r0
    44c2:	2d20      	cmp	r5, #32
    44c4:	d100      	bne.n	44c8 <__aeabi_dadd+0x300>
    44c6:	e07d      	b.n	45c4 <__aeabi_dadd+0x3fc>
    44c8:	2040      	movs	r0, #64	; 0x40
    44ca:	1b45      	subs	r5, r0, r5
    44cc:	40a9      	lsls	r1, r5
    44ce:	430a      	orrs	r2, r1
    44d0:	1e51      	subs	r1, r2, #1
    44d2:	418a      	sbcs	r2, r1
    44d4:	2100      	movs	r1, #0
    44d6:	431a      	orrs	r2, r3
    44d8:	e6c7      	b.n	426a <__aeabi_dadd+0xa2>
    44da:	2e00      	cmp	r6, #0
    44dc:	d050      	beq.n	4580 <__aeabi_dadd+0x3b8>
    44de:	4e1a      	ldr	r6, [pc, #104]	; (4548 <__aeabi_dadd+0x380>)
    44e0:	42b0      	cmp	r0, r6
    44e2:	d057      	beq.n	4594 <__aeabi_dadd+0x3cc>
    44e4:	2680      	movs	r6, #128	; 0x80
    44e6:	426b      	negs	r3, r5
    44e8:	4699      	mov	r9, r3
    44ea:	0436      	lsls	r6, r6, #16
    44ec:	4334      	orrs	r4, r6
    44ee:	464b      	mov	r3, r9
    44f0:	2b38      	cmp	r3, #56	; 0x38
    44f2:	dd00      	ble.n	44f6 <__aeabi_dadd+0x32e>
    44f4:	e0d6      	b.n	46a4 <__aeabi_dadd+0x4dc>
    44f6:	2b1f      	cmp	r3, #31
    44f8:	dd00      	ble.n	44fc <__aeabi_dadd+0x334>
    44fa:	e135      	b.n	4768 <__aeabi_dadd+0x5a0>
    44fc:	2620      	movs	r6, #32
    44fe:	1af5      	subs	r5, r6, r3
    4500:	0026      	movs	r6, r4
    4502:	40ae      	lsls	r6, r5
    4504:	46b2      	mov	sl, r6
    4506:	003e      	movs	r6, r7
    4508:	40de      	lsrs	r6, r3
    450a:	46ac      	mov	ip, r5
    450c:	0035      	movs	r5, r6
    450e:	4656      	mov	r6, sl
    4510:	432e      	orrs	r6, r5
    4512:	4665      	mov	r5, ip
    4514:	40af      	lsls	r7, r5
    4516:	1e7d      	subs	r5, r7, #1
    4518:	41af      	sbcs	r7, r5
    451a:	40dc      	lsrs	r4, r3
    451c:	4337      	orrs	r7, r6
    451e:	1bd7      	subs	r7, r2, r7
    4520:	42ba      	cmp	r2, r7
    4522:	4192      	sbcs	r2, r2
    4524:	1b0c      	subs	r4, r1, r4
    4526:	4252      	negs	r2, r2
    4528:	1aa4      	subs	r4, r4, r2
    452a:	0006      	movs	r6, r0
    452c:	46d8      	mov	r8, fp
    452e:	e6a3      	b.n	4278 <__aeabi_dadd+0xb0>
    4530:	4664      	mov	r4, ip
    4532:	4667      	mov	r7, ip
    4534:	432c      	orrs	r4, r5
    4536:	d000      	beq.n	453a <__aeabi_dadd+0x372>
    4538:	e6a2      	b.n	4280 <__aeabi_dadd+0xb8>
    453a:	2500      	movs	r5, #0
    453c:	2600      	movs	r6, #0
    453e:	2700      	movs	r7, #0
    4540:	e706      	b.n	4350 <__aeabi_dadd+0x188>
    4542:	001e      	movs	r6, r3
    4544:	e6c4      	b.n	42d0 <__aeabi_dadd+0x108>
    4546:	46c0      	nop			; (mov r8, r8)
    4548:	000007ff 	.word	0x000007ff
    454c:	ff7fffff 	.word	0xff7fffff
    4550:	800fffff 	.word	0x800fffff
    4554:	2b1f      	cmp	r3, #31
    4556:	dc63      	bgt.n	4620 <__aeabi_dadd+0x458>
    4558:	2020      	movs	r0, #32
    455a:	1ac3      	subs	r3, r0, r3
    455c:	0008      	movs	r0, r1
    455e:	4098      	lsls	r0, r3
    4560:	469c      	mov	ip, r3
    4562:	4683      	mov	fp, r0
    4564:	4653      	mov	r3, sl
    4566:	0010      	movs	r0, r2
    4568:	40d8      	lsrs	r0, r3
    456a:	0003      	movs	r3, r0
    456c:	4658      	mov	r0, fp
    456e:	4318      	orrs	r0, r3
    4570:	4663      	mov	r3, ip
    4572:	409a      	lsls	r2, r3
    4574:	1e53      	subs	r3, r2, #1
    4576:	419a      	sbcs	r2, r3
    4578:	4653      	mov	r3, sl
    457a:	4302      	orrs	r2, r0
    457c:	40d9      	lsrs	r1, r3
    457e:	e703      	b.n	4388 <__aeabi_dadd+0x1c0>
    4580:	0026      	movs	r6, r4
    4582:	433e      	orrs	r6, r7
    4584:	d006      	beq.n	4594 <__aeabi_dadd+0x3cc>
    4586:	43eb      	mvns	r3, r5
    4588:	4699      	mov	r9, r3
    458a:	2b00      	cmp	r3, #0
    458c:	d0c7      	beq.n	451e <__aeabi_dadd+0x356>
    458e:	4e94      	ldr	r6, [pc, #592]	; (47e0 <__aeabi_dadd+0x618>)
    4590:	42b0      	cmp	r0, r6
    4592:	d1ac      	bne.n	44ee <__aeabi_dadd+0x326>
    4594:	000c      	movs	r4, r1
    4596:	0017      	movs	r7, r2
    4598:	0006      	movs	r6, r0
    459a:	46d8      	mov	r8, fp
    459c:	e698      	b.n	42d0 <__aeabi_dadd+0x108>
    459e:	4b90      	ldr	r3, [pc, #576]	; (47e0 <__aeabi_dadd+0x618>)
    45a0:	459a      	cmp	sl, r3
    45a2:	d00b      	beq.n	45bc <__aeabi_dadd+0x3f4>
    45a4:	4682      	mov	sl, r0
    45a6:	e6e7      	b.n	4378 <__aeabi_dadd+0x1b0>
    45a8:	2800      	cmp	r0, #0
    45aa:	d000      	beq.n	45ae <__aeabi_dadd+0x3e6>
    45ac:	e09e      	b.n	46ec <__aeabi_dadd+0x524>
    45ae:	0018      	movs	r0, r3
    45b0:	4310      	orrs	r0, r2
    45b2:	d100      	bne.n	45b6 <__aeabi_dadd+0x3ee>
    45b4:	e0e9      	b.n	478a <__aeabi_dadd+0x5c2>
    45b6:	001c      	movs	r4, r3
    45b8:	0017      	movs	r7, r2
    45ba:	46d8      	mov	r8, fp
    45bc:	4e88      	ldr	r6, [pc, #544]	; (47e0 <__aeabi_dadd+0x618>)
    45be:	e687      	b.n	42d0 <__aeabi_dadd+0x108>
    45c0:	2500      	movs	r5, #0
    45c2:	e772      	b.n	44aa <__aeabi_dadd+0x2e2>
    45c4:	2100      	movs	r1, #0
    45c6:	e782      	b.n	44ce <__aeabi_dadd+0x306>
    45c8:	0023      	movs	r3, r4
    45ca:	433b      	orrs	r3, r7
    45cc:	2e00      	cmp	r6, #0
    45ce:	d000      	beq.n	45d2 <__aeabi_dadd+0x40a>
    45d0:	e0ab      	b.n	472a <__aeabi_dadd+0x562>
    45d2:	2b00      	cmp	r3, #0
    45d4:	d100      	bne.n	45d8 <__aeabi_dadd+0x410>
    45d6:	e0e7      	b.n	47a8 <__aeabi_dadd+0x5e0>
    45d8:	000b      	movs	r3, r1
    45da:	4313      	orrs	r3, r2
    45dc:	d100      	bne.n	45e0 <__aeabi_dadd+0x418>
    45de:	e677      	b.n	42d0 <__aeabi_dadd+0x108>
    45e0:	18ba      	adds	r2, r7, r2
    45e2:	42ba      	cmp	r2, r7
    45e4:	41bf      	sbcs	r7, r7
    45e6:	1864      	adds	r4, r4, r1
    45e8:	427f      	negs	r7, r7
    45ea:	19e4      	adds	r4, r4, r7
    45ec:	0223      	lsls	r3, r4, #8
    45ee:	d400      	bmi.n	45f2 <__aeabi_dadd+0x42a>
    45f0:	e0f2      	b.n	47d8 <__aeabi_dadd+0x610>
    45f2:	4b7c      	ldr	r3, [pc, #496]	; (47e4 <__aeabi_dadd+0x61c>)
    45f4:	0017      	movs	r7, r2
    45f6:	401c      	ands	r4, r3
    45f8:	0006      	movs	r6, r0
    45fa:	e669      	b.n	42d0 <__aeabi_dadd+0x108>
    45fc:	0020      	movs	r0, r4
    45fe:	4338      	orrs	r0, r7
    4600:	2e00      	cmp	r6, #0
    4602:	d1d1      	bne.n	45a8 <__aeabi_dadd+0x3e0>
    4604:	2800      	cmp	r0, #0
    4606:	d15b      	bne.n	46c0 <__aeabi_dadd+0x4f8>
    4608:	001c      	movs	r4, r3
    460a:	4314      	orrs	r4, r2
    460c:	d100      	bne.n	4610 <__aeabi_dadd+0x448>
    460e:	e0a8      	b.n	4762 <__aeabi_dadd+0x59a>
    4610:	001c      	movs	r4, r3
    4612:	0017      	movs	r7, r2
    4614:	46d8      	mov	r8, fp
    4616:	e65b      	b.n	42d0 <__aeabi_dadd+0x108>
    4618:	0006      	movs	r6, r0
    461a:	2400      	movs	r4, #0
    461c:	2700      	movs	r7, #0
    461e:	e697      	b.n	4350 <__aeabi_dadd+0x188>
    4620:	4650      	mov	r0, sl
    4622:	000b      	movs	r3, r1
    4624:	3820      	subs	r0, #32
    4626:	40c3      	lsrs	r3, r0
    4628:	4699      	mov	r9, r3
    462a:	4653      	mov	r3, sl
    462c:	2b20      	cmp	r3, #32
    462e:	d100      	bne.n	4632 <__aeabi_dadd+0x46a>
    4630:	e095      	b.n	475e <__aeabi_dadd+0x596>
    4632:	2340      	movs	r3, #64	; 0x40
    4634:	4650      	mov	r0, sl
    4636:	1a1b      	subs	r3, r3, r0
    4638:	4099      	lsls	r1, r3
    463a:	430a      	orrs	r2, r1
    463c:	1e51      	subs	r1, r2, #1
    463e:	418a      	sbcs	r2, r1
    4640:	464b      	mov	r3, r9
    4642:	2100      	movs	r1, #0
    4644:	431a      	orrs	r2, r3
    4646:	e69f      	b.n	4388 <__aeabi_dadd+0x1c0>
    4648:	2e00      	cmp	r6, #0
    464a:	d130      	bne.n	46ae <__aeabi_dadd+0x4e6>
    464c:	0026      	movs	r6, r4
    464e:	433e      	orrs	r6, r7
    4650:	d067      	beq.n	4722 <__aeabi_dadd+0x55a>
    4652:	43db      	mvns	r3, r3
    4654:	469a      	mov	sl, r3
    4656:	2b00      	cmp	r3, #0
    4658:	d01c      	beq.n	4694 <__aeabi_dadd+0x4cc>
    465a:	4e61      	ldr	r6, [pc, #388]	; (47e0 <__aeabi_dadd+0x618>)
    465c:	42b0      	cmp	r0, r6
    465e:	d060      	beq.n	4722 <__aeabi_dadd+0x55a>
    4660:	4653      	mov	r3, sl
    4662:	2b38      	cmp	r3, #56	; 0x38
    4664:	dd00      	ble.n	4668 <__aeabi_dadd+0x4a0>
    4666:	e096      	b.n	4796 <__aeabi_dadd+0x5ce>
    4668:	2b1f      	cmp	r3, #31
    466a:	dd00      	ble.n	466e <__aeabi_dadd+0x4a6>
    466c:	e09f      	b.n	47ae <__aeabi_dadd+0x5e6>
    466e:	2620      	movs	r6, #32
    4670:	1af3      	subs	r3, r6, r3
    4672:	0026      	movs	r6, r4
    4674:	409e      	lsls	r6, r3
    4676:	469c      	mov	ip, r3
    4678:	46b3      	mov	fp, r6
    467a:	4653      	mov	r3, sl
    467c:	003e      	movs	r6, r7
    467e:	40de      	lsrs	r6, r3
    4680:	0033      	movs	r3, r6
    4682:	465e      	mov	r6, fp
    4684:	431e      	orrs	r6, r3
    4686:	4663      	mov	r3, ip
    4688:	409f      	lsls	r7, r3
    468a:	1e7b      	subs	r3, r7, #1
    468c:	419f      	sbcs	r7, r3
    468e:	4653      	mov	r3, sl
    4690:	40dc      	lsrs	r4, r3
    4692:	4337      	orrs	r7, r6
    4694:	18bf      	adds	r7, r7, r2
    4696:	4297      	cmp	r7, r2
    4698:	4192      	sbcs	r2, r2
    469a:	1864      	adds	r4, r4, r1
    469c:	4252      	negs	r2, r2
    469e:	18a4      	adds	r4, r4, r2
    46a0:	0006      	movs	r6, r0
    46a2:	e678      	b.n	4396 <__aeabi_dadd+0x1ce>
    46a4:	4327      	orrs	r7, r4
    46a6:	1e7c      	subs	r4, r7, #1
    46a8:	41a7      	sbcs	r7, r4
    46aa:	2400      	movs	r4, #0
    46ac:	e737      	b.n	451e <__aeabi_dadd+0x356>
    46ae:	4e4c      	ldr	r6, [pc, #304]	; (47e0 <__aeabi_dadd+0x618>)
    46b0:	42b0      	cmp	r0, r6
    46b2:	d036      	beq.n	4722 <__aeabi_dadd+0x55a>
    46b4:	2680      	movs	r6, #128	; 0x80
    46b6:	425b      	negs	r3, r3
    46b8:	0436      	lsls	r6, r6, #16
    46ba:	469a      	mov	sl, r3
    46bc:	4334      	orrs	r4, r6
    46be:	e7cf      	b.n	4660 <__aeabi_dadd+0x498>
    46c0:	0018      	movs	r0, r3
    46c2:	4310      	orrs	r0, r2
    46c4:	d100      	bne.n	46c8 <__aeabi_dadd+0x500>
    46c6:	e603      	b.n	42d0 <__aeabi_dadd+0x108>
    46c8:	1ab8      	subs	r0, r7, r2
    46ca:	4684      	mov	ip, r0
    46cc:	4567      	cmp	r7, ip
    46ce:	41ad      	sbcs	r5, r5
    46d0:	1ae0      	subs	r0, r4, r3
    46d2:	426d      	negs	r5, r5
    46d4:	1b40      	subs	r0, r0, r5
    46d6:	0205      	lsls	r5, r0, #8
    46d8:	d400      	bmi.n	46dc <__aeabi_dadd+0x514>
    46da:	e62c      	b.n	4336 <__aeabi_dadd+0x16e>
    46dc:	1bd7      	subs	r7, r2, r7
    46de:	42ba      	cmp	r2, r7
    46e0:	4192      	sbcs	r2, r2
    46e2:	1b1c      	subs	r4, r3, r4
    46e4:	4252      	negs	r2, r2
    46e6:	1aa4      	subs	r4, r4, r2
    46e8:	46d8      	mov	r8, fp
    46ea:	e5f1      	b.n	42d0 <__aeabi_dadd+0x108>
    46ec:	0018      	movs	r0, r3
    46ee:	4310      	orrs	r0, r2
    46f0:	d100      	bne.n	46f4 <__aeabi_dadd+0x52c>
    46f2:	e763      	b.n	45bc <__aeabi_dadd+0x3f4>
    46f4:	08f8      	lsrs	r0, r7, #3
    46f6:	0767      	lsls	r7, r4, #29
    46f8:	4307      	orrs	r7, r0
    46fa:	2080      	movs	r0, #128	; 0x80
    46fc:	08e4      	lsrs	r4, r4, #3
    46fe:	0300      	lsls	r0, r0, #12
    4700:	4204      	tst	r4, r0
    4702:	d008      	beq.n	4716 <__aeabi_dadd+0x54e>
    4704:	08dd      	lsrs	r5, r3, #3
    4706:	4205      	tst	r5, r0
    4708:	d105      	bne.n	4716 <__aeabi_dadd+0x54e>
    470a:	08d2      	lsrs	r2, r2, #3
    470c:	0759      	lsls	r1, r3, #29
    470e:	4311      	orrs	r1, r2
    4710:	000f      	movs	r7, r1
    4712:	002c      	movs	r4, r5
    4714:	46d8      	mov	r8, fp
    4716:	0f7b      	lsrs	r3, r7, #29
    4718:	00e4      	lsls	r4, r4, #3
    471a:	431c      	orrs	r4, r3
    471c:	00ff      	lsls	r7, r7, #3
    471e:	4e30      	ldr	r6, [pc, #192]	; (47e0 <__aeabi_dadd+0x618>)
    4720:	e5d6      	b.n	42d0 <__aeabi_dadd+0x108>
    4722:	000c      	movs	r4, r1
    4724:	0017      	movs	r7, r2
    4726:	0006      	movs	r6, r0
    4728:	e5d2      	b.n	42d0 <__aeabi_dadd+0x108>
    472a:	2b00      	cmp	r3, #0
    472c:	d038      	beq.n	47a0 <__aeabi_dadd+0x5d8>
    472e:	000b      	movs	r3, r1
    4730:	4313      	orrs	r3, r2
    4732:	d100      	bne.n	4736 <__aeabi_dadd+0x56e>
    4734:	e742      	b.n	45bc <__aeabi_dadd+0x3f4>
    4736:	08f8      	lsrs	r0, r7, #3
    4738:	0767      	lsls	r7, r4, #29
    473a:	4307      	orrs	r7, r0
    473c:	2080      	movs	r0, #128	; 0x80
    473e:	08e4      	lsrs	r4, r4, #3
    4740:	0300      	lsls	r0, r0, #12
    4742:	4204      	tst	r4, r0
    4744:	d0e7      	beq.n	4716 <__aeabi_dadd+0x54e>
    4746:	08cb      	lsrs	r3, r1, #3
    4748:	4203      	tst	r3, r0
    474a:	d1e4      	bne.n	4716 <__aeabi_dadd+0x54e>
    474c:	08d2      	lsrs	r2, r2, #3
    474e:	0749      	lsls	r1, r1, #29
    4750:	4311      	orrs	r1, r2
    4752:	000f      	movs	r7, r1
    4754:	001c      	movs	r4, r3
    4756:	e7de      	b.n	4716 <__aeabi_dadd+0x54e>
    4758:	2700      	movs	r7, #0
    475a:	2400      	movs	r4, #0
    475c:	e5d5      	b.n	430a <__aeabi_dadd+0x142>
    475e:	2100      	movs	r1, #0
    4760:	e76b      	b.n	463a <__aeabi_dadd+0x472>
    4762:	2500      	movs	r5, #0
    4764:	2700      	movs	r7, #0
    4766:	e5f3      	b.n	4350 <__aeabi_dadd+0x188>
    4768:	464e      	mov	r6, r9
    476a:	0025      	movs	r5, r4
    476c:	3e20      	subs	r6, #32
    476e:	40f5      	lsrs	r5, r6
    4770:	464b      	mov	r3, r9
    4772:	002e      	movs	r6, r5
    4774:	2b20      	cmp	r3, #32
    4776:	d02d      	beq.n	47d4 <__aeabi_dadd+0x60c>
    4778:	2540      	movs	r5, #64	; 0x40
    477a:	1aed      	subs	r5, r5, r3
    477c:	40ac      	lsls	r4, r5
    477e:	4327      	orrs	r7, r4
    4780:	1e7c      	subs	r4, r7, #1
    4782:	41a7      	sbcs	r7, r4
    4784:	2400      	movs	r4, #0
    4786:	4337      	orrs	r7, r6
    4788:	e6c9      	b.n	451e <__aeabi_dadd+0x356>
    478a:	2480      	movs	r4, #128	; 0x80
    478c:	2500      	movs	r5, #0
    478e:	0324      	lsls	r4, r4, #12
    4790:	4e13      	ldr	r6, [pc, #76]	; (47e0 <__aeabi_dadd+0x618>)
    4792:	2700      	movs	r7, #0
    4794:	e5dc      	b.n	4350 <__aeabi_dadd+0x188>
    4796:	4327      	orrs	r7, r4
    4798:	1e7c      	subs	r4, r7, #1
    479a:	41a7      	sbcs	r7, r4
    479c:	2400      	movs	r4, #0
    479e:	e779      	b.n	4694 <__aeabi_dadd+0x4cc>
    47a0:	000c      	movs	r4, r1
    47a2:	0017      	movs	r7, r2
    47a4:	4e0e      	ldr	r6, [pc, #56]	; (47e0 <__aeabi_dadd+0x618>)
    47a6:	e593      	b.n	42d0 <__aeabi_dadd+0x108>
    47a8:	000c      	movs	r4, r1
    47aa:	0017      	movs	r7, r2
    47ac:	e590      	b.n	42d0 <__aeabi_dadd+0x108>
    47ae:	4656      	mov	r6, sl
    47b0:	0023      	movs	r3, r4
    47b2:	3e20      	subs	r6, #32
    47b4:	40f3      	lsrs	r3, r6
    47b6:	4699      	mov	r9, r3
    47b8:	4653      	mov	r3, sl
    47ba:	2b20      	cmp	r3, #32
    47bc:	d00e      	beq.n	47dc <__aeabi_dadd+0x614>
    47be:	2340      	movs	r3, #64	; 0x40
    47c0:	4656      	mov	r6, sl
    47c2:	1b9b      	subs	r3, r3, r6
    47c4:	409c      	lsls	r4, r3
    47c6:	4327      	orrs	r7, r4
    47c8:	1e7c      	subs	r4, r7, #1
    47ca:	41a7      	sbcs	r7, r4
    47cc:	464b      	mov	r3, r9
    47ce:	2400      	movs	r4, #0
    47d0:	431f      	orrs	r7, r3
    47d2:	e75f      	b.n	4694 <__aeabi_dadd+0x4cc>
    47d4:	2400      	movs	r4, #0
    47d6:	e7d2      	b.n	477e <__aeabi_dadd+0x5b6>
    47d8:	0017      	movs	r7, r2
    47da:	e5b2      	b.n	4342 <__aeabi_dadd+0x17a>
    47dc:	2400      	movs	r4, #0
    47de:	e7f2      	b.n	47c6 <__aeabi_dadd+0x5fe>
    47e0:	000007ff 	.word	0x000007ff
    47e4:	ff7fffff 	.word	0xff7fffff

000047e8 <__aeabi_dsub>:
    47e8:	b5f0      	push	{r4, r5, r6, r7, lr}
    47ea:	4646      	mov	r6, r8
    47ec:	46d6      	mov	lr, sl
    47ee:	464f      	mov	r7, r9
    47f0:	030c      	lsls	r4, r1, #12
    47f2:	b5c0      	push	{r6, r7, lr}
    47f4:	0fcd      	lsrs	r5, r1, #31
    47f6:	004e      	lsls	r6, r1, #1
    47f8:	0a61      	lsrs	r1, r4, #9
    47fa:	0f44      	lsrs	r4, r0, #29
    47fc:	430c      	orrs	r4, r1
    47fe:	00c1      	lsls	r1, r0, #3
    4800:	0058      	lsls	r0, r3, #1
    4802:	0d40      	lsrs	r0, r0, #21
    4804:	4684      	mov	ip, r0
    4806:	468a      	mov	sl, r1
    4808:	000f      	movs	r7, r1
    480a:	0319      	lsls	r1, r3, #12
    480c:	0f50      	lsrs	r0, r2, #29
    480e:	0a49      	lsrs	r1, r1, #9
    4810:	4301      	orrs	r1, r0
    4812:	48c6      	ldr	r0, [pc, #792]	; (4b2c <__aeabi_dsub+0x344>)
    4814:	0d76      	lsrs	r6, r6, #21
    4816:	46a8      	mov	r8, r5
    4818:	0fdb      	lsrs	r3, r3, #31
    481a:	00d2      	lsls	r2, r2, #3
    481c:	4584      	cmp	ip, r0
    481e:	d100      	bne.n	4822 <__aeabi_dsub+0x3a>
    4820:	e0d8      	b.n	49d4 <__aeabi_dsub+0x1ec>
    4822:	2001      	movs	r0, #1
    4824:	4043      	eors	r3, r0
    4826:	42ab      	cmp	r3, r5
    4828:	d100      	bne.n	482c <__aeabi_dsub+0x44>
    482a:	e0a6      	b.n	497a <__aeabi_dsub+0x192>
    482c:	4660      	mov	r0, ip
    482e:	1a35      	subs	r5, r6, r0
    4830:	2d00      	cmp	r5, #0
    4832:	dc00      	bgt.n	4836 <__aeabi_dsub+0x4e>
    4834:	e105      	b.n	4a42 <__aeabi_dsub+0x25a>
    4836:	2800      	cmp	r0, #0
    4838:	d110      	bne.n	485c <__aeabi_dsub+0x74>
    483a:	000b      	movs	r3, r1
    483c:	4313      	orrs	r3, r2
    483e:	d100      	bne.n	4842 <__aeabi_dsub+0x5a>
    4840:	e0d7      	b.n	49f2 <__aeabi_dsub+0x20a>
    4842:	1e6b      	subs	r3, r5, #1
    4844:	2b00      	cmp	r3, #0
    4846:	d000      	beq.n	484a <__aeabi_dsub+0x62>
    4848:	e14b      	b.n	4ae2 <__aeabi_dsub+0x2fa>
    484a:	4653      	mov	r3, sl
    484c:	1a9f      	subs	r7, r3, r2
    484e:	45ba      	cmp	sl, r7
    4850:	4180      	sbcs	r0, r0
    4852:	1a64      	subs	r4, r4, r1
    4854:	4240      	negs	r0, r0
    4856:	1a24      	subs	r4, r4, r0
    4858:	2601      	movs	r6, #1
    485a:	e01e      	b.n	489a <__aeabi_dsub+0xb2>
    485c:	4bb3      	ldr	r3, [pc, #716]	; (4b2c <__aeabi_dsub+0x344>)
    485e:	429e      	cmp	r6, r3
    4860:	d048      	beq.n	48f4 <__aeabi_dsub+0x10c>
    4862:	2380      	movs	r3, #128	; 0x80
    4864:	041b      	lsls	r3, r3, #16
    4866:	4319      	orrs	r1, r3
    4868:	2d38      	cmp	r5, #56	; 0x38
    486a:	dd00      	ble.n	486e <__aeabi_dsub+0x86>
    486c:	e119      	b.n	4aa2 <__aeabi_dsub+0x2ba>
    486e:	2d1f      	cmp	r5, #31
    4870:	dd00      	ble.n	4874 <__aeabi_dsub+0x8c>
    4872:	e14c      	b.n	4b0e <__aeabi_dsub+0x326>
    4874:	2320      	movs	r3, #32
    4876:	000f      	movs	r7, r1
    4878:	1b5b      	subs	r3, r3, r5
    487a:	0010      	movs	r0, r2
    487c:	409a      	lsls	r2, r3
    487e:	409f      	lsls	r7, r3
    4880:	40e8      	lsrs	r0, r5
    4882:	1e53      	subs	r3, r2, #1
    4884:	419a      	sbcs	r2, r3
    4886:	40e9      	lsrs	r1, r5
    4888:	4307      	orrs	r7, r0
    488a:	4317      	orrs	r7, r2
    488c:	4653      	mov	r3, sl
    488e:	1bdf      	subs	r7, r3, r7
    4890:	1a61      	subs	r1, r4, r1
    4892:	45ba      	cmp	sl, r7
    4894:	41a4      	sbcs	r4, r4
    4896:	4264      	negs	r4, r4
    4898:	1b0c      	subs	r4, r1, r4
    489a:	0223      	lsls	r3, r4, #8
    489c:	d400      	bmi.n	48a0 <__aeabi_dsub+0xb8>
    489e:	e0c5      	b.n	4a2c <__aeabi_dsub+0x244>
    48a0:	0264      	lsls	r4, r4, #9
    48a2:	0a65      	lsrs	r5, r4, #9
    48a4:	2d00      	cmp	r5, #0
    48a6:	d100      	bne.n	48aa <__aeabi_dsub+0xc2>
    48a8:	e0f6      	b.n	4a98 <__aeabi_dsub+0x2b0>
    48aa:	0028      	movs	r0, r5
    48ac:	f000 fb8e 	bl	4fcc <__clzsi2>
    48b0:	0003      	movs	r3, r0
    48b2:	3b08      	subs	r3, #8
    48b4:	2b1f      	cmp	r3, #31
    48b6:	dd00      	ble.n	48ba <__aeabi_dsub+0xd2>
    48b8:	e0e9      	b.n	4a8e <__aeabi_dsub+0x2a6>
    48ba:	2220      	movs	r2, #32
    48bc:	003c      	movs	r4, r7
    48be:	1ad2      	subs	r2, r2, r3
    48c0:	409d      	lsls	r5, r3
    48c2:	40d4      	lsrs	r4, r2
    48c4:	409f      	lsls	r7, r3
    48c6:	4325      	orrs	r5, r4
    48c8:	429e      	cmp	r6, r3
    48ca:	dd00      	ble.n	48ce <__aeabi_dsub+0xe6>
    48cc:	e0db      	b.n	4a86 <__aeabi_dsub+0x29e>
    48ce:	1b9e      	subs	r6, r3, r6
    48d0:	1c73      	adds	r3, r6, #1
    48d2:	2b1f      	cmp	r3, #31
    48d4:	dd00      	ble.n	48d8 <__aeabi_dsub+0xf0>
    48d6:	e10a      	b.n	4aee <__aeabi_dsub+0x306>
    48d8:	2220      	movs	r2, #32
    48da:	0038      	movs	r0, r7
    48dc:	1ad2      	subs	r2, r2, r3
    48de:	0029      	movs	r1, r5
    48e0:	4097      	lsls	r7, r2
    48e2:	002c      	movs	r4, r5
    48e4:	4091      	lsls	r1, r2
    48e6:	40d8      	lsrs	r0, r3
    48e8:	1e7a      	subs	r2, r7, #1
    48ea:	4197      	sbcs	r7, r2
    48ec:	40dc      	lsrs	r4, r3
    48ee:	2600      	movs	r6, #0
    48f0:	4301      	orrs	r1, r0
    48f2:	430f      	orrs	r7, r1
    48f4:	077b      	lsls	r3, r7, #29
    48f6:	d009      	beq.n	490c <__aeabi_dsub+0x124>
    48f8:	230f      	movs	r3, #15
    48fa:	403b      	ands	r3, r7
    48fc:	2b04      	cmp	r3, #4
    48fe:	d005      	beq.n	490c <__aeabi_dsub+0x124>
    4900:	1d3b      	adds	r3, r7, #4
    4902:	42bb      	cmp	r3, r7
    4904:	41bf      	sbcs	r7, r7
    4906:	427f      	negs	r7, r7
    4908:	19e4      	adds	r4, r4, r7
    490a:	001f      	movs	r7, r3
    490c:	0223      	lsls	r3, r4, #8
    490e:	d525      	bpl.n	495c <__aeabi_dsub+0x174>
    4910:	4b86      	ldr	r3, [pc, #536]	; (4b2c <__aeabi_dsub+0x344>)
    4912:	3601      	adds	r6, #1
    4914:	429e      	cmp	r6, r3
    4916:	d100      	bne.n	491a <__aeabi_dsub+0x132>
    4918:	e0af      	b.n	4a7a <__aeabi_dsub+0x292>
    491a:	4b85      	ldr	r3, [pc, #532]	; (4b30 <__aeabi_dsub+0x348>)
    491c:	2501      	movs	r5, #1
    491e:	401c      	ands	r4, r3
    4920:	4643      	mov	r3, r8
    4922:	0762      	lsls	r2, r4, #29
    4924:	08ff      	lsrs	r7, r7, #3
    4926:	0264      	lsls	r4, r4, #9
    4928:	0576      	lsls	r6, r6, #21
    492a:	4317      	orrs	r7, r2
    492c:	0b24      	lsrs	r4, r4, #12
    492e:	0d76      	lsrs	r6, r6, #21
    4930:	401d      	ands	r5, r3
    4932:	2100      	movs	r1, #0
    4934:	0324      	lsls	r4, r4, #12
    4936:	0b23      	lsrs	r3, r4, #12
    4938:	0d0c      	lsrs	r4, r1, #20
    493a:	4a7e      	ldr	r2, [pc, #504]	; (4b34 <__aeabi_dsub+0x34c>)
    493c:	0524      	lsls	r4, r4, #20
    493e:	431c      	orrs	r4, r3
    4940:	4014      	ands	r4, r2
    4942:	0533      	lsls	r3, r6, #20
    4944:	4323      	orrs	r3, r4
    4946:	005b      	lsls	r3, r3, #1
    4948:	07ed      	lsls	r5, r5, #31
    494a:	085b      	lsrs	r3, r3, #1
    494c:	432b      	orrs	r3, r5
    494e:	0038      	movs	r0, r7
    4950:	0019      	movs	r1, r3
    4952:	bc1c      	pop	{r2, r3, r4}
    4954:	4690      	mov	r8, r2
    4956:	4699      	mov	r9, r3
    4958:	46a2      	mov	sl, r4
    495a:	bdf0      	pop	{r4, r5, r6, r7, pc}
    495c:	2501      	movs	r5, #1
    495e:	4643      	mov	r3, r8
    4960:	0762      	lsls	r2, r4, #29
    4962:	08ff      	lsrs	r7, r7, #3
    4964:	4317      	orrs	r7, r2
    4966:	08e4      	lsrs	r4, r4, #3
    4968:	401d      	ands	r5, r3
    496a:	4b70      	ldr	r3, [pc, #448]	; (4b2c <__aeabi_dsub+0x344>)
    496c:	429e      	cmp	r6, r3
    496e:	d036      	beq.n	49de <__aeabi_dsub+0x1f6>
    4970:	0324      	lsls	r4, r4, #12
    4972:	0576      	lsls	r6, r6, #21
    4974:	0b24      	lsrs	r4, r4, #12
    4976:	0d76      	lsrs	r6, r6, #21
    4978:	e7db      	b.n	4932 <__aeabi_dsub+0x14a>
    497a:	4663      	mov	r3, ip
    497c:	1af3      	subs	r3, r6, r3
    497e:	2b00      	cmp	r3, #0
    4980:	dc00      	bgt.n	4984 <__aeabi_dsub+0x19c>
    4982:	e094      	b.n	4aae <__aeabi_dsub+0x2c6>
    4984:	4660      	mov	r0, ip
    4986:	2800      	cmp	r0, #0
    4988:	d035      	beq.n	49f6 <__aeabi_dsub+0x20e>
    498a:	4868      	ldr	r0, [pc, #416]	; (4b2c <__aeabi_dsub+0x344>)
    498c:	4286      	cmp	r6, r0
    498e:	d0b1      	beq.n	48f4 <__aeabi_dsub+0x10c>
    4990:	2780      	movs	r7, #128	; 0x80
    4992:	043f      	lsls	r7, r7, #16
    4994:	4339      	orrs	r1, r7
    4996:	2b38      	cmp	r3, #56	; 0x38
    4998:	dc00      	bgt.n	499c <__aeabi_dsub+0x1b4>
    499a:	e0fd      	b.n	4b98 <__aeabi_dsub+0x3b0>
    499c:	430a      	orrs	r2, r1
    499e:	0017      	movs	r7, r2
    49a0:	2100      	movs	r1, #0
    49a2:	1e7a      	subs	r2, r7, #1
    49a4:	4197      	sbcs	r7, r2
    49a6:	4457      	add	r7, sl
    49a8:	4557      	cmp	r7, sl
    49aa:	4180      	sbcs	r0, r0
    49ac:	1909      	adds	r1, r1, r4
    49ae:	4244      	negs	r4, r0
    49b0:	190c      	adds	r4, r1, r4
    49b2:	0223      	lsls	r3, r4, #8
    49b4:	d53a      	bpl.n	4a2c <__aeabi_dsub+0x244>
    49b6:	4b5d      	ldr	r3, [pc, #372]	; (4b2c <__aeabi_dsub+0x344>)
    49b8:	3601      	adds	r6, #1
    49ba:	429e      	cmp	r6, r3
    49bc:	d100      	bne.n	49c0 <__aeabi_dsub+0x1d8>
    49be:	e14b      	b.n	4c58 <__aeabi_dsub+0x470>
    49c0:	2201      	movs	r2, #1
    49c2:	4b5b      	ldr	r3, [pc, #364]	; (4b30 <__aeabi_dsub+0x348>)
    49c4:	401c      	ands	r4, r3
    49c6:	087b      	lsrs	r3, r7, #1
    49c8:	4017      	ands	r7, r2
    49ca:	431f      	orrs	r7, r3
    49cc:	07e2      	lsls	r2, r4, #31
    49ce:	4317      	orrs	r7, r2
    49d0:	0864      	lsrs	r4, r4, #1
    49d2:	e78f      	b.n	48f4 <__aeabi_dsub+0x10c>
    49d4:	0008      	movs	r0, r1
    49d6:	4310      	orrs	r0, r2
    49d8:	d000      	beq.n	49dc <__aeabi_dsub+0x1f4>
    49da:	e724      	b.n	4826 <__aeabi_dsub+0x3e>
    49dc:	e721      	b.n	4822 <__aeabi_dsub+0x3a>
    49de:	0023      	movs	r3, r4
    49e0:	433b      	orrs	r3, r7
    49e2:	d100      	bne.n	49e6 <__aeabi_dsub+0x1fe>
    49e4:	e1b9      	b.n	4d5a <__aeabi_dsub+0x572>
    49e6:	2280      	movs	r2, #128	; 0x80
    49e8:	0312      	lsls	r2, r2, #12
    49ea:	4314      	orrs	r4, r2
    49ec:	0324      	lsls	r4, r4, #12
    49ee:	0b24      	lsrs	r4, r4, #12
    49f0:	e79f      	b.n	4932 <__aeabi_dsub+0x14a>
    49f2:	002e      	movs	r6, r5
    49f4:	e77e      	b.n	48f4 <__aeabi_dsub+0x10c>
    49f6:	0008      	movs	r0, r1
    49f8:	4310      	orrs	r0, r2
    49fa:	d100      	bne.n	49fe <__aeabi_dsub+0x216>
    49fc:	e0ca      	b.n	4b94 <__aeabi_dsub+0x3ac>
    49fe:	1e58      	subs	r0, r3, #1
    4a00:	4684      	mov	ip, r0
    4a02:	2800      	cmp	r0, #0
    4a04:	d000      	beq.n	4a08 <__aeabi_dsub+0x220>
    4a06:	e0e7      	b.n	4bd8 <__aeabi_dsub+0x3f0>
    4a08:	4452      	add	r2, sl
    4a0a:	4552      	cmp	r2, sl
    4a0c:	4180      	sbcs	r0, r0
    4a0e:	1864      	adds	r4, r4, r1
    4a10:	4240      	negs	r0, r0
    4a12:	1824      	adds	r4, r4, r0
    4a14:	0017      	movs	r7, r2
    4a16:	2601      	movs	r6, #1
    4a18:	0223      	lsls	r3, r4, #8
    4a1a:	d507      	bpl.n	4a2c <__aeabi_dsub+0x244>
    4a1c:	2602      	movs	r6, #2
    4a1e:	e7cf      	b.n	49c0 <__aeabi_dsub+0x1d8>
    4a20:	4664      	mov	r4, ip
    4a22:	432c      	orrs	r4, r5
    4a24:	d100      	bne.n	4a28 <__aeabi_dsub+0x240>
    4a26:	e1b3      	b.n	4d90 <__aeabi_dsub+0x5a8>
    4a28:	002c      	movs	r4, r5
    4a2a:	4667      	mov	r7, ip
    4a2c:	077b      	lsls	r3, r7, #29
    4a2e:	d000      	beq.n	4a32 <__aeabi_dsub+0x24a>
    4a30:	e762      	b.n	48f8 <__aeabi_dsub+0x110>
    4a32:	0763      	lsls	r3, r4, #29
    4a34:	08ff      	lsrs	r7, r7, #3
    4a36:	431f      	orrs	r7, r3
    4a38:	2501      	movs	r5, #1
    4a3a:	4643      	mov	r3, r8
    4a3c:	08e4      	lsrs	r4, r4, #3
    4a3e:	401d      	ands	r5, r3
    4a40:	e793      	b.n	496a <__aeabi_dsub+0x182>
    4a42:	2d00      	cmp	r5, #0
    4a44:	d178      	bne.n	4b38 <__aeabi_dsub+0x350>
    4a46:	1c75      	adds	r5, r6, #1
    4a48:	056d      	lsls	r5, r5, #21
    4a4a:	0d6d      	lsrs	r5, r5, #21
    4a4c:	2d01      	cmp	r5, #1
    4a4e:	dc00      	bgt.n	4a52 <__aeabi_dsub+0x26a>
    4a50:	e0f2      	b.n	4c38 <__aeabi_dsub+0x450>
    4a52:	4650      	mov	r0, sl
    4a54:	1a80      	subs	r0, r0, r2
    4a56:	4582      	cmp	sl, r0
    4a58:	41bf      	sbcs	r7, r7
    4a5a:	1a65      	subs	r5, r4, r1
    4a5c:	427f      	negs	r7, r7
    4a5e:	1bed      	subs	r5, r5, r7
    4a60:	4684      	mov	ip, r0
    4a62:	0228      	lsls	r0, r5, #8
    4a64:	d400      	bmi.n	4a68 <__aeabi_dsub+0x280>
    4a66:	e08c      	b.n	4b82 <__aeabi_dsub+0x39a>
    4a68:	4650      	mov	r0, sl
    4a6a:	1a17      	subs	r7, r2, r0
    4a6c:	42ba      	cmp	r2, r7
    4a6e:	4192      	sbcs	r2, r2
    4a70:	1b0c      	subs	r4, r1, r4
    4a72:	4255      	negs	r5, r2
    4a74:	1b65      	subs	r5, r4, r5
    4a76:	4698      	mov	r8, r3
    4a78:	e714      	b.n	48a4 <__aeabi_dsub+0xbc>
    4a7a:	2501      	movs	r5, #1
    4a7c:	4643      	mov	r3, r8
    4a7e:	2400      	movs	r4, #0
    4a80:	401d      	ands	r5, r3
    4a82:	2700      	movs	r7, #0
    4a84:	e755      	b.n	4932 <__aeabi_dsub+0x14a>
    4a86:	4c2a      	ldr	r4, [pc, #168]	; (4b30 <__aeabi_dsub+0x348>)
    4a88:	1af6      	subs	r6, r6, r3
    4a8a:	402c      	ands	r4, r5
    4a8c:	e732      	b.n	48f4 <__aeabi_dsub+0x10c>
    4a8e:	003d      	movs	r5, r7
    4a90:	3828      	subs	r0, #40	; 0x28
    4a92:	4085      	lsls	r5, r0
    4a94:	2700      	movs	r7, #0
    4a96:	e717      	b.n	48c8 <__aeabi_dsub+0xe0>
    4a98:	0038      	movs	r0, r7
    4a9a:	f000 fa97 	bl	4fcc <__clzsi2>
    4a9e:	3020      	adds	r0, #32
    4aa0:	e706      	b.n	48b0 <__aeabi_dsub+0xc8>
    4aa2:	430a      	orrs	r2, r1
    4aa4:	0017      	movs	r7, r2
    4aa6:	2100      	movs	r1, #0
    4aa8:	1e7a      	subs	r2, r7, #1
    4aaa:	4197      	sbcs	r7, r2
    4aac:	e6ee      	b.n	488c <__aeabi_dsub+0xa4>
    4aae:	2b00      	cmp	r3, #0
    4ab0:	d000      	beq.n	4ab4 <__aeabi_dsub+0x2cc>
    4ab2:	e0e5      	b.n	4c80 <__aeabi_dsub+0x498>
    4ab4:	1c73      	adds	r3, r6, #1
    4ab6:	469c      	mov	ip, r3
    4ab8:	055b      	lsls	r3, r3, #21
    4aba:	0d5b      	lsrs	r3, r3, #21
    4abc:	2b01      	cmp	r3, #1
    4abe:	dc00      	bgt.n	4ac2 <__aeabi_dsub+0x2da>
    4ac0:	e09f      	b.n	4c02 <__aeabi_dsub+0x41a>
    4ac2:	4b1a      	ldr	r3, [pc, #104]	; (4b2c <__aeabi_dsub+0x344>)
    4ac4:	459c      	cmp	ip, r3
    4ac6:	d100      	bne.n	4aca <__aeabi_dsub+0x2e2>
    4ac8:	e0c5      	b.n	4c56 <__aeabi_dsub+0x46e>
    4aca:	4452      	add	r2, sl
    4acc:	4552      	cmp	r2, sl
    4ace:	4180      	sbcs	r0, r0
    4ad0:	1864      	adds	r4, r4, r1
    4ad2:	4240      	negs	r0, r0
    4ad4:	1824      	adds	r4, r4, r0
    4ad6:	07e7      	lsls	r7, r4, #31
    4ad8:	0852      	lsrs	r2, r2, #1
    4ada:	4317      	orrs	r7, r2
    4adc:	0864      	lsrs	r4, r4, #1
    4ade:	4666      	mov	r6, ip
    4ae0:	e708      	b.n	48f4 <__aeabi_dsub+0x10c>
    4ae2:	4812      	ldr	r0, [pc, #72]	; (4b2c <__aeabi_dsub+0x344>)
    4ae4:	4285      	cmp	r5, r0
    4ae6:	d100      	bne.n	4aea <__aeabi_dsub+0x302>
    4ae8:	e085      	b.n	4bf6 <__aeabi_dsub+0x40e>
    4aea:	001d      	movs	r5, r3
    4aec:	e6bc      	b.n	4868 <__aeabi_dsub+0x80>
    4aee:	0029      	movs	r1, r5
    4af0:	3e1f      	subs	r6, #31
    4af2:	40f1      	lsrs	r1, r6
    4af4:	2b20      	cmp	r3, #32
    4af6:	d100      	bne.n	4afa <__aeabi_dsub+0x312>
    4af8:	e07f      	b.n	4bfa <__aeabi_dsub+0x412>
    4afa:	2240      	movs	r2, #64	; 0x40
    4afc:	1ad3      	subs	r3, r2, r3
    4afe:	409d      	lsls	r5, r3
    4b00:	432f      	orrs	r7, r5
    4b02:	1e7d      	subs	r5, r7, #1
    4b04:	41af      	sbcs	r7, r5
    4b06:	2400      	movs	r4, #0
    4b08:	430f      	orrs	r7, r1
    4b0a:	2600      	movs	r6, #0
    4b0c:	e78e      	b.n	4a2c <__aeabi_dsub+0x244>
    4b0e:	002b      	movs	r3, r5
    4b10:	000f      	movs	r7, r1
    4b12:	3b20      	subs	r3, #32
    4b14:	40df      	lsrs	r7, r3
    4b16:	2d20      	cmp	r5, #32
    4b18:	d071      	beq.n	4bfe <__aeabi_dsub+0x416>
    4b1a:	2340      	movs	r3, #64	; 0x40
    4b1c:	1b5d      	subs	r5, r3, r5
    4b1e:	40a9      	lsls	r1, r5
    4b20:	430a      	orrs	r2, r1
    4b22:	1e51      	subs	r1, r2, #1
    4b24:	418a      	sbcs	r2, r1
    4b26:	2100      	movs	r1, #0
    4b28:	4317      	orrs	r7, r2
    4b2a:	e6af      	b.n	488c <__aeabi_dsub+0xa4>
    4b2c:	000007ff 	.word	0x000007ff
    4b30:	ff7fffff 	.word	0xff7fffff
    4b34:	800fffff 	.word	0x800fffff
    4b38:	2e00      	cmp	r6, #0
    4b3a:	d03e      	beq.n	4bba <__aeabi_dsub+0x3d2>
    4b3c:	4eb3      	ldr	r6, [pc, #716]	; (4e0c <__aeabi_dsub+0x624>)
    4b3e:	45b4      	cmp	ip, r6
    4b40:	d045      	beq.n	4bce <__aeabi_dsub+0x3e6>
    4b42:	2680      	movs	r6, #128	; 0x80
    4b44:	0436      	lsls	r6, r6, #16
    4b46:	426d      	negs	r5, r5
    4b48:	4334      	orrs	r4, r6
    4b4a:	2d38      	cmp	r5, #56	; 0x38
    4b4c:	dd00      	ble.n	4b50 <__aeabi_dsub+0x368>
    4b4e:	e0a8      	b.n	4ca2 <__aeabi_dsub+0x4ba>
    4b50:	2d1f      	cmp	r5, #31
    4b52:	dd00      	ble.n	4b56 <__aeabi_dsub+0x36e>
    4b54:	e11f      	b.n	4d96 <__aeabi_dsub+0x5ae>
    4b56:	2620      	movs	r6, #32
    4b58:	0027      	movs	r7, r4
    4b5a:	4650      	mov	r0, sl
    4b5c:	1b76      	subs	r6, r6, r5
    4b5e:	40b7      	lsls	r7, r6
    4b60:	40e8      	lsrs	r0, r5
    4b62:	4307      	orrs	r7, r0
    4b64:	4650      	mov	r0, sl
    4b66:	40b0      	lsls	r0, r6
    4b68:	1e46      	subs	r6, r0, #1
    4b6a:	41b0      	sbcs	r0, r6
    4b6c:	40ec      	lsrs	r4, r5
    4b6e:	4338      	orrs	r0, r7
    4b70:	1a17      	subs	r7, r2, r0
    4b72:	42ba      	cmp	r2, r7
    4b74:	4192      	sbcs	r2, r2
    4b76:	1b0c      	subs	r4, r1, r4
    4b78:	4252      	negs	r2, r2
    4b7a:	1aa4      	subs	r4, r4, r2
    4b7c:	4666      	mov	r6, ip
    4b7e:	4698      	mov	r8, r3
    4b80:	e68b      	b.n	489a <__aeabi_dsub+0xb2>
    4b82:	4664      	mov	r4, ip
    4b84:	4667      	mov	r7, ip
    4b86:	432c      	orrs	r4, r5
    4b88:	d000      	beq.n	4b8c <__aeabi_dsub+0x3a4>
    4b8a:	e68b      	b.n	48a4 <__aeabi_dsub+0xbc>
    4b8c:	2500      	movs	r5, #0
    4b8e:	2600      	movs	r6, #0
    4b90:	2700      	movs	r7, #0
    4b92:	e6ea      	b.n	496a <__aeabi_dsub+0x182>
    4b94:	001e      	movs	r6, r3
    4b96:	e6ad      	b.n	48f4 <__aeabi_dsub+0x10c>
    4b98:	2b1f      	cmp	r3, #31
    4b9a:	dc60      	bgt.n	4c5e <__aeabi_dsub+0x476>
    4b9c:	2720      	movs	r7, #32
    4b9e:	1af8      	subs	r0, r7, r3
    4ba0:	000f      	movs	r7, r1
    4ba2:	4684      	mov	ip, r0
    4ba4:	4087      	lsls	r7, r0
    4ba6:	0010      	movs	r0, r2
    4ba8:	40d8      	lsrs	r0, r3
    4baa:	4307      	orrs	r7, r0
    4bac:	4660      	mov	r0, ip
    4bae:	4082      	lsls	r2, r0
    4bb0:	1e50      	subs	r0, r2, #1
    4bb2:	4182      	sbcs	r2, r0
    4bb4:	40d9      	lsrs	r1, r3
    4bb6:	4317      	orrs	r7, r2
    4bb8:	e6f5      	b.n	49a6 <__aeabi_dsub+0x1be>
    4bba:	0026      	movs	r6, r4
    4bbc:	4650      	mov	r0, sl
    4bbe:	4306      	orrs	r6, r0
    4bc0:	d005      	beq.n	4bce <__aeabi_dsub+0x3e6>
    4bc2:	43ed      	mvns	r5, r5
    4bc4:	2d00      	cmp	r5, #0
    4bc6:	d0d3      	beq.n	4b70 <__aeabi_dsub+0x388>
    4bc8:	4e90      	ldr	r6, [pc, #576]	; (4e0c <__aeabi_dsub+0x624>)
    4bca:	45b4      	cmp	ip, r6
    4bcc:	d1bd      	bne.n	4b4a <__aeabi_dsub+0x362>
    4bce:	000c      	movs	r4, r1
    4bd0:	0017      	movs	r7, r2
    4bd2:	4666      	mov	r6, ip
    4bd4:	4698      	mov	r8, r3
    4bd6:	e68d      	b.n	48f4 <__aeabi_dsub+0x10c>
    4bd8:	488c      	ldr	r0, [pc, #560]	; (4e0c <__aeabi_dsub+0x624>)
    4bda:	4283      	cmp	r3, r0
    4bdc:	d00b      	beq.n	4bf6 <__aeabi_dsub+0x40e>
    4bde:	4663      	mov	r3, ip
    4be0:	e6d9      	b.n	4996 <__aeabi_dsub+0x1ae>
    4be2:	2d00      	cmp	r5, #0
    4be4:	d000      	beq.n	4be8 <__aeabi_dsub+0x400>
    4be6:	e096      	b.n	4d16 <__aeabi_dsub+0x52e>
    4be8:	0008      	movs	r0, r1
    4bea:	4310      	orrs	r0, r2
    4bec:	d100      	bne.n	4bf0 <__aeabi_dsub+0x408>
    4bee:	e0e2      	b.n	4db6 <__aeabi_dsub+0x5ce>
    4bf0:	000c      	movs	r4, r1
    4bf2:	0017      	movs	r7, r2
    4bf4:	4698      	mov	r8, r3
    4bf6:	4e85      	ldr	r6, [pc, #532]	; (4e0c <__aeabi_dsub+0x624>)
    4bf8:	e67c      	b.n	48f4 <__aeabi_dsub+0x10c>
    4bfa:	2500      	movs	r5, #0
    4bfc:	e780      	b.n	4b00 <__aeabi_dsub+0x318>
    4bfe:	2100      	movs	r1, #0
    4c00:	e78e      	b.n	4b20 <__aeabi_dsub+0x338>
    4c02:	0023      	movs	r3, r4
    4c04:	4650      	mov	r0, sl
    4c06:	4303      	orrs	r3, r0
    4c08:	2e00      	cmp	r6, #0
    4c0a:	d000      	beq.n	4c0e <__aeabi_dsub+0x426>
    4c0c:	e0a8      	b.n	4d60 <__aeabi_dsub+0x578>
    4c0e:	2b00      	cmp	r3, #0
    4c10:	d100      	bne.n	4c14 <__aeabi_dsub+0x42c>
    4c12:	e0de      	b.n	4dd2 <__aeabi_dsub+0x5ea>
    4c14:	000b      	movs	r3, r1
    4c16:	4313      	orrs	r3, r2
    4c18:	d100      	bne.n	4c1c <__aeabi_dsub+0x434>
    4c1a:	e66b      	b.n	48f4 <__aeabi_dsub+0x10c>
    4c1c:	4452      	add	r2, sl
    4c1e:	4552      	cmp	r2, sl
    4c20:	4180      	sbcs	r0, r0
    4c22:	1864      	adds	r4, r4, r1
    4c24:	4240      	negs	r0, r0
    4c26:	1824      	adds	r4, r4, r0
    4c28:	0017      	movs	r7, r2
    4c2a:	0223      	lsls	r3, r4, #8
    4c2c:	d400      	bmi.n	4c30 <__aeabi_dsub+0x448>
    4c2e:	e6fd      	b.n	4a2c <__aeabi_dsub+0x244>
    4c30:	4b77      	ldr	r3, [pc, #476]	; (4e10 <__aeabi_dsub+0x628>)
    4c32:	4666      	mov	r6, ip
    4c34:	401c      	ands	r4, r3
    4c36:	e65d      	b.n	48f4 <__aeabi_dsub+0x10c>
    4c38:	0025      	movs	r5, r4
    4c3a:	4650      	mov	r0, sl
    4c3c:	4305      	orrs	r5, r0
    4c3e:	2e00      	cmp	r6, #0
    4c40:	d1cf      	bne.n	4be2 <__aeabi_dsub+0x3fa>
    4c42:	2d00      	cmp	r5, #0
    4c44:	d14f      	bne.n	4ce6 <__aeabi_dsub+0x4fe>
    4c46:	000c      	movs	r4, r1
    4c48:	4314      	orrs	r4, r2
    4c4a:	d100      	bne.n	4c4e <__aeabi_dsub+0x466>
    4c4c:	e0a0      	b.n	4d90 <__aeabi_dsub+0x5a8>
    4c4e:	000c      	movs	r4, r1
    4c50:	0017      	movs	r7, r2
    4c52:	4698      	mov	r8, r3
    4c54:	e64e      	b.n	48f4 <__aeabi_dsub+0x10c>
    4c56:	4666      	mov	r6, ip
    4c58:	2400      	movs	r4, #0
    4c5a:	2700      	movs	r7, #0
    4c5c:	e685      	b.n	496a <__aeabi_dsub+0x182>
    4c5e:	001f      	movs	r7, r3
    4c60:	0008      	movs	r0, r1
    4c62:	3f20      	subs	r7, #32
    4c64:	40f8      	lsrs	r0, r7
    4c66:	0007      	movs	r7, r0
    4c68:	2b20      	cmp	r3, #32
    4c6a:	d100      	bne.n	4c6e <__aeabi_dsub+0x486>
    4c6c:	e08e      	b.n	4d8c <__aeabi_dsub+0x5a4>
    4c6e:	2040      	movs	r0, #64	; 0x40
    4c70:	1ac3      	subs	r3, r0, r3
    4c72:	4099      	lsls	r1, r3
    4c74:	430a      	orrs	r2, r1
    4c76:	1e51      	subs	r1, r2, #1
    4c78:	418a      	sbcs	r2, r1
    4c7a:	2100      	movs	r1, #0
    4c7c:	4317      	orrs	r7, r2
    4c7e:	e692      	b.n	49a6 <__aeabi_dsub+0x1be>
    4c80:	2e00      	cmp	r6, #0
    4c82:	d114      	bne.n	4cae <__aeabi_dsub+0x4c6>
    4c84:	0026      	movs	r6, r4
    4c86:	4650      	mov	r0, sl
    4c88:	4306      	orrs	r6, r0
    4c8a:	d062      	beq.n	4d52 <__aeabi_dsub+0x56a>
    4c8c:	43db      	mvns	r3, r3
    4c8e:	2b00      	cmp	r3, #0
    4c90:	d15c      	bne.n	4d4c <__aeabi_dsub+0x564>
    4c92:	1887      	adds	r7, r0, r2
    4c94:	4297      	cmp	r7, r2
    4c96:	4192      	sbcs	r2, r2
    4c98:	1864      	adds	r4, r4, r1
    4c9a:	4252      	negs	r2, r2
    4c9c:	18a4      	adds	r4, r4, r2
    4c9e:	4666      	mov	r6, ip
    4ca0:	e687      	b.n	49b2 <__aeabi_dsub+0x1ca>
    4ca2:	4650      	mov	r0, sl
    4ca4:	4320      	orrs	r0, r4
    4ca6:	1e44      	subs	r4, r0, #1
    4ca8:	41a0      	sbcs	r0, r4
    4caa:	2400      	movs	r4, #0
    4cac:	e760      	b.n	4b70 <__aeabi_dsub+0x388>
    4cae:	4e57      	ldr	r6, [pc, #348]	; (4e0c <__aeabi_dsub+0x624>)
    4cb0:	45b4      	cmp	ip, r6
    4cb2:	d04e      	beq.n	4d52 <__aeabi_dsub+0x56a>
    4cb4:	2680      	movs	r6, #128	; 0x80
    4cb6:	0436      	lsls	r6, r6, #16
    4cb8:	425b      	negs	r3, r3
    4cba:	4334      	orrs	r4, r6
    4cbc:	2b38      	cmp	r3, #56	; 0x38
    4cbe:	dd00      	ble.n	4cc2 <__aeabi_dsub+0x4da>
    4cc0:	e07f      	b.n	4dc2 <__aeabi_dsub+0x5da>
    4cc2:	2b1f      	cmp	r3, #31
    4cc4:	dd00      	ble.n	4cc8 <__aeabi_dsub+0x4e0>
    4cc6:	e08b      	b.n	4de0 <__aeabi_dsub+0x5f8>
    4cc8:	2620      	movs	r6, #32
    4cca:	0027      	movs	r7, r4
    4ccc:	4650      	mov	r0, sl
    4cce:	1af6      	subs	r6, r6, r3
    4cd0:	40b7      	lsls	r7, r6
    4cd2:	40d8      	lsrs	r0, r3
    4cd4:	4307      	orrs	r7, r0
    4cd6:	4650      	mov	r0, sl
    4cd8:	40b0      	lsls	r0, r6
    4cda:	1e46      	subs	r6, r0, #1
    4cdc:	41b0      	sbcs	r0, r6
    4cde:	4307      	orrs	r7, r0
    4ce0:	40dc      	lsrs	r4, r3
    4ce2:	18bf      	adds	r7, r7, r2
    4ce4:	e7d6      	b.n	4c94 <__aeabi_dsub+0x4ac>
    4ce6:	000d      	movs	r5, r1
    4ce8:	4315      	orrs	r5, r2
    4cea:	d100      	bne.n	4cee <__aeabi_dsub+0x506>
    4cec:	e602      	b.n	48f4 <__aeabi_dsub+0x10c>
    4cee:	4650      	mov	r0, sl
    4cf0:	1a80      	subs	r0, r0, r2
    4cf2:	4582      	cmp	sl, r0
    4cf4:	41bf      	sbcs	r7, r7
    4cf6:	1a65      	subs	r5, r4, r1
    4cf8:	427f      	negs	r7, r7
    4cfa:	1bed      	subs	r5, r5, r7
    4cfc:	4684      	mov	ip, r0
    4cfe:	0228      	lsls	r0, r5, #8
    4d00:	d400      	bmi.n	4d04 <__aeabi_dsub+0x51c>
    4d02:	e68d      	b.n	4a20 <__aeabi_dsub+0x238>
    4d04:	4650      	mov	r0, sl
    4d06:	1a17      	subs	r7, r2, r0
    4d08:	42ba      	cmp	r2, r7
    4d0a:	4192      	sbcs	r2, r2
    4d0c:	1b0c      	subs	r4, r1, r4
    4d0e:	4252      	negs	r2, r2
    4d10:	1aa4      	subs	r4, r4, r2
    4d12:	4698      	mov	r8, r3
    4d14:	e5ee      	b.n	48f4 <__aeabi_dsub+0x10c>
    4d16:	000d      	movs	r5, r1
    4d18:	4315      	orrs	r5, r2
    4d1a:	d100      	bne.n	4d1e <__aeabi_dsub+0x536>
    4d1c:	e76b      	b.n	4bf6 <__aeabi_dsub+0x40e>
    4d1e:	4650      	mov	r0, sl
    4d20:	0767      	lsls	r7, r4, #29
    4d22:	08c0      	lsrs	r0, r0, #3
    4d24:	4307      	orrs	r7, r0
    4d26:	2080      	movs	r0, #128	; 0x80
    4d28:	08e4      	lsrs	r4, r4, #3
    4d2a:	0300      	lsls	r0, r0, #12
    4d2c:	4204      	tst	r4, r0
    4d2e:	d007      	beq.n	4d40 <__aeabi_dsub+0x558>
    4d30:	08cd      	lsrs	r5, r1, #3
    4d32:	4205      	tst	r5, r0
    4d34:	d104      	bne.n	4d40 <__aeabi_dsub+0x558>
    4d36:	002c      	movs	r4, r5
    4d38:	4698      	mov	r8, r3
    4d3a:	08d7      	lsrs	r7, r2, #3
    4d3c:	0749      	lsls	r1, r1, #29
    4d3e:	430f      	orrs	r7, r1
    4d40:	0f7b      	lsrs	r3, r7, #29
    4d42:	00e4      	lsls	r4, r4, #3
    4d44:	431c      	orrs	r4, r3
    4d46:	00ff      	lsls	r7, r7, #3
    4d48:	4e30      	ldr	r6, [pc, #192]	; (4e0c <__aeabi_dsub+0x624>)
    4d4a:	e5d3      	b.n	48f4 <__aeabi_dsub+0x10c>
    4d4c:	4e2f      	ldr	r6, [pc, #188]	; (4e0c <__aeabi_dsub+0x624>)
    4d4e:	45b4      	cmp	ip, r6
    4d50:	d1b4      	bne.n	4cbc <__aeabi_dsub+0x4d4>
    4d52:	000c      	movs	r4, r1
    4d54:	0017      	movs	r7, r2
    4d56:	4666      	mov	r6, ip
    4d58:	e5cc      	b.n	48f4 <__aeabi_dsub+0x10c>
    4d5a:	2700      	movs	r7, #0
    4d5c:	2400      	movs	r4, #0
    4d5e:	e5e8      	b.n	4932 <__aeabi_dsub+0x14a>
    4d60:	2b00      	cmp	r3, #0
    4d62:	d039      	beq.n	4dd8 <__aeabi_dsub+0x5f0>
    4d64:	000b      	movs	r3, r1
    4d66:	4313      	orrs	r3, r2
    4d68:	d100      	bne.n	4d6c <__aeabi_dsub+0x584>
    4d6a:	e744      	b.n	4bf6 <__aeabi_dsub+0x40e>
    4d6c:	08c0      	lsrs	r0, r0, #3
    4d6e:	0767      	lsls	r7, r4, #29
    4d70:	4307      	orrs	r7, r0
    4d72:	2080      	movs	r0, #128	; 0x80
    4d74:	08e4      	lsrs	r4, r4, #3
    4d76:	0300      	lsls	r0, r0, #12
    4d78:	4204      	tst	r4, r0
    4d7a:	d0e1      	beq.n	4d40 <__aeabi_dsub+0x558>
    4d7c:	08cb      	lsrs	r3, r1, #3
    4d7e:	4203      	tst	r3, r0
    4d80:	d1de      	bne.n	4d40 <__aeabi_dsub+0x558>
    4d82:	08d7      	lsrs	r7, r2, #3
    4d84:	0749      	lsls	r1, r1, #29
    4d86:	430f      	orrs	r7, r1
    4d88:	001c      	movs	r4, r3
    4d8a:	e7d9      	b.n	4d40 <__aeabi_dsub+0x558>
    4d8c:	2100      	movs	r1, #0
    4d8e:	e771      	b.n	4c74 <__aeabi_dsub+0x48c>
    4d90:	2500      	movs	r5, #0
    4d92:	2700      	movs	r7, #0
    4d94:	e5e9      	b.n	496a <__aeabi_dsub+0x182>
    4d96:	002e      	movs	r6, r5
    4d98:	0027      	movs	r7, r4
    4d9a:	3e20      	subs	r6, #32
    4d9c:	40f7      	lsrs	r7, r6
    4d9e:	2d20      	cmp	r5, #32
    4da0:	d02f      	beq.n	4e02 <__aeabi_dsub+0x61a>
    4da2:	2640      	movs	r6, #64	; 0x40
    4da4:	1b75      	subs	r5, r6, r5
    4da6:	40ac      	lsls	r4, r5
    4da8:	4650      	mov	r0, sl
    4daa:	4320      	orrs	r0, r4
    4dac:	1e44      	subs	r4, r0, #1
    4dae:	41a0      	sbcs	r0, r4
    4db0:	2400      	movs	r4, #0
    4db2:	4338      	orrs	r0, r7
    4db4:	e6dc      	b.n	4b70 <__aeabi_dsub+0x388>
    4db6:	2480      	movs	r4, #128	; 0x80
    4db8:	2500      	movs	r5, #0
    4dba:	0324      	lsls	r4, r4, #12
    4dbc:	4e13      	ldr	r6, [pc, #76]	; (4e0c <__aeabi_dsub+0x624>)
    4dbe:	2700      	movs	r7, #0
    4dc0:	e5d3      	b.n	496a <__aeabi_dsub+0x182>
    4dc2:	4650      	mov	r0, sl
    4dc4:	4320      	orrs	r0, r4
    4dc6:	0007      	movs	r7, r0
    4dc8:	1e78      	subs	r0, r7, #1
    4dca:	4187      	sbcs	r7, r0
    4dcc:	2400      	movs	r4, #0
    4dce:	18bf      	adds	r7, r7, r2
    4dd0:	e760      	b.n	4c94 <__aeabi_dsub+0x4ac>
    4dd2:	000c      	movs	r4, r1
    4dd4:	0017      	movs	r7, r2
    4dd6:	e58d      	b.n	48f4 <__aeabi_dsub+0x10c>
    4dd8:	000c      	movs	r4, r1
    4dda:	0017      	movs	r7, r2
    4ddc:	4e0b      	ldr	r6, [pc, #44]	; (4e0c <__aeabi_dsub+0x624>)
    4dde:	e589      	b.n	48f4 <__aeabi_dsub+0x10c>
    4de0:	001e      	movs	r6, r3
    4de2:	0027      	movs	r7, r4
    4de4:	3e20      	subs	r6, #32
    4de6:	40f7      	lsrs	r7, r6
    4de8:	2b20      	cmp	r3, #32
    4dea:	d00c      	beq.n	4e06 <__aeabi_dsub+0x61e>
    4dec:	2640      	movs	r6, #64	; 0x40
    4dee:	1af3      	subs	r3, r6, r3
    4df0:	409c      	lsls	r4, r3
    4df2:	4650      	mov	r0, sl
    4df4:	4320      	orrs	r0, r4
    4df6:	1e44      	subs	r4, r0, #1
    4df8:	41a0      	sbcs	r0, r4
    4dfa:	4307      	orrs	r7, r0
    4dfc:	2400      	movs	r4, #0
    4dfe:	18bf      	adds	r7, r7, r2
    4e00:	e748      	b.n	4c94 <__aeabi_dsub+0x4ac>
    4e02:	2400      	movs	r4, #0
    4e04:	e7d0      	b.n	4da8 <__aeabi_dsub+0x5c0>
    4e06:	2400      	movs	r4, #0
    4e08:	e7f3      	b.n	4df2 <__aeabi_dsub+0x60a>
    4e0a:	46c0      	nop			; (mov r8, r8)
    4e0c:	000007ff 	.word	0x000007ff
    4e10:	ff7fffff 	.word	0xff7fffff

00004e14 <__aeabi_f2d>:
    4e14:	0041      	lsls	r1, r0, #1
    4e16:	0e09      	lsrs	r1, r1, #24
    4e18:	1c4b      	adds	r3, r1, #1
    4e1a:	b570      	push	{r4, r5, r6, lr}
    4e1c:	b2db      	uxtb	r3, r3
    4e1e:	0246      	lsls	r6, r0, #9
    4e20:	0a75      	lsrs	r5, r6, #9
    4e22:	0fc4      	lsrs	r4, r0, #31
    4e24:	2b01      	cmp	r3, #1
    4e26:	dd14      	ble.n	4e52 <__aeabi_f2d+0x3e>
    4e28:	23e0      	movs	r3, #224	; 0xe0
    4e2a:	009b      	lsls	r3, r3, #2
    4e2c:	076d      	lsls	r5, r5, #29
    4e2e:	0b36      	lsrs	r6, r6, #12
    4e30:	18cb      	adds	r3, r1, r3
    4e32:	2100      	movs	r1, #0
    4e34:	0d0a      	lsrs	r2, r1, #20
    4e36:	0028      	movs	r0, r5
    4e38:	0512      	lsls	r2, r2, #20
    4e3a:	4d1c      	ldr	r5, [pc, #112]	; (4eac <__aeabi_f2d+0x98>)
    4e3c:	4332      	orrs	r2, r6
    4e3e:	055b      	lsls	r3, r3, #21
    4e40:	402a      	ands	r2, r5
    4e42:	085b      	lsrs	r3, r3, #1
    4e44:	4313      	orrs	r3, r2
    4e46:	005b      	lsls	r3, r3, #1
    4e48:	07e4      	lsls	r4, r4, #31
    4e4a:	085b      	lsrs	r3, r3, #1
    4e4c:	4323      	orrs	r3, r4
    4e4e:	0019      	movs	r1, r3
    4e50:	bd70      	pop	{r4, r5, r6, pc}
    4e52:	2900      	cmp	r1, #0
    4e54:	d114      	bne.n	4e80 <__aeabi_f2d+0x6c>
    4e56:	2d00      	cmp	r5, #0
    4e58:	d01e      	beq.n	4e98 <__aeabi_f2d+0x84>
    4e5a:	0028      	movs	r0, r5
    4e5c:	f000 f8b6 	bl	4fcc <__clzsi2>
    4e60:	280a      	cmp	r0, #10
    4e62:	dc1c      	bgt.n	4e9e <__aeabi_f2d+0x8a>
    4e64:	230b      	movs	r3, #11
    4e66:	002a      	movs	r2, r5
    4e68:	1a1b      	subs	r3, r3, r0
    4e6a:	40da      	lsrs	r2, r3
    4e6c:	0003      	movs	r3, r0
    4e6e:	3315      	adds	r3, #21
    4e70:	409d      	lsls	r5, r3
    4e72:	4b0f      	ldr	r3, [pc, #60]	; (4eb0 <__aeabi_f2d+0x9c>)
    4e74:	0312      	lsls	r2, r2, #12
    4e76:	1a1b      	subs	r3, r3, r0
    4e78:	055b      	lsls	r3, r3, #21
    4e7a:	0b16      	lsrs	r6, r2, #12
    4e7c:	0d5b      	lsrs	r3, r3, #21
    4e7e:	e7d8      	b.n	4e32 <__aeabi_f2d+0x1e>
    4e80:	2d00      	cmp	r5, #0
    4e82:	d006      	beq.n	4e92 <__aeabi_f2d+0x7e>
    4e84:	0b32      	lsrs	r2, r6, #12
    4e86:	2680      	movs	r6, #128	; 0x80
    4e88:	0336      	lsls	r6, r6, #12
    4e8a:	076d      	lsls	r5, r5, #29
    4e8c:	4316      	orrs	r6, r2
    4e8e:	4b09      	ldr	r3, [pc, #36]	; (4eb4 <__aeabi_f2d+0xa0>)
    4e90:	e7cf      	b.n	4e32 <__aeabi_f2d+0x1e>
    4e92:	4b08      	ldr	r3, [pc, #32]	; (4eb4 <__aeabi_f2d+0xa0>)
    4e94:	2600      	movs	r6, #0
    4e96:	e7cc      	b.n	4e32 <__aeabi_f2d+0x1e>
    4e98:	2300      	movs	r3, #0
    4e9a:	2600      	movs	r6, #0
    4e9c:	e7c9      	b.n	4e32 <__aeabi_f2d+0x1e>
    4e9e:	0003      	movs	r3, r0
    4ea0:	002a      	movs	r2, r5
    4ea2:	3b0b      	subs	r3, #11
    4ea4:	409a      	lsls	r2, r3
    4ea6:	2500      	movs	r5, #0
    4ea8:	e7e3      	b.n	4e72 <__aeabi_f2d+0x5e>
    4eaa:	46c0      	nop			; (mov r8, r8)
    4eac:	800fffff 	.word	0x800fffff
    4eb0:	00000389 	.word	0x00000389
    4eb4:	000007ff 	.word	0x000007ff

00004eb8 <__aeabi_d2f>:
    4eb8:	b5f0      	push	{r4, r5, r6, r7, lr}
    4eba:	004c      	lsls	r4, r1, #1
    4ebc:	0d64      	lsrs	r4, r4, #21
    4ebe:	030b      	lsls	r3, r1, #12
    4ec0:	1c62      	adds	r2, r4, #1
    4ec2:	0f45      	lsrs	r5, r0, #29
    4ec4:	0a5b      	lsrs	r3, r3, #9
    4ec6:	0552      	lsls	r2, r2, #21
    4ec8:	432b      	orrs	r3, r5
    4eca:	0fc9      	lsrs	r1, r1, #31
    4ecc:	00c5      	lsls	r5, r0, #3
    4ece:	0d52      	lsrs	r2, r2, #21
    4ed0:	2a01      	cmp	r2, #1
    4ed2:	dd28      	ble.n	4f26 <__aeabi_d2f+0x6e>
    4ed4:	4a3a      	ldr	r2, [pc, #232]	; (4fc0 <__aeabi_d2f+0x108>)
    4ed6:	18a6      	adds	r6, r4, r2
    4ed8:	2efe      	cmp	r6, #254	; 0xfe
    4eda:	dc1b      	bgt.n	4f14 <__aeabi_d2f+0x5c>
    4edc:	2e00      	cmp	r6, #0
    4ede:	dd3e      	ble.n	4f5e <__aeabi_d2f+0xa6>
    4ee0:	0180      	lsls	r0, r0, #6
    4ee2:	0002      	movs	r2, r0
    4ee4:	1e50      	subs	r0, r2, #1
    4ee6:	4182      	sbcs	r2, r0
    4ee8:	0f6d      	lsrs	r5, r5, #29
    4eea:	432a      	orrs	r2, r5
    4eec:	00db      	lsls	r3, r3, #3
    4eee:	4313      	orrs	r3, r2
    4ef0:	075a      	lsls	r2, r3, #29
    4ef2:	d004      	beq.n	4efe <__aeabi_d2f+0x46>
    4ef4:	220f      	movs	r2, #15
    4ef6:	401a      	ands	r2, r3
    4ef8:	2a04      	cmp	r2, #4
    4efa:	d000      	beq.n	4efe <__aeabi_d2f+0x46>
    4efc:	3304      	adds	r3, #4
    4efe:	2280      	movs	r2, #128	; 0x80
    4f00:	04d2      	lsls	r2, r2, #19
    4f02:	401a      	ands	r2, r3
    4f04:	d05a      	beq.n	4fbc <__aeabi_d2f+0x104>
    4f06:	3601      	adds	r6, #1
    4f08:	2eff      	cmp	r6, #255	; 0xff
    4f0a:	d003      	beq.n	4f14 <__aeabi_d2f+0x5c>
    4f0c:	019b      	lsls	r3, r3, #6
    4f0e:	0a5b      	lsrs	r3, r3, #9
    4f10:	b2f4      	uxtb	r4, r6
    4f12:	e001      	b.n	4f18 <__aeabi_d2f+0x60>
    4f14:	24ff      	movs	r4, #255	; 0xff
    4f16:	2300      	movs	r3, #0
    4f18:	0258      	lsls	r0, r3, #9
    4f1a:	05e4      	lsls	r4, r4, #23
    4f1c:	0a40      	lsrs	r0, r0, #9
    4f1e:	07c9      	lsls	r1, r1, #31
    4f20:	4320      	orrs	r0, r4
    4f22:	4308      	orrs	r0, r1
    4f24:	bdf0      	pop	{r4, r5, r6, r7, pc}
    4f26:	2c00      	cmp	r4, #0
    4f28:	d007      	beq.n	4f3a <__aeabi_d2f+0x82>
    4f2a:	431d      	orrs	r5, r3
    4f2c:	d0f2      	beq.n	4f14 <__aeabi_d2f+0x5c>
    4f2e:	2080      	movs	r0, #128	; 0x80
    4f30:	00db      	lsls	r3, r3, #3
    4f32:	0480      	lsls	r0, r0, #18
    4f34:	4303      	orrs	r3, r0
    4f36:	26ff      	movs	r6, #255	; 0xff
    4f38:	e7da      	b.n	4ef0 <__aeabi_d2f+0x38>
    4f3a:	432b      	orrs	r3, r5
    4f3c:	d003      	beq.n	4f46 <__aeabi_d2f+0x8e>
    4f3e:	2305      	movs	r3, #5
    4f40:	08db      	lsrs	r3, r3, #3
    4f42:	2cff      	cmp	r4, #255	; 0xff
    4f44:	d003      	beq.n	4f4e <__aeabi_d2f+0x96>
    4f46:	025b      	lsls	r3, r3, #9
    4f48:	0a5b      	lsrs	r3, r3, #9
    4f4a:	b2e4      	uxtb	r4, r4
    4f4c:	e7e4      	b.n	4f18 <__aeabi_d2f+0x60>
    4f4e:	2b00      	cmp	r3, #0
    4f50:	d032      	beq.n	4fb8 <__aeabi_d2f+0x100>
    4f52:	2080      	movs	r0, #128	; 0x80
    4f54:	03c0      	lsls	r0, r0, #15
    4f56:	4303      	orrs	r3, r0
    4f58:	025b      	lsls	r3, r3, #9
    4f5a:	0a5b      	lsrs	r3, r3, #9
    4f5c:	e7dc      	b.n	4f18 <__aeabi_d2f+0x60>
    4f5e:	0032      	movs	r2, r6
    4f60:	3217      	adds	r2, #23
    4f62:	db14      	blt.n	4f8e <__aeabi_d2f+0xd6>
    4f64:	2280      	movs	r2, #128	; 0x80
    4f66:	271e      	movs	r7, #30
    4f68:	0412      	lsls	r2, r2, #16
    4f6a:	4313      	orrs	r3, r2
    4f6c:	1bbf      	subs	r7, r7, r6
    4f6e:	2f1f      	cmp	r7, #31
    4f70:	dc0f      	bgt.n	4f92 <__aeabi_d2f+0xda>
    4f72:	4a14      	ldr	r2, [pc, #80]	; (4fc4 <__aeabi_d2f+0x10c>)
    4f74:	4694      	mov	ip, r2
    4f76:	4464      	add	r4, ip
    4f78:	002a      	movs	r2, r5
    4f7a:	40a5      	lsls	r5, r4
    4f7c:	002e      	movs	r6, r5
    4f7e:	40a3      	lsls	r3, r4
    4f80:	1e75      	subs	r5, r6, #1
    4f82:	41ae      	sbcs	r6, r5
    4f84:	40fa      	lsrs	r2, r7
    4f86:	4333      	orrs	r3, r6
    4f88:	4313      	orrs	r3, r2
    4f8a:	2600      	movs	r6, #0
    4f8c:	e7b0      	b.n	4ef0 <__aeabi_d2f+0x38>
    4f8e:	2400      	movs	r4, #0
    4f90:	e7d5      	b.n	4f3e <__aeabi_d2f+0x86>
    4f92:	2202      	movs	r2, #2
    4f94:	4252      	negs	r2, r2
    4f96:	1b96      	subs	r6, r2, r6
    4f98:	001a      	movs	r2, r3
    4f9a:	40f2      	lsrs	r2, r6
    4f9c:	2f20      	cmp	r7, #32
    4f9e:	d009      	beq.n	4fb4 <__aeabi_d2f+0xfc>
    4fa0:	4809      	ldr	r0, [pc, #36]	; (4fc8 <__aeabi_d2f+0x110>)
    4fa2:	4684      	mov	ip, r0
    4fa4:	4464      	add	r4, ip
    4fa6:	40a3      	lsls	r3, r4
    4fa8:	432b      	orrs	r3, r5
    4faa:	1e5d      	subs	r5, r3, #1
    4fac:	41ab      	sbcs	r3, r5
    4fae:	2600      	movs	r6, #0
    4fb0:	4313      	orrs	r3, r2
    4fb2:	e79d      	b.n	4ef0 <__aeabi_d2f+0x38>
    4fb4:	2300      	movs	r3, #0
    4fb6:	e7f7      	b.n	4fa8 <__aeabi_d2f+0xf0>
    4fb8:	2300      	movs	r3, #0
    4fba:	e7ad      	b.n	4f18 <__aeabi_d2f+0x60>
    4fbc:	0034      	movs	r4, r6
    4fbe:	e7bf      	b.n	4f40 <__aeabi_d2f+0x88>
    4fc0:	fffffc80 	.word	0xfffffc80
    4fc4:	fffffc82 	.word	0xfffffc82
    4fc8:	fffffca2 	.word	0xfffffca2

00004fcc <__clzsi2>:
    4fcc:	211c      	movs	r1, #28
    4fce:	2301      	movs	r3, #1
    4fd0:	041b      	lsls	r3, r3, #16
    4fd2:	4298      	cmp	r0, r3
    4fd4:	d301      	bcc.n	4fda <__clzsi2+0xe>
    4fd6:	0c00      	lsrs	r0, r0, #16
    4fd8:	3910      	subs	r1, #16
    4fda:	0a1b      	lsrs	r3, r3, #8
    4fdc:	4298      	cmp	r0, r3
    4fde:	d301      	bcc.n	4fe4 <__clzsi2+0x18>
    4fe0:	0a00      	lsrs	r0, r0, #8
    4fe2:	3908      	subs	r1, #8
    4fe4:	091b      	lsrs	r3, r3, #4
    4fe6:	4298      	cmp	r0, r3
    4fe8:	d301      	bcc.n	4fee <__clzsi2+0x22>
    4fea:	0900      	lsrs	r0, r0, #4
    4fec:	3904      	subs	r1, #4
    4fee:	a202      	add	r2, pc, #8	; (adr r2, 4ff8 <__clzsi2+0x2c>)
    4ff0:	5c10      	ldrb	r0, [r2, r0]
    4ff2:	1840      	adds	r0, r0, r1
    4ff4:	4770      	bx	lr
    4ff6:	46c0      	nop			; (mov r8, r8)
    4ff8:	02020304 	.word	0x02020304
    4ffc:	01010101 	.word	0x01010101
	...

00005008 <__clzdi2>:
    5008:	b510      	push	{r4, lr}
    500a:	2900      	cmp	r1, #0
    500c:	d103      	bne.n	5016 <__clzdi2+0xe>
    500e:	f7ff ffdd 	bl	4fcc <__clzsi2>
    5012:	3020      	adds	r0, #32
    5014:	e002      	b.n	501c <__clzdi2+0x14>
    5016:	1c08      	adds	r0, r1, #0
    5018:	f7ff ffd8 	bl	4fcc <__clzsi2>
    501c:	bd10      	pop	{r4, pc}
    501e:	46c0      	nop			; (mov r8, r8)

00005020 <__libc_init_array>:
    5020:	b570      	push	{r4, r5, r6, lr}
    5022:	2600      	movs	r6, #0
    5024:	4d0c      	ldr	r5, [pc, #48]	; (5058 <__libc_init_array+0x38>)
    5026:	4c0d      	ldr	r4, [pc, #52]	; (505c <__libc_init_array+0x3c>)
    5028:	1b64      	subs	r4, r4, r5
    502a:	10a4      	asrs	r4, r4, #2
    502c:	42a6      	cmp	r6, r4
    502e:	d109      	bne.n	5044 <__libc_init_array+0x24>
    5030:	2600      	movs	r6, #0
    5032:	f000 fdb9 	bl	5ba8 <_init>
    5036:	4d0a      	ldr	r5, [pc, #40]	; (5060 <__libc_init_array+0x40>)
    5038:	4c0a      	ldr	r4, [pc, #40]	; (5064 <__libc_init_array+0x44>)
    503a:	1b64      	subs	r4, r4, r5
    503c:	10a4      	asrs	r4, r4, #2
    503e:	42a6      	cmp	r6, r4
    5040:	d105      	bne.n	504e <__libc_init_array+0x2e>
    5042:	bd70      	pop	{r4, r5, r6, pc}
    5044:	00b3      	lsls	r3, r6, #2
    5046:	58eb      	ldr	r3, [r5, r3]
    5048:	4798      	blx	r3
    504a:	3601      	adds	r6, #1
    504c:	e7ee      	b.n	502c <__libc_init_array+0xc>
    504e:	00b3      	lsls	r3, r6, #2
    5050:	58eb      	ldr	r3, [r5, r3]
    5052:	4798      	blx	r3
    5054:	3601      	adds	r6, #1
    5056:	e7f2      	b.n	503e <__libc_init_array+0x1e>
    5058:	00005bb4 	.word	0x00005bb4
    505c:	00005bb4 	.word	0x00005bb4
    5060:	00005bb4 	.word	0x00005bb4
    5064:	00005bb8 	.word	0x00005bb8

00005068 <malloc>:
    5068:	b510      	push	{r4, lr}
    506a:	4b03      	ldr	r3, [pc, #12]	; (5078 <malloc+0x10>)
    506c:	0001      	movs	r1, r0
    506e:	6818      	ldr	r0, [r3, #0]
    5070:	f000 f860 	bl	5134 <_malloc_r>
    5074:	bd10      	pop	{r4, pc}
    5076:	46c0      	nop			; (mov r8, r8)
    5078:	2000001c 	.word	0x2000001c

0000507c <memcpy>:
    507c:	2300      	movs	r3, #0
    507e:	b510      	push	{r4, lr}
    5080:	429a      	cmp	r2, r3
    5082:	d100      	bne.n	5086 <memcpy+0xa>
    5084:	bd10      	pop	{r4, pc}
    5086:	5ccc      	ldrb	r4, [r1, r3]
    5088:	54c4      	strb	r4, [r0, r3]
    508a:	3301      	adds	r3, #1
    508c:	e7f8      	b.n	5080 <memcpy+0x4>

0000508e <memset>:
    508e:	0003      	movs	r3, r0
    5090:	1882      	adds	r2, r0, r2
    5092:	4293      	cmp	r3, r2
    5094:	d100      	bne.n	5098 <memset+0xa>
    5096:	4770      	bx	lr
    5098:	7019      	strb	r1, [r3, #0]
    509a:	3301      	adds	r3, #1
    509c:	e7f9      	b.n	5092 <memset+0x4>
	...

000050a0 <_free_r>:
    50a0:	b570      	push	{r4, r5, r6, lr}
    50a2:	0005      	movs	r5, r0
    50a4:	2900      	cmp	r1, #0
    50a6:	d010      	beq.n	50ca <_free_r+0x2a>
    50a8:	1f0c      	subs	r4, r1, #4
    50aa:	6823      	ldr	r3, [r4, #0]
    50ac:	2b00      	cmp	r3, #0
    50ae:	da00      	bge.n	50b2 <_free_r+0x12>
    50b0:	18e4      	adds	r4, r4, r3
    50b2:	0028      	movs	r0, r5
    50b4:	f000 f8df 	bl	5276 <__malloc_lock>
    50b8:	4a1d      	ldr	r2, [pc, #116]	; (5130 <_free_r+0x90>)
    50ba:	6813      	ldr	r3, [r2, #0]
    50bc:	2b00      	cmp	r3, #0
    50be:	d105      	bne.n	50cc <_free_r+0x2c>
    50c0:	6063      	str	r3, [r4, #4]
    50c2:	6014      	str	r4, [r2, #0]
    50c4:	0028      	movs	r0, r5
    50c6:	f000 f8d7 	bl	5278 <__malloc_unlock>
    50ca:	bd70      	pop	{r4, r5, r6, pc}
    50cc:	42a3      	cmp	r3, r4
    50ce:	d909      	bls.n	50e4 <_free_r+0x44>
    50d0:	6821      	ldr	r1, [r4, #0]
    50d2:	1860      	adds	r0, r4, r1
    50d4:	4283      	cmp	r3, r0
    50d6:	d1f3      	bne.n	50c0 <_free_r+0x20>
    50d8:	6818      	ldr	r0, [r3, #0]
    50da:	685b      	ldr	r3, [r3, #4]
    50dc:	1841      	adds	r1, r0, r1
    50de:	6021      	str	r1, [r4, #0]
    50e0:	e7ee      	b.n	50c0 <_free_r+0x20>
    50e2:	0013      	movs	r3, r2
    50e4:	685a      	ldr	r2, [r3, #4]
    50e6:	2a00      	cmp	r2, #0
    50e8:	d001      	beq.n	50ee <_free_r+0x4e>
    50ea:	42a2      	cmp	r2, r4
    50ec:	d9f9      	bls.n	50e2 <_free_r+0x42>
    50ee:	6819      	ldr	r1, [r3, #0]
    50f0:	1858      	adds	r0, r3, r1
    50f2:	42a0      	cmp	r0, r4
    50f4:	d10b      	bne.n	510e <_free_r+0x6e>
    50f6:	6820      	ldr	r0, [r4, #0]
    50f8:	1809      	adds	r1, r1, r0
    50fa:	1858      	adds	r0, r3, r1
    50fc:	6019      	str	r1, [r3, #0]
    50fe:	4282      	cmp	r2, r0
    5100:	d1e0      	bne.n	50c4 <_free_r+0x24>
    5102:	6810      	ldr	r0, [r2, #0]
    5104:	6852      	ldr	r2, [r2, #4]
    5106:	1841      	adds	r1, r0, r1
    5108:	6019      	str	r1, [r3, #0]
    510a:	605a      	str	r2, [r3, #4]
    510c:	e7da      	b.n	50c4 <_free_r+0x24>
    510e:	42a0      	cmp	r0, r4
    5110:	d902      	bls.n	5118 <_free_r+0x78>
    5112:	230c      	movs	r3, #12
    5114:	602b      	str	r3, [r5, #0]
    5116:	e7d5      	b.n	50c4 <_free_r+0x24>
    5118:	6821      	ldr	r1, [r4, #0]
    511a:	1860      	adds	r0, r4, r1
    511c:	4282      	cmp	r2, r0
    511e:	d103      	bne.n	5128 <_free_r+0x88>
    5120:	6810      	ldr	r0, [r2, #0]
    5122:	6852      	ldr	r2, [r2, #4]
    5124:	1841      	adds	r1, r0, r1
    5126:	6021      	str	r1, [r4, #0]
    5128:	6062      	str	r2, [r4, #4]
    512a:	605c      	str	r4, [r3, #4]
    512c:	e7ca      	b.n	50c4 <_free_r+0x24>
    512e:	46c0      	nop			; (mov r8, r8)
    5130:	20001428 	.word	0x20001428

00005134 <_malloc_r>:
    5134:	2303      	movs	r3, #3
    5136:	b570      	push	{r4, r5, r6, lr}
    5138:	1ccd      	adds	r5, r1, #3
    513a:	439d      	bics	r5, r3
    513c:	3508      	adds	r5, #8
    513e:	0006      	movs	r6, r0
    5140:	2d0c      	cmp	r5, #12
    5142:	d21e      	bcs.n	5182 <_malloc_r+0x4e>
    5144:	250c      	movs	r5, #12
    5146:	42a9      	cmp	r1, r5
    5148:	d81d      	bhi.n	5186 <_malloc_r+0x52>
    514a:	0030      	movs	r0, r6
    514c:	f000 f893 	bl	5276 <__malloc_lock>
    5150:	4a25      	ldr	r2, [pc, #148]	; (51e8 <_malloc_r+0xb4>)
    5152:	6814      	ldr	r4, [r2, #0]
    5154:	0021      	movs	r1, r4
    5156:	2900      	cmp	r1, #0
    5158:	d119      	bne.n	518e <_malloc_r+0x5a>
    515a:	4c24      	ldr	r4, [pc, #144]	; (51ec <_malloc_r+0xb8>)
    515c:	6823      	ldr	r3, [r4, #0]
    515e:	2b00      	cmp	r3, #0
    5160:	d103      	bne.n	516a <_malloc_r+0x36>
    5162:	0030      	movs	r0, r6
    5164:	f000 f844 	bl	51f0 <_sbrk_r>
    5168:	6020      	str	r0, [r4, #0]
    516a:	0029      	movs	r1, r5
    516c:	0030      	movs	r0, r6
    516e:	f000 f83f 	bl	51f0 <_sbrk_r>
    5172:	1c43      	adds	r3, r0, #1
    5174:	d12c      	bne.n	51d0 <_malloc_r+0x9c>
    5176:	230c      	movs	r3, #12
    5178:	0030      	movs	r0, r6
    517a:	6033      	str	r3, [r6, #0]
    517c:	f000 f87c 	bl	5278 <__malloc_unlock>
    5180:	e003      	b.n	518a <_malloc_r+0x56>
    5182:	2d00      	cmp	r5, #0
    5184:	dadf      	bge.n	5146 <_malloc_r+0x12>
    5186:	230c      	movs	r3, #12
    5188:	6033      	str	r3, [r6, #0]
    518a:	2000      	movs	r0, #0
    518c:	bd70      	pop	{r4, r5, r6, pc}
    518e:	680b      	ldr	r3, [r1, #0]
    5190:	1b5b      	subs	r3, r3, r5
    5192:	d41a      	bmi.n	51ca <_malloc_r+0x96>
    5194:	2b0b      	cmp	r3, #11
    5196:	d903      	bls.n	51a0 <_malloc_r+0x6c>
    5198:	600b      	str	r3, [r1, #0]
    519a:	18cc      	adds	r4, r1, r3
    519c:	6025      	str	r5, [r4, #0]
    519e:	e003      	b.n	51a8 <_malloc_r+0x74>
    51a0:	428c      	cmp	r4, r1
    51a2:	d10e      	bne.n	51c2 <_malloc_r+0x8e>
    51a4:	6863      	ldr	r3, [r4, #4]
    51a6:	6013      	str	r3, [r2, #0]
    51a8:	0030      	movs	r0, r6
    51aa:	f000 f865 	bl	5278 <__malloc_unlock>
    51ae:	0020      	movs	r0, r4
    51b0:	2207      	movs	r2, #7
    51b2:	300b      	adds	r0, #11
    51b4:	1d23      	adds	r3, r4, #4
    51b6:	4390      	bics	r0, r2
    51b8:	1ac3      	subs	r3, r0, r3
    51ba:	d0e7      	beq.n	518c <_malloc_r+0x58>
    51bc:	425a      	negs	r2, r3
    51be:	50e2      	str	r2, [r4, r3]
    51c0:	e7e4      	b.n	518c <_malloc_r+0x58>
    51c2:	684b      	ldr	r3, [r1, #4]
    51c4:	6063      	str	r3, [r4, #4]
    51c6:	000c      	movs	r4, r1
    51c8:	e7ee      	b.n	51a8 <_malloc_r+0x74>
    51ca:	000c      	movs	r4, r1
    51cc:	6849      	ldr	r1, [r1, #4]
    51ce:	e7c2      	b.n	5156 <_malloc_r+0x22>
    51d0:	2303      	movs	r3, #3
    51d2:	1cc4      	adds	r4, r0, #3
    51d4:	439c      	bics	r4, r3
    51d6:	42a0      	cmp	r0, r4
    51d8:	d0e0      	beq.n	519c <_malloc_r+0x68>
    51da:	1a21      	subs	r1, r4, r0
    51dc:	0030      	movs	r0, r6
    51de:	f000 f807 	bl	51f0 <_sbrk_r>
    51e2:	1c43      	adds	r3, r0, #1
    51e4:	d1da      	bne.n	519c <_malloc_r+0x68>
    51e6:	e7c6      	b.n	5176 <_malloc_r+0x42>
    51e8:	20001428 	.word	0x20001428
    51ec:	2000142c 	.word	0x2000142c

000051f0 <_sbrk_r>:
    51f0:	2300      	movs	r3, #0
    51f2:	b570      	push	{r4, r5, r6, lr}
    51f4:	4c06      	ldr	r4, [pc, #24]	; (5210 <_sbrk_r+0x20>)
    51f6:	0005      	movs	r5, r0
    51f8:	0008      	movs	r0, r1
    51fa:	6023      	str	r3, [r4, #0]
    51fc:	f7fd fcce 	bl	2b9c <_sbrk>
    5200:	1c43      	adds	r3, r0, #1
    5202:	d103      	bne.n	520c <_sbrk_r+0x1c>
    5204:	6823      	ldr	r3, [r4, #0]
    5206:	2b00      	cmp	r3, #0
    5208:	d000      	beq.n	520c <_sbrk_r+0x1c>
    520a:	602b      	str	r3, [r5, #0]
    520c:	bd70      	pop	{r4, r5, r6, pc}
    520e:	46c0      	nop			; (mov r8, r8)
    5210:	20001e34 	.word	0x20001e34

00005214 <siprintf>:
    5214:	b40e      	push	{r1, r2, r3}
    5216:	b510      	push	{r4, lr}
    5218:	b09d      	sub	sp, #116	; 0x74
    521a:	a902      	add	r1, sp, #8
    521c:	9002      	str	r0, [sp, #8]
    521e:	6108      	str	r0, [r1, #16]
    5220:	480b      	ldr	r0, [pc, #44]	; (5250 <siprintf+0x3c>)
    5222:	2482      	movs	r4, #130	; 0x82
    5224:	6088      	str	r0, [r1, #8]
    5226:	6148      	str	r0, [r1, #20]
    5228:	2001      	movs	r0, #1
    522a:	4240      	negs	r0, r0
    522c:	ab1f      	add	r3, sp, #124	; 0x7c
    522e:	81c8      	strh	r0, [r1, #14]
    5230:	4808      	ldr	r0, [pc, #32]	; (5254 <siprintf+0x40>)
    5232:	cb04      	ldmia	r3!, {r2}
    5234:	00a4      	lsls	r4, r4, #2
    5236:	6800      	ldr	r0, [r0, #0]
    5238:	9301      	str	r3, [sp, #4]
    523a:	818c      	strh	r4, [r1, #12]
    523c:	f000 f880 	bl	5340 <_svfiprintf_r>
    5240:	2300      	movs	r3, #0
    5242:	9a02      	ldr	r2, [sp, #8]
    5244:	7013      	strb	r3, [r2, #0]
    5246:	b01d      	add	sp, #116	; 0x74
    5248:	bc10      	pop	{r4}
    524a:	bc08      	pop	{r3}
    524c:	b003      	add	sp, #12
    524e:	4718      	bx	r3
    5250:	7fffffff 	.word	0x7fffffff
    5254:	2000001c 	.word	0x2000001c

00005258 <strcpy>:
    5258:	1c03      	adds	r3, r0, #0
    525a:	780a      	ldrb	r2, [r1, #0]
    525c:	3101      	adds	r1, #1
    525e:	701a      	strb	r2, [r3, #0]
    5260:	3301      	adds	r3, #1
    5262:	2a00      	cmp	r2, #0
    5264:	d1f9      	bne.n	525a <strcpy+0x2>
    5266:	4770      	bx	lr

00005268 <strlen>:
    5268:	2300      	movs	r3, #0
    526a:	5cc2      	ldrb	r2, [r0, r3]
    526c:	3301      	adds	r3, #1
    526e:	2a00      	cmp	r2, #0
    5270:	d1fb      	bne.n	526a <strlen+0x2>
    5272:	1e58      	subs	r0, r3, #1
    5274:	4770      	bx	lr

00005276 <__malloc_lock>:
    5276:	4770      	bx	lr

00005278 <__malloc_unlock>:
    5278:	4770      	bx	lr
	...

0000527c <__ssputs_r>:
    527c:	b5f0      	push	{r4, r5, r6, r7, lr}
    527e:	688e      	ldr	r6, [r1, #8]
    5280:	b085      	sub	sp, #20
    5282:	0007      	movs	r7, r0
    5284:	000c      	movs	r4, r1
    5286:	9203      	str	r2, [sp, #12]
    5288:	9301      	str	r3, [sp, #4]
    528a:	429e      	cmp	r6, r3
    528c:	d839      	bhi.n	5302 <__ssputs_r+0x86>
    528e:	2390      	movs	r3, #144	; 0x90
    5290:	898a      	ldrh	r2, [r1, #12]
    5292:	00db      	lsls	r3, r3, #3
    5294:	421a      	tst	r2, r3
    5296:	d034      	beq.n	5302 <__ssputs_r+0x86>
    5298:	2503      	movs	r5, #3
    529a:	6909      	ldr	r1, [r1, #16]
    529c:	6823      	ldr	r3, [r4, #0]
    529e:	1a5b      	subs	r3, r3, r1
    52a0:	9302      	str	r3, [sp, #8]
    52a2:	6963      	ldr	r3, [r4, #20]
    52a4:	9802      	ldr	r0, [sp, #8]
    52a6:	435d      	muls	r5, r3
    52a8:	0feb      	lsrs	r3, r5, #31
    52aa:	195d      	adds	r5, r3, r5
    52ac:	9b01      	ldr	r3, [sp, #4]
    52ae:	106d      	asrs	r5, r5, #1
    52b0:	3301      	adds	r3, #1
    52b2:	181b      	adds	r3, r3, r0
    52b4:	42ab      	cmp	r3, r5
    52b6:	d900      	bls.n	52ba <__ssputs_r+0x3e>
    52b8:	001d      	movs	r5, r3
    52ba:	0553      	lsls	r3, r2, #21
    52bc:	d532      	bpl.n	5324 <__ssputs_r+0xa8>
    52be:	0029      	movs	r1, r5
    52c0:	0038      	movs	r0, r7
    52c2:	f7ff ff37 	bl	5134 <_malloc_r>
    52c6:	1e06      	subs	r6, r0, #0
    52c8:	d109      	bne.n	52de <__ssputs_r+0x62>
    52ca:	230c      	movs	r3, #12
    52cc:	603b      	str	r3, [r7, #0]
    52ce:	2340      	movs	r3, #64	; 0x40
    52d0:	2001      	movs	r0, #1
    52d2:	89a2      	ldrh	r2, [r4, #12]
    52d4:	4240      	negs	r0, r0
    52d6:	4313      	orrs	r3, r2
    52d8:	81a3      	strh	r3, [r4, #12]
    52da:	b005      	add	sp, #20
    52dc:	bdf0      	pop	{r4, r5, r6, r7, pc}
    52de:	9a02      	ldr	r2, [sp, #8]
    52e0:	6921      	ldr	r1, [r4, #16]
    52e2:	f7ff fecb 	bl	507c <memcpy>
    52e6:	89a3      	ldrh	r3, [r4, #12]
    52e8:	4a14      	ldr	r2, [pc, #80]	; (533c <__ssputs_r+0xc0>)
    52ea:	401a      	ands	r2, r3
    52ec:	2380      	movs	r3, #128	; 0x80
    52ee:	4313      	orrs	r3, r2
    52f0:	81a3      	strh	r3, [r4, #12]
    52f2:	9b02      	ldr	r3, [sp, #8]
    52f4:	6126      	str	r6, [r4, #16]
    52f6:	18f6      	adds	r6, r6, r3
    52f8:	6026      	str	r6, [r4, #0]
    52fa:	6165      	str	r5, [r4, #20]
    52fc:	9e01      	ldr	r6, [sp, #4]
    52fe:	1aed      	subs	r5, r5, r3
    5300:	60a5      	str	r5, [r4, #8]
    5302:	9b01      	ldr	r3, [sp, #4]
    5304:	42b3      	cmp	r3, r6
    5306:	d200      	bcs.n	530a <__ssputs_r+0x8e>
    5308:	001e      	movs	r6, r3
    530a:	0032      	movs	r2, r6
    530c:	9903      	ldr	r1, [sp, #12]
    530e:	6820      	ldr	r0, [r4, #0]
    5310:	f000 faad 	bl	586e <memmove>
    5314:	68a3      	ldr	r3, [r4, #8]
    5316:	2000      	movs	r0, #0
    5318:	1b9b      	subs	r3, r3, r6
    531a:	60a3      	str	r3, [r4, #8]
    531c:	6823      	ldr	r3, [r4, #0]
    531e:	199e      	adds	r6, r3, r6
    5320:	6026      	str	r6, [r4, #0]
    5322:	e7da      	b.n	52da <__ssputs_r+0x5e>
    5324:	002a      	movs	r2, r5
    5326:	0038      	movs	r0, r7
    5328:	f000 fab3 	bl	5892 <_realloc_r>
    532c:	1e06      	subs	r6, r0, #0
    532e:	d1e0      	bne.n	52f2 <__ssputs_r+0x76>
    5330:	6921      	ldr	r1, [r4, #16]
    5332:	0038      	movs	r0, r7
    5334:	f7ff feb4 	bl	50a0 <_free_r>
    5338:	e7c7      	b.n	52ca <__ssputs_r+0x4e>
    533a:	46c0      	nop			; (mov r8, r8)
    533c:	fffffb7f 	.word	0xfffffb7f

00005340 <_svfiprintf_r>:
    5340:	b5f0      	push	{r4, r5, r6, r7, lr}
    5342:	b09f      	sub	sp, #124	; 0x7c
    5344:	9002      	str	r0, [sp, #8]
    5346:	9305      	str	r3, [sp, #20]
    5348:	898b      	ldrh	r3, [r1, #12]
    534a:	000f      	movs	r7, r1
    534c:	0016      	movs	r6, r2
    534e:	061b      	lsls	r3, r3, #24
    5350:	d511      	bpl.n	5376 <_svfiprintf_r+0x36>
    5352:	690b      	ldr	r3, [r1, #16]
    5354:	2b00      	cmp	r3, #0
    5356:	d10e      	bne.n	5376 <_svfiprintf_r+0x36>
    5358:	2140      	movs	r1, #64	; 0x40
    535a:	f7ff feeb 	bl	5134 <_malloc_r>
    535e:	6038      	str	r0, [r7, #0]
    5360:	6138      	str	r0, [r7, #16]
    5362:	2800      	cmp	r0, #0
    5364:	d105      	bne.n	5372 <_svfiprintf_r+0x32>
    5366:	230c      	movs	r3, #12
    5368:	9a02      	ldr	r2, [sp, #8]
    536a:	3801      	subs	r0, #1
    536c:	6013      	str	r3, [r2, #0]
    536e:	b01f      	add	sp, #124	; 0x7c
    5370:	bdf0      	pop	{r4, r5, r6, r7, pc}
    5372:	2340      	movs	r3, #64	; 0x40
    5374:	617b      	str	r3, [r7, #20]
    5376:	2300      	movs	r3, #0
    5378:	ad06      	add	r5, sp, #24
    537a:	616b      	str	r3, [r5, #20]
    537c:	3320      	adds	r3, #32
    537e:	766b      	strb	r3, [r5, #25]
    5380:	3310      	adds	r3, #16
    5382:	76ab      	strb	r3, [r5, #26]
    5384:	0034      	movs	r4, r6
    5386:	7823      	ldrb	r3, [r4, #0]
    5388:	2b00      	cmp	r3, #0
    538a:	d147      	bne.n	541c <_svfiprintf_r+0xdc>
    538c:	1ba3      	subs	r3, r4, r6
    538e:	9304      	str	r3, [sp, #16]
    5390:	d00d      	beq.n	53ae <_svfiprintf_r+0x6e>
    5392:	1ba3      	subs	r3, r4, r6
    5394:	0032      	movs	r2, r6
    5396:	0039      	movs	r1, r7
    5398:	9802      	ldr	r0, [sp, #8]
    539a:	f7ff ff6f 	bl	527c <__ssputs_r>
    539e:	1c43      	adds	r3, r0, #1
    53a0:	d100      	bne.n	53a4 <_svfiprintf_r+0x64>
    53a2:	e0b5      	b.n	5510 <_svfiprintf_r+0x1d0>
    53a4:	696a      	ldr	r2, [r5, #20]
    53a6:	9b04      	ldr	r3, [sp, #16]
    53a8:	4694      	mov	ip, r2
    53aa:	4463      	add	r3, ip
    53ac:	616b      	str	r3, [r5, #20]
    53ae:	7823      	ldrb	r3, [r4, #0]
    53b0:	2b00      	cmp	r3, #0
    53b2:	d100      	bne.n	53b6 <_svfiprintf_r+0x76>
    53b4:	e0ac      	b.n	5510 <_svfiprintf_r+0x1d0>
    53b6:	2201      	movs	r2, #1
    53b8:	2300      	movs	r3, #0
    53ba:	4252      	negs	r2, r2
    53bc:	606a      	str	r2, [r5, #4]
    53be:	a902      	add	r1, sp, #8
    53c0:	3254      	adds	r2, #84	; 0x54
    53c2:	1852      	adds	r2, r2, r1
    53c4:	3401      	adds	r4, #1
    53c6:	602b      	str	r3, [r5, #0]
    53c8:	60eb      	str	r3, [r5, #12]
    53ca:	60ab      	str	r3, [r5, #8]
    53cc:	7013      	strb	r3, [r2, #0]
    53ce:	65ab      	str	r3, [r5, #88]	; 0x58
    53d0:	4e58      	ldr	r6, [pc, #352]	; (5534 <_svfiprintf_r+0x1f4>)
    53d2:	2205      	movs	r2, #5
    53d4:	7821      	ldrb	r1, [r4, #0]
    53d6:	0030      	movs	r0, r6
    53d8:	f000 fa3e 	bl	5858 <memchr>
    53dc:	1c62      	adds	r2, r4, #1
    53de:	2800      	cmp	r0, #0
    53e0:	d120      	bne.n	5424 <_svfiprintf_r+0xe4>
    53e2:	6829      	ldr	r1, [r5, #0]
    53e4:	06cb      	lsls	r3, r1, #27
    53e6:	d504      	bpl.n	53f2 <_svfiprintf_r+0xb2>
    53e8:	2353      	movs	r3, #83	; 0x53
    53ea:	ae02      	add	r6, sp, #8
    53ec:	3020      	adds	r0, #32
    53ee:	199b      	adds	r3, r3, r6
    53f0:	7018      	strb	r0, [r3, #0]
    53f2:	070b      	lsls	r3, r1, #28
    53f4:	d504      	bpl.n	5400 <_svfiprintf_r+0xc0>
    53f6:	2353      	movs	r3, #83	; 0x53
    53f8:	202b      	movs	r0, #43	; 0x2b
    53fa:	ae02      	add	r6, sp, #8
    53fc:	199b      	adds	r3, r3, r6
    53fe:	7018      	strb	r0, [r3, #0]
    5400:	7823      	ldrb	r3, [r4, #0]
    5402:	2b2a      	cmp	r3, #42	; 0x2a
    5404:	d016      	beq.n	5434 <_svfiprintf_r+0xf4>
    5406:	2000      	movs	r0, #0
    5408:	210a      	movs	r1, #10
    540a:	9b09      	ldr	r3, [sp, #36]	; 0x24
    540c:	7822      	ldrb	r2, [r4, #0]
    540e:	3a30      	subs	r2, #48	; 0x30
    5410:	2a09      	cmp	r2, #9
    5412:	d955      	bls.n	54c0 <_svfiprintf_r+0x180>
    5414:	2800      	cmp	r0, #0
    5416:	d015      	beq.n	5444 <_svfiprintf_r+0x104>
    5418:	9309      	str	r3, [sp, #36]	; 0x24
    541a:	e013      	b.n	5444 <_svfiprintf_r+0x104>
    541c:	2b25      	cmp	r3, #37	; 0x25
    541e:	d0b5      	beq.n	538c <_svfiprintf_r+0x4c>
    5420:	3401      	adds	r4, #1
    5422:	e7b0      	b.n	5386 <_svfiprintf_r+0x46>
    5424:	2301      	movs	r3, #1
    5426:	1b80      	subs	r0, r0, r6
    5428:	4083      	lsls	r3, r0
    542a:	6829      	ldr	r1, [r5, #0]
    542c:	0014      	movs	r4, r2
    542e:	430b      	orrs	r3, r1
    5430:	602b      	str	r3, [r5, #0]
    5432:	e7cd      	b.n	53d0 <_svfiprintf_r+0x90>
    5434:	9b05      	ldr	r3, [sp, #20]
    5436:	1d18      	adds	r0, r3, #4
    5438:	681b      	ldr	r3, [r3, #0]
    543a:	9005      	str	r0, [sp, #20]
    543c:	2b00      	cmp	r3, #0
    543e:	db39      	blt.n	54b4 <_svfiprintf_r+0x174>
    5440:	9309      	str	r3, [sp, #36]	; 0x24
    5442:	0014      	movs	r4, r2
    5444:	7823      	ldrb	r3, [r4, #0]
    5446:	2b2e      	cmp	r3, #46	; 0x2e
    5448:	d10b      	bne.n	5462 <_svfiprintf_r+0x122>
    544a:	7863      	ldrb	r3, [r4, #1]
    544c:	1c62      	adds	r2, r4, #1
    544e:	2b2a      	cmp	r3, #42	; 0x2a
    5450:	d13e      	bne.n	54d0 <_svfiprintf_r+0x190>
    5452:	9b05      	ldr	r3, [sp, #20]
    5454:	3402      	adds	r4, #2
    5456:	1d1a      	adds	r2, r3, #4
    5458:	681b      	ldr	r3, [r3, #0]
    545a:	9205      	str	r2, [sp, #20]
    545c:	2b00      	cmp	r3, #0
    545e:	db34      	blt.n	54ca <_svfiprintf_r+0x18a>
    5460:	9307      	str	r3, [sp, #28]
    5462:	4e35      	ldr	r6, [pc, #212]	; (5538 <_svfiprintf_r+0x1f8>)
    5464:	7821      	ldrb	r1, [r4, #0]
    5466:	2203      	movs	r2, #3
    5468:	0030      	movs	r0, r6
    546a:	f000 f9f5 	bl	5858 <memchr>
    546e:	2800      	cmp	r0, #0
    5470:	d006      	beq.n	5480 <_svfiprintf_r+0x140>
    5472:	2340      	movs	r3, #64	; 0x40
    5474:	1b80      	subs	r0, r0, r6
    5476:	4083      	lsls	r3, r0
    5478:	682a      	ldr	r2, [r5, #0]
    547a:	3401      	adds	r4, #1
    547c:	4313      	orrs	r3, r2
    547e:	602b      	str	r3, [r5, #0]
    5480:	7821      	ldrb	r1, [r4, #0]
    5482:	2206      	movs	r2, #6
    5484:	482d      	ldr	r0, [pc, #180]	; (553c <_svfiprintf_r+0x1fc>)
    5486:	1c66      	adds	r6, r4, #1
    5488:	7629      	strb	r1, [r5, #24]
    548a:	f000 f9e5 	bl	5858 <memchr>
    548e:	2800      	cmp	r0, #0
    5490:	d046      	beq.n	5520 <_svfiprintf_r+0x1e0>
    5492:	4b2b      	ldr	r3, [pc, #172]	; (5540 <_svfiprintf_r+0x200>)
    5494:	2b00      	cmp	r3, #0
    5496:	d12f      	bne.n	54f8 <_svfiprintf_r+0x1b8>
    5498:	6829      	ldr	r1, [r5, #0]
    549a:	9b05      	ldr	r3, [sp, #20]
    549c:	2207      	movs	r2, #7
    549e:	05c9      	lsls	r1, r1, #23
    54a0:	d528      	bpl.n	54f4 <_svfiprintf_r+0x1b4>
    54a2:	189b      	adds	r3, r3, r2
    54a4:	4393      	bics	r3, r2
    54a6:	3308      	adds	r3, #8
    54a8:	9305      	str	r3, [sp, #20]
    54aa:	696b      	ldr	r3, [r5, #20]
    54ac:	9a03      	ldr	r2, [sp, #12]
    54ae:	189b      	adds	r3, r3, r2
    54b0:	616b      	str	r3, [r5, #20]
    54b2:	e767      	b.n	5384 <_svfiprintf_r+0x44>
    54b4:	425b      	negs	r3, r3
    54b6:	60eb      	str	r3, [r5, #12]
    54b8:	2302      	movs	r3, #2
    54ba:	430b      	orrs	r3, r1
    54bc:	602b      	str	r3, [r5, #0]
    54be:	e7c0      	b.n	5442 <_svfiprintf_r+0x102>
    54c0:	434b      	muls	r3, r1
    54c2:	3401      	adds	r4, #1
    54c4:	189b      	adds	r3, r3, r2
    54c6:	2001      	movs	r0, #1
    54c8:	e7a0      	b.n	540c <_svfiprintf_r+0xcc>
    54ca:	2301      	movs	r3, #1
    54cc:	425b      	negs	r3, r3
    54ce:	e7c7      	b.n	5460 <_svfiprintf_r+0x120>
    54d0:	2300      	movs	r3, #0
    54d2:	0014      	movs	r4, r2
    54d4:	200a      	movs	r0, #10
    54d6:	001a      	movs	r2, r3
    54d8:	606b      	str	r3, [r5, #4]
    54da:	7821      	ldrb	r1, [r4, #0]
    54dc:	3930      	subs	r1, #48	; 0x30
    54de:	2909      	cmp	r1, #9
    54e0:	d903      	bls.n	54ea <_svfiprintf_r+0x1aa>
    54e2:	2b00      	cmp	r3, #0
    54e4:	d0bd      	beq.n	5462 <_svfiprintf_r+0x122>
    54e6:	9207      	str	r2, [sp, #28]
    54e8:	e7bb      	b.n	5462 <_svfiprintf_r+0x122>
    54ea:	4342      	muls	r2, r0
    54ec:	3401      	adds	r4, #1
    54ee:	1852      	adds	r2, r2, r1
    54f0:	2301      	movs	r3, #1
    54f2:	e7f2      	b.n	54da <_svfiprintf_r+0x19a>
    54f4:	3307      	adds	r3, #7
    54f6:	e7d5      	b.n	54a4 <_svfiprintf_r+0x164>
    54f8:	ab05      	add	r3, sp, #20
    54fa:	9300      	str	r3, [sp, #0]
    54fc:	003a      	movs	r2, r7
    54fe:	4b11      	ldr	r3, [pc, #68]	; (5544 <_svfiprintf_r+0x204>)
    5500:	0029      	movs	r1, r5
    5502:	9802      	ldr	r0, [sp, #8]
    5504:	e000      	b.n	5508 <_svfiprintf_r+0x1c8>
    5506:	bf00      	nop
    5508:	9003      	str	r0, [sp, #12]
    550a:	9b03      	ldr	r3, [sp, #12]
    550c:	3301      	adds	r3, #1
    550e:	d1cc      	bne.n	54aa <_svfiprintf_r+0x16a>
    5510:	89bb      	ldrh	r3, [r7, #12]
    5512:	980b      	ldr	r0, [sp, #44]	; 0x2c
    5514:	065b      	lsls	r3, r3, #25
    5516:	d400      	bmi.n	551a <_svfiprintf_r+0x1da>
    5518:	e729      	b.n	536e <_svfiprintf_r+0x2e>
    551a:	2001      	movs	r0, #1
    551c:	4240      	negs	r0, r0
    551e:	e726      	b.n	536e <_svfiprintf_r+0x2e>
    5520:	ab05      	add	r3, sp, #20
    5522:	9300      	str	r3, [sp, #0]
    5524:	003a      	movs	r2, r7
    5526:	4b07      	ldr	r3, [pc, #28]	; (5544 <_svfiprintf_r+0x204>)
    5528:	0029      	movs	r1, r5
    552a:	9802      	ldr	r0, [sp, #8]
    552c:	f000 f87a 	bl	5624 <_printf_i>
    5530:	e7ea      	b.n	5508 <_svfiprintf_r+0x1c8>
    5532:	46c0      	nop			; (mov r8, r8)
    5534:	00005b74 	.word	0x00005b74
    5538:	00005b7a 	.word	0x00005b7a
    553c:	00005b7e 	.word	0x00005b7e
    5540:	00000000 	.word	0x00000000
    5544:	0000527d 	.word	0x0000527d

00005548 <_printf_common>:
    5548:	b5f7      	push	{r0, r1, r2, r4, r5, r6, r7, lr}
    554a:	0015      	movs	r5, r2
    554c:	9301      	str	r3, [sp, #4]
    554e:	688a      	ldr	r2, [r1, #8]
    5550:	690b      	ldr	r3, [r1, #16]
    5552:	9000      	str	r0, [sp, #0]
    5554:	000c      	movs	r4, r1
    5556:	4293      	cmp	r3, r2
    5558:	da00      	bge.n	555c <_printf_common+0x14>
    555a:	0013      	movs	r3, r2
    555c:	0022      	movs	r2, r4
    555e:	602b      	str	r3, [r5, #0]
    5560:	3243      	adds	r2, #67	; 0x43
    5562:	7812      	ldrb	r2, [r2, #0]
    5564:	2a00      	cmp	r2, #0
    5566:	d001      	beq.n	556c <_printf_common+0x24>
    5568:	3301      	adds	r3, #1
    556a:	602b      	str	r3, [r5, #0]
    556c:	6823      	ldr	r3, [r4, #0]
    556e:	069b      	lsls	r3, r3, #26
    5570:	d502      	bpl.n	5578 <_printf_common+0x30>
    5572:	682b      	ldr	r3, [r5, #0]
    5574:	3302      	adds	r3, #2
    5576:	602b      	str	r3, [r5, #0]
    5578:	2706      	movs	r7, #6
    557a:	6823      	ldr	r3, [r4, #0]
    557c:	401f      	ands	r7, r3
    557e:	d027      	beq.n	55d0 <_printf_common+0x88>
    5580:	0023      	movs	r3, r4
    5582:	3343      	adds	r3, #67	; 0x43
    5584:	781b      	ldrb	r3, [r3, #0]
    5586:	1e5a      	subs	r2, r3, #1
    5588:	4193      	sbcs	r3, r2
    558a:	6822      	ldr	r2, [r4, #0]
    558c:	0692      	lsls	r2, r2, #26
    558e:	d430      	bmi.n	55f2 <_printf_common+0xaa>
    5590:	0022      	movs	r2, r4
    5592:	9901      	ldr	r1, [sp, #4]
    5594:	3243      	adds	r2, #67	; 0x43
    5596:	9800      	ldr	r0, [sp, #0]
    5598:	9e08      	ldr	r6, [sp, #32]
    559a:	47b0      	blx	r6
    559c:	1c43      	adds	r3, r0, #1
    559e:	d025      	beq.n	55ec <_printf_common+0xa4>
    55a0:	2306      	movs	r3, #6
    55a2:	6820      	ldr	r0, [r4, #0]
    55a4:	682a      	ldr	r2, [r5, #0]
    55a6:	68e1      	ldr	r1, [r4, #12]
    55a8:	4003      	ands	r3, r0
    55aa:	2500      	movs	r5, #0
    55ac:	2b04      	cmp	r3, #4
    55ae:	d103      	bne.n	55b8 <_printf_common+0x70>
    55b0:	1a8d      	subs	r5, r1, r2
    55b2:	43eb      	mvns	r3, r5
    55b4:	17db      	asrs	r3, r3, #31
    55b6:	401d      	ands	r5, r3
    55b8:	68a3      	ldr	r3, [r4, #8]
    55ba:	6922      	ldr	r2, [r4, #16]
    55bc:	4293      	cmp	r3, r2
    55be:	dd01      	ble.n	55c4 <_printf_common+0x7c>
    55c0:	1a9b      	subs	r3, r3, r2
    55c2:	18ed      	adds	r5, r5, r3
    55c4:	2700      	movs	r7, #0
    55c6:	42bd      	cmp	r5, r7
    55c8:	d120      	bne.n	560c <_printf_common+0xc4>
    55ca:	2000      	movs	r0, #0
    55cc:	e010      	b.n	55f0 <_printf_common+0xa8>
    55ce:	3701      	adds	r7, #1
    55d0:	68e3      	ldr	r3, [r4, #12]
    55d2:	682a      	ldr	r2, [r5, #0]
    55d4:	1a9b      	subs	r3, r3, r2
    55d6:	429f      	cmp	r7, r3
    55d8:	dad2      	bge.n	5580 <_printf_common+0x38>
    55da:	0022      	movs	r2, r4
    55dc:	2301      	movs	r3, #1
    55de:	3219      	adds	r2, #25
    55e0:	9901      	ldr	r1, [sp, #4]
    55e2:	9800      	ldr	r0, [sp, #0]
    55e4:	9e08      	ldr	r6, [sp, #32]
    55e6:	47b0      	blx	r6
    55e8:	1c43      	adds	r3, r0, #1
    55ea:	d1f0      	bne.n	55ce <_printf_common+0x86>
    55ec:	2001      	movs	r0, #1
    55ee:	4240      	negs	r0, r0
    55f0:	bdfe      	pop	{r1, r2, r3, r4, r5, r6, r7, pc}
    55f2:	2030      	movs	r0, #48	; 0x30
    55f4:	18e1      	adds	r1, r4, r3
    55f6:	3143      	adds	r1, #67	; 0x43
    55f8:	7008      	strb	r0, [r1, #0]
    55fa:	0021      	movs	r1, r4
    55fc:	1c5a      	adds	r2, r3, #1
    55fe:	3145      	adds	r1, #69	; 0x45
    5600:	7809      	ldrb	r1, [r1, #0]
    5602:	18a2      	adds	r2, r4, r2
    5604:	3243      	adds	r2, #67	; 0x43
    5606:	3302      	adds	r3, #2
    5608:	7011      	strb	r1, [r2, #0]
    560a:	e7c1      	b.n	5590 <_printf_common+0x48>
    560c:	0022      	movs	r2, r4
    560e:	2301      	movs	r3, #1
    5610:	321a      	adds	r2, #26
    5612:	9901      	ldr	r1, [sp, #4]
    5614:	9800      	ldr	r0, [sp, #0]
    5616:	9e08      	ldr	r6, [sp, #32]
    5618:	47b0      	blx	r6
    561a:	1c43      	adds	r3, r0, #1
    561c:	d0e6      	beq.n	55ec <_printf_common+0xa4>
    561e:	3701      	adds	r7, #1
    5620:	e7d1      	b.n	55c6 <_printf_common+0x7e>
	...

00005624 <_printf_i>:
    5624:	b5f0      	push	{r4, r5, r6, r7, lr}
    5626:	b08b      	sub	sp, #44	; 0x2c
    5628:	9206      	str	r2, [sp, #24]
    562a:	000a      	movs	r2, r1
    562c:	3243      	adds	r2, #67	; 0x43
    562e:	9307      	str	r3, [sp, #28]
    5630:	9005      	str	r0, [sp, #20]
    5632:	9204      	str	r2, [sp, #16]
    5634:	7e0a      	ldrb	r2, [r1, #24]
    5636:	000c      	movs	r4, r1
    5638:	9b10      	ldr	r3, [sp, #64]	; 0x40
    563a:	2a6e      	cmp	r2, #110	; 0x6e
    563c:	d100      	bne.n	5640 <_printf_i+0x1c>
    563e:	e08f      	b.n	5760 <_printf_i+0x13c>
    5640:	d817      	bhi.n	5672 <_printf_i+0x4e>
    5642:	2a63      	cmp	r2, #99	; 0x63
    5644:	d02c      	beq.n	56a0 <_printf_i+0x7c>
    5646:	d808      	bhi.n	565a <_printf_i+0x36>
    5648:	2a00      	cmp	r2, #0
    564a:	d100      	bne.n	564e <_printf_i+0x2a>
    564c:	e099      	b.n	5782 <_printf_i+0x15e>
    564e:	2a58      	cmp	r2, #88	; 0x58
    5650:	d054      	beq.n	56fc <_printf_i+0xd8>
    5652:	0026      	movs	r6, r4
    5654:	3642      	adds	r6, #66	; 0x42
    5656:	7032      	strb	r2, [r6, #0]
    5658:	e029      	b.n	56ae <_printf_i+0x8a>
    565a:	2a64      	cmp	r2, #100	; 0x64
    565c:	d001      	beq.n	5662 <_printf_i+0x3e>
    565e:	2a69      	cmp	r2, #105	; 0x69
    5660:	d1f7      	bne.n	5652 <_printf_i+0x2e>
    5662:	6821      	ldr	r1, [r4, #0]
    5664:	681a      	ldr	r2, [r3, #0]
    5666:	0608      	lsls	r0, r1, #24
    5668:	d523      	bpl.n	56b2 <_printf_i+0x8e>
    566a:	1d11      	adds	r1, r2, #4
    566c:	6019      	str	r1, [r3, #0]
    566e:	6815      	ldr	r5, [r2, #0]
    5670:	e025      	b.n	56be <_printf_i+0x9a>
    5672:	2a73      	cmp	r2, #115	; 0x73
    5674:	d100      	bne.n	5678 <_printf_i+0x54>
    5676:	e088      	b.n	578a <_printf_i+0x166>
    5678:	d808      	bhi.n	568c <_printf_i+0x68>
    567a:	2a6f      	cmp	r2, #111	; 0x6f
    567c:	d029      	beq.n	56d2 <_printf_i+0xae>
    567e:	2a70      	cmp	r2, #112	; 0x70
    5680:	d1e7      	bne.n	5652 <_printf_i+0x2e>
    5682:	2220      	movs	r2, #32
    5684:	6809      	ldr	r1, [r1, #0]
    5686:	430a      	orrs	r2, r1
    5688:	6022      	str	r2, [r4, #0]
    568a:	e003      	b.n	5694 <_printf_i+0x70>
    568c:	2a75      	cmp	r2, #117	; 0x75
    568e:	d020      	beq.n	56d2 <_printf_i+0xae>
    5690:	2a78      	cmp	r2, #120	; 0x78
    5692:	d1de      	bne.n	5652 <_printf_i+0x2e>
    5694:	0022      	movs	r2, r4
    5696:	2178      	movs	r1, #120	; 0x78
    5698:	3245      	adds	r2, #69	; 0x45
    569a:	7011      	strb	r1, [r2, #0]
    569c:	4a6c      	ldr	r2, [pc, #432]	; (5850 <_printf_i+0x22c>)
    569e:	e030      	b.n	5702 <_printf_i+0xde>
    56a0:	000e      	movs	r6, r1
    56a2:	681a      	ldr	r2, [r3, #0]
    56a4:	3642      	adds	r6, #66	; 0x42
    56a6:	1d11      	adds	r1, r2, #4
    56a8:	6019      	str	r1, [r3, #0]
    56aa:	6813      	ldr	r3, [r2, #0]
    56ac:	7033      	strb	r3, [r6, #0]
    56ae:	2301      	movs	r3, #1
    56b0:	e079      	b.n	57a6 <_printf_i+0x182>
    56b2:	0649      	lsls	r1, r1, #25
    56b4:	d5d9      	bpl.n	566a <_printf_i+0x46>
    56b6:	1d11      	adds	r1, r2, #4
    56b8:	6019      	str	r1, [r3, #0]
    56ba:	2300      	movs	r3, #0
    56bc:	5ed5      	ldrsh	r5, [r2, r3]
    56be:	2d00      	cmp	r5, #0
    56c0:	da03      	bge.n	56ca <_printf_i+0xa6>
    56c2:	232d      	movs	r3, #45	; 0x2d
    56c4:	9a04      	ldr	r2, [sp, #16]
    56c6:	426d      	negs	r5, r5
    56c8:	7013      	strb	r3, [r2, #0]
    56ca:	4b62      	ldr	r3, [pc, #392]	; (5854 <_printf_i+0x230>)
    56cc:	270a      	movs	r7, #10
    56ce:	9303      	str	r3, [sp, #12]
    56d0:	e02f      	b.n	5732 <_printf_i+0x10e>
    56d2:	6820      	ldr	r0, [r4, #0]
    56d4:	6819      	ldr	r1, [r3, #0]
    56d6:	0605      	lsls	r5, r0, #24
    56d8:	d503      	bpl.n	56e2 <_printf_i+0xbe>
    56da:	1d08      	adds	r0, r1, #4
    56dc:	6018      	str	r0, [r3, #0]
    56de:	680d      	ldr	r5, [r1, #0]
    56e0:	e005      	b.n	56ee <_printf_i+0xca>
    56e2:	0640      	lsls	r0, r0, #25
    56e4:	d5f9      	bpl.n	56da <_printf_i+0xb6>
    56e6:	680d      	ldr	r5, [r1, #0]
    56e8:	1d08      	adds	r0, r1, #4
    56ea:	6018      	str	r0, [r3, #0]
    56ec:	b2ad      	uxth	r5, r5
    56ee:	4b59      	ldr	r3, [pc, #356]	; (5854 <_printf_i+0x230>)
    56f0:	2708      	movs	r7, #8
    56f2:	9303      	str	r3, [sp, #12]
    56f4:	2a6f      	cmp	r2, #111	; 0x6f
    56f6:	d018      	beq.n	572a <_printf_i+0x106>
    56f8:	270a      	movs	r7, #10
    56fa:	e016      	b.n	572a <_printf_i+0x106>
    56fc:	3145      	adds	r1, #69	; 0x45
    56fe:	700a      	strb	r2, [r1, #0]
    5700:	4a54      	ldr	r2, [pc, #336]	; (5854 <_printf_i+0x230>)
    5702:	9203      	str	r2, [sp, #12]
    5704:	681a      	ldr	r2, [r3, #0]
    5706:	6821      	ldr	r1, [r4, #0]
    5708:	1d10      	adds	r0, r2, #4
    570a:	6018      	str	r0, [r3, #0]
    570c:	6815      	ldr	r5, [r2, #0]
    570e:	0608      	lsls	r0, r1, #24
    5710:	d522      	bpl.n	5758 <_printf_i+0x134>
    5712:	07cb      	lsls	r3, r1, #31
    5714:	d502      	bpl.n	571c <_printf_i+0xf8>
    5716:	2320      	movs	r3, #32
    5718:	4319      	orrs	r1, r3
    571a:	6021      	str	r1, [r4, #0]
    571c:	2710      	movs	r7, #16
    571e:	2d00      	cmp	r5, #0
    5720:	d103      	bne.n	572a <_printf_i+0x106>
    5722:	2320      	movs	r3, #32
    5724:	6822      	ldr	r2, [r4, #0]
    5726:	439a      	bics	r2, r3
    5728:	6022      	str	r2, [r4, #0]
    572a:	0023      	movs	r3, r4
    572c:	2200      	movs	r2, #0
    572e:	3343      	adds	r3, #67	; 0x43
    5730:	701a      	strb	r2, [r3, #0]
    5732:	6863      	ldr	r3, [r4, #4]
    5734:	60a3      	str	r3, [r4, #8]
    5736:	2b00      	cmp	r3, #0
    5738:	db5c      	blt.n	57f4 <_printf_i+0x1d0>
    573a:	2204      	movs	r2, #4
    573c:	6821      	ldr	r1, [r4, #0]
    573e:	4391      	bics	r1, r2
    5740:	6021      	str	r1, [r4, #0]
    5742:	2d00      	cmp	r5, #0
    5744:	d158      	bne.n	57f8 <_printf_i+0x1d4>
    5746:	9e04      	ldr	r6, [sp, #16]
    5748:	2b00      	cmp	r3, #0
    574a:	d064      	beq.n	5816 <_printf_i+0x1f2>
    574c:	0026      	movs	r6, r4
    574e:	9b03      	ldr	r3, [sp, #12]
    5750:	3642      	adds	r6, #66	; 0x42
    5752:	781b      	ldrb	r3, [r3, #0]
    5754:	7033      	strb	r3, [r6, #0]
    5756:	e05e      	b.n	5816 <_printf_i+0x1f2>
    5758:	0648      	lsls	r0, r1, #25
    575a:	d5da      	bpl.n	5712 <_printf_i+0xee>
    575c:	b2ad      	uxth	r5, r5
    575e:	e7d8      	b.n	5712 <_printf_i+0xee>
    5760:	6809      	ldr	r1, [r1, #0]
    5762:	681a      	ldr	r2, [r3, #0]
    5764:	0608      	lsls	r0, r1, #24
    5766:	d505      	bpl.n	5774 <_printf_i+0x150>
    5768:	1d11      	adds	r1, r2, #4
    576a:	6019      	str	r1, [r3, #0]
    576c:	6813      	ldr	r3, [r2, #0]
    576e:	6962      	ldr	r2, [r4, #20]
    5770:	601a      	str	r2, [r3, #0]
    5772:	e006      	b.n	5782 <_printf_i+0x15e>
    5774:	0649      	lsls	r1, r1, #25
    5776:	d5f7      	bpl.n	5768 <_printf_i+0x144>
    5778:	1d11      	adds	r1, r2, #4
    577a:	6019      	str	r1, [r3, #0]
    577c:	6813      	ldr	r3, [r2, #0]
    577e:	8aa2      	ldrh	r2, [r4, #20]
    5780:	801a      	strh	r2, [r3, #0]
    5782:	2300      	movs	r3, #0
    5784:	9e04      	ldr	r6, [sp, #16]
    5786:	6123      	str	r3, [r4, #16]
    5788:	e054      	b.n	5834 <_printf_i+0x210>
    578a:	681a      	ldr	r2, [r3, #0]
    578c:	1d11      	adds	r1, r2, #4
    578e:	6019      	str	r1, [r3, #0]
    5790:	6816      	ldr	r6, [r2, #0]
    5792:	2100      	movs	r1, #0
    5794:	6862      	ldr	r2, [r4, #4]
    5796:	0030      	movs	r0, r6
    5798:	f000 f85e 	bl	5858 <memchr>
    579c:	2800      	cmp	r0, #0
    579e:	d001      	beq.n	57a4 <_printf_i+0x180>
    57a0:	1b80      	subs	r0, r0, r6
    57a2:	6060      	str	r0, [r4, #4]
    57a4:	6863      	ldr	r3, [r4, #4]
    57a6:	6123      	str	r3, [r4, #16]
    57a8:	2300      	movs	r3, #0
    57aa:	9a04      	ldr	r2, [sp, #16]
    57ac:	7013      	strb	r3, [r2, #0]
    57ae:	e041      	b.n	5834 <_printf_i+0x210>
    57b0:	6923      	ldr	r3, [r4, #16]
    57b2:	0032      	movs	r2, r6
    57b4:	9906      	ldr	r1, [sp, #24]
    57b6:	9805      	ldr	r0, [sp, #20]
    57b8:	9d07      	ldr	r5, [sp, #28]
    57ba:	47a8      	blx	r5
    57bc:	1c43      	adds	r3, r0, #1
    57be:	d043      	beq.n	5848 <_printf_i+0x224>
    57c0:	6823      	ldr	r3, [r4, #0]
    57c2:	2500      	movs	r5, #0
    57c4:	079b      	lsls	r3, r3, #30
    57c6:	d40f      	bmi.n	57e8 <_printf_i+0x1c4>
    57c8:	9b09      	ldr	r3, [sp, #36]	; 0x24
    57ca:	68e0      	ldr	r0, [r4, #12]
    57cc:	4298      	cmp	r0, r3
    57ce:	da3d      	bge.n	584c <_printf_i+0x228>
    57d0:	0018      	movs	r0, r3
    57d2:	e03b      	b.n	584c <_printf_i+0x228>
    57d4:	0022      	movs	r2, r4
    57d6:	2301      	movs	r3, #1
    57d8:	3219      	adds	r2, #25
    57da:	9906      	ldr	r1, [sp, #24]
    57dc:	9805      	ldr	r0, [sp, #20]
    57de:	9e07      	ldr	r6, [sp, #28]
    57e0:	47b0      	blx	r6
    57e2:	1c43      	adds	r3, r0, #1
    57e4:	d030      	beq.n	5848 <_printf_i+0x224>
    57e6:	3501      	adds	r5, #1
    57e8:	68e3      	ldr	r3, [r4, #12]
    57ea:	9a09      	ldr	r2, [sp, #36]	; 0x24
    57ec:	1a9b      	subs	r3, r3, r2
    57ee:	429d      	cmp	r5, r3
    57f0:	dbf0      	blt.n	57d4 <_printf_i+0x1b0>
    57f2:	e7e9      	b.n	57c8 <_printf_i+0x1a4>
    57f4:	2d00      	cmp	r5, #0
    57f6:	d0a9      	beq.n	574c <_printf_i+0x128>
    57f8:	9e04      	ldr	r6, [sp, #16]
    57fa:	0028      	movs	r0, r5
    57fc:	0039      	movs	r1, r7
    57fe:	f7fd ff67 	bl	36d0 <__aeabi_uidivmod>
    5802:	9b03      	ldr	r3, [sp, #12]
    5804:	3e01      	subs	r6, #1
    5806:	5c5b      	ldrb	r3, [r3, r1]
    5808:	0028      	movs	r0, r5
    580a:	7033      	strb	r3, [r6, #0]
    580c:	0039      	movs	r1, r7
    580e:	f7fd fed9 	bl	35c4 <__udivsi3>
    5812:	1e05      	subs	r5, r0, #0
    5814:	d1f1      	bne.n	57fa <_printf_i+0x1d6>
    5816:	2f08      	cmp	r7, #8
    5818:	d109      	bne.n	582e <_printf_i+0x20a>
    581a:	6823      	ldr	r3, [r4, #0]
    581c:	07db      	lsls	r3, r3, #31
    581e:	d506      	bpl.n	582e <_printf_i+0x20a>
    5820:	6863      	ldr	r3, [r4, #4]
    5822:	6922      	ldr	r2, [r4, #16]
    5824:	4293      	cmp	r3, r2
    5826:	dc02      	bgt.n	582e <_printf_i+0x20a>
    5828:	2330      	movs	r3, #48	; 0x30
    582a:	3e01      	subs	r6, #1
    582c:	7033      	strb	r3, [r6, #0]
    582e:	9b04      	ldr	r3, [sp, #16]
    5830:	1b9b      	subs	r3, r3, r6
    5832:	6123      	str	r3, [r4, #16]
    5834:	9b07      	ldr	r3, [sp, #28]
    5836:	aa09      	add	r2, sp, #36	; 0x24
    5838:	9300      	str	r3, [sp, #0]
    583a:	0021      	movs	r1, r4
    583c:	9b06      	ldr	r3, [sp, #24]
    583e:	9805      	ldr	r0, [sp, #20]
    5840:	f7ff fe82 	bl	5548 <_printf_common>
    5844:	1c43      	adds	r3, r0, #1
    5846:	d1b3      	bne.n	57b0 <_printf_i+0x18c>
    5848:	2001      	movs	r0, #1
    584a:	4240      	negs	r0, r0
    584c:	b00b      	add	sp, #44	; 0x2c
    584e:	bdf0      	pop	{r4, r5, r6, r7, pc}
    5850:	00005b96 	.word	0x00005b96
    5854:	00005b85 	.word	0x00005b85

00005858 <memchr>:
    5858:	b2c9      	uxtb	r1, r1
    585a:	1882      	adds	r2, r0, r2
    585c:	4290      	cmp	r0, r2
    585e:	d101      	bne.n	5864 <memchr+0xc>
    5860:	2000      	movs	r0, #0
    5862:	4770      	bx	lr
    5864:	7803      	ldrb	r3, [r0, #0]
    5866:	428b      	cmp	r3, r1
    5868:	d0fb      	beq.n	5862 <memchr+0xa>
    586a:	3001      	adds	r0, #1
    586c:	e7f6      	b.n	585c <memchr+0x4>

0000586e <memmove>:
    586e:	b510      	push	{r4, lr}
    5870:	4288      	cmp	r0, r1
    5872:	d902      	bls.n	587a <memmove+0xc>
    5874:	188b      	adds	r3, r1, r2
    5876:	4298      	cmp	r0, r3
    5878:	d308      	bcc.n	588c <memmove+0x1e>
    587a:	2300      	movs	r3, #0
    587c:	429a      	cmp	r2, r3
    587e:	d007      	beq.n	5890 <memmove+0x22>
    5880:	5ccc      	ldrb	r4, [r1, r3]
    5882:	54c4      	strb	r4, [r0, r3]
    5884:	3301      	adds	r3, #1
    5886:	e7f9      	b.n	587c <memmove+0xe>
    5888:	5c8b      	ldrb	r3, [r1, r2]
    588a:	5483      	strb	r3, [r0, r2]
    588c:	3a01      	subs	r2, #1
    588e:	d2fb      	bcs.n	5888 <memmove+0x1a>
    5890:	bd10      	pop	{r4, pc}

00005892 <_realloc_r>:
    5892:	b5f8      	push	{r3, r4, r5, r6, r7, lr}
    5894:	0007      	movs	r7, r0
    5896:	000d      	movs	r5, r1
    5898:	0016      	movs	r6, r2
    589a:	2900      	cmp	r1, #0
    589c:	d105      	bne.n	58aa <_realloc_r+0x18>
    589e:	0011      	movs	r1, r2
    58a0:	f7ff fc48 	bl	5134 <_malloc_r>
    58a4:	0004      	movs	r4, r0
    58a6:	0020      	movs	r0, r4
    58a8:	bdf8      	pop	{r3, r4, r5, r6, r7, pc}
    58aa:	2a00      	cmp	r2, #0
    58ac:	d103      	bne.n	58b6 <_realloc_r+0x24>
    58ae:	f7ff fbf7 	bl	50a0 <_free_r>
    58b2:	0034      	movs	r4, r6
    58b4:	e7f7      	b.n	58a6 <_realloc_r+0x14>
    58b6:	f000 f812 	bl	58de <_malloc_usable_size_r>
    58ba:	002c      	movs	r4, r5
    58bc:	4286      	cmp	r6, r0
    58be:	d9f2      	bls.n	58a6 <_realloc_r+0x14>
    58c0:	0031      	movs	r1, r6
    58c2:	0038      	movs	r0, r7
    58c4:	f7ff fc36 	bl	5134 <_malloc_r>
    58c8:	1e04      	subs	r4, r0, #0
    58ca:	d0ec      	beq.n	58a6 <_realloc_r+0x14>
    58cc:	0029      	movs	r1, r5
    58ce:	0032      	movs	r2, r6
    58d0:	f7ff fbd4 	bl	507c <memcpy>
    58d4:	0029      	movs	r1, r5
    58d6:	0038      	movs	r0, r7
    58d8:	f7ff fbe2 	bl	50a0 <_free_r>
    58dc:	e7e3      	b.n	58a6 <_realloc_r+0x14>

000058de <_malloc_usable_size_r>:
    58de:	1f0b      	subs	r3, r1, #4
    58e0:	681b      	ldr	r3, [r3, #0]
    58e2:	1f18      	subs	r0, r3, #4
    58e4:	2b00      	cmp	r3, #0
    58e6:	da01      	bge.n	58ec <_malloc_usable_size_r+0xe>
    58e8:	580b      	ldr	r3, [r1, r0]
    58ea:	18c0      	adds	r0, r0, r3
    58ec:	4770      	bx	lr
    58ee:	0000      	movs	r0, r0
    58f0:	00000000 	.word	0x00000000
    58f4:	00000040 	.word	0x00000040
    58f8:	00000014 	.word	0x00000014
    58fc:	00000054 	.word	0x00000054
    5900:	0000051c 	.word	0x0000051c
    5904:	0000052e 	.word	0x0000052e
    5908:	00000560 	.word	0x00000560
    590c:	00000590 	.word	0x00000590
    5910:	000005b0 	.word	0x000005b0
    5914:	000005e0 	.word	0x000005e0
    5918:	42000400 	.word	0x42000400
    591c:	42000800 	.word	0x42000800
    5920:	42000c00 	.word	0x42000c00
    5924:	42001000 	.word	0x42001000
    5928:	42001400 	.word	0x42001400
    592c:	42001800 	.word	0x42001800

00005930 <_tcc_apbcmasks>:
    5930:	00000200 00000400 00000800              ............

0000593c <_tcc_cc_nums>:
    593c:	00020204                                ....

00005940 <_tcc_gclk_ids>:
    5940:	001d1c1c                                ....

00005944 <_tcc_maxs>:
    5944:	00ffffff 00ffffff 0000ffff              ............

00005950 <_tcc_ow_nums>:
    5950:	00020408                                ....

00005954 <_tcc_intflag>:
    5954:	00000001 00000002 00000004 00000008     ................
    5964:	00001000 00002000 00004000 00008000     ..... ...@......
    5974:	00010000 00020000 00040000 00080000     ................

00005984 <tcc_interrupt_vectors.14047>:
    5984:	00131211 00001d06 00001d40 00001d50     ........@...P...
    5994:	00001d6e 00001d60 00001d8a 00001d7c     n...`.......|...
    59a4:	756c3325 3330252e 0000756c 20202020     %3lu.%03lu..    
    59b4:	20202020 00000020 20202020 00000000          ...    ....
    59c4:	20202020 00202020 00643725 756c3725            .%7d.%7lu
    59d4:	00000000 00733725 4f525245 00393952     ....%7s.ERROR99.
    59e4:	2d256325 36257339 73342573 00000000     %c%-9s%6s%4s....
    59f4:	73392d25 25733725 00007334 0000265a     %-9s%7s%4s..Z&..
    5a04:	00002656 00002656 00002688 00002688     V&..V&...&...&..
    5a14:	00002672 00002660 00002678 20001e1c     r&..`&..x&..... 
    5a24:	20001e00 20001de8 20001dd0 20001d94     ... ... ... ... 
    5a34:	200000e4 2000034c 200005b4 2000081c     ... L.. ... ... 
    5a44:	20000a84 54544553 53474e49 00000000     ... SETTINGS....
    5a54:	4e414843 204c454e 00000031 4e414843     CHANNEL 1...CHAN
    5a64:	204c454e 00000032 4e414843 204c454e     NEL 2...CHANNEL 
    5a74:	00000033 4e414843 204c454e 00000034     3...CHANNEL 4...
    5a84:	4e414843 204c454e 00000035 544e4f43     CHANNEL 5...CONT
    5a94:	54534152 00000000 47495242 454e5448     RAST....BRIGHTNE
    5aa4:	00000053 45444f4d 00000000 4b434142     S...MODE....BACK
    5ab4:	00000000 25584d44 00000064 25584d44     ....DMX%d...DMX%
    5ac4:	64252d64 00000000 54415453 435f4349     d-%d....STATIC_C
    5ad4:	00000048 20584d44 20204843 00000020     H...DMX CH   ...
    5ae4:	4556454c 2020204c 00000020 736d2020     LEVEL    ...  ms
    5af4:	00000000 41545441 20204b43 00000020     ....ATTACK   ...
    5b04:	41434544 20202059 00000020 54535553     DECAY    ...SUST
    5b14:	204e4941 00000020 454c4552 20455341     AIN  ...RELEASE 
    5b24:	00000020 4b434142 20202020 00000020      ...BACK     ...
    5b34:	00003c10 00003b60 00003b60 00003b5e     .<..`;..`;..^;..
    5b44:	00003c02 00003c02 00003bf8 00003b5e     .<...<...;..^;..
    5b54:	00003c02 00003bf8 00003c02 00003b5e     .<...;...<..^;..
    5b64:	00003c08 00003c08 00003c08 00003c98     .<...<...<...<..
    5b74:	2b302d23 6c680020 6665004c 47464567     #-0+ .hlL.efgEFG
    5b84:	32313000 36353433 41393837 45444342     .0123456789ABCDE
    5b94:	31300046 35343332 39383736 64636261     F.0123456789abcd
    5ba4:	00006665                                ef..

00005ba8 <_init>:
    5ba8:	b5f8      	push	{r3, r4, r5, r6, r7, lr}
    5baa:	46c0      	nop			; (mov r8, r8)
    5bac:	bcf8      	pop	{r3, r4, r5, r6, r7}
    5bae:	bc08      	pop	{r3}
    5bb0:	469e      	mov	lr, r3
    5bb2:	4770      	bx	lr

00005bb4 <__init_array_start>:
    5bb4:	000000e5 	.word	0x000000e5

00005bb8 <_fini>:
    5bb8:	b5f8      	push	{r3, r4, r5, r6, r7, lr}
    5bba:	46c0      	nop			; (mov r8, r8)
    5bbc:	bcf8      	pop	{r3, r4, r5, r6, r7}
    5bbe:	bc08      	pop	{r3}
    5bc0:	469e      	mov	lr, r3
    5bc2:	4770      	bx	lr

00005bc4 <__fini_array_start>:
    5bc4:	000000bd 	.word	0x000000bd

Disassembly of section .relocate:

20000000 <portable_delay_cycles>:
RAMFUNC
void portable_delay_cycles(unsigned long n)
{
    UNUSED(n);

    __asm (
20000000:	f3bf 8f5f 	dmb	sy
20000004:	3801      	subs	r0, #1
20000006:	2800      	cmp	r0, #0
20000008:	d1fa      	bne.n	20000000 <portable_delay_cycles>
        "SUB r0, r0, #1 \n"
#endif
        "CMP r0, #0  \n"
        "BNE loop         "
    );
}
2000000a:	4770      	bx	lr

2000000c <cycles_per_ms>:
2000000c:	1f40 0000                                   @...

20000010 <cycles_per_us>:
20000010:	0008 0000                                   ....

20000014 <g_interrupt_enabled>:
20000014:	0101                                             .

20000015 <key_pressed>:
20000015:	0001 ec00                                        ...

20000018 <selected_menu>:
20000018:	0cec 2000                                   ... 

2000001c <_impure_ptr>:
2000001c:	0020 2000                                    .. 

20000020 <impure_data>:
	...
